Archive member included because of file (symbol)

lib/lib.a(argv_split.o)       kernel/built-in.o (argv_split)
lib/lib.a(bug.o)              arch/x86/built-in.o (report_bug)
lib/lib.a(cmdline.o)          init/built-in.o (get_option)
lib/lib.a(cpumask.o)          arch/x86/built-in.o (cpumask_any_but)
lib/lib.a(ctype.o)            init/built-in.o (_ctype)
lib/lib.a(dec_and_lock.o)     kernel/built-in.o (_atomic_dec_and_lock)
lib/lib.a(decompress.o)       init/built-in.o (decompress_method)
lib/lib.a(decompress_bunzip2.o)
                              lib/lib.a(decompress.o) (bunzip2)
lib/lib.a(decompress_inflate.o)
                              lib/lib.a(decompress.o) (gunzip)
lib/lib.a(decompress_unlzma.o)
                              lib/lib.a(decompress.o) (unlzma)
lib/lib.a(extable.o)          kernel/built-in.o (trim_init_extable)
lib/lib.a(find_next_bit.o)    arch/x86/built-in.o (find_first_bit)
lib/lib.a(idr.o)              kernel/built-in.o (idr_get_new)
lib/lib.a(int_sqrt.o)         mm/built-in.o (int_sqrt)
lib/lib.a(ioremap.o)          arch/x86/built-in.o (ioremap_page_range)
lib/lib.a(is_single_threaded.o)
                              security/built-in.o (current_is_single_threaded)
lib/lib.a(kobject.o)          fs/built-in.o (kobject_init)
lib/lib.a(kobject_uevent.o)   block/built-in.o (kobject_uevent_env)
lib/lib.a(kref.o)             kernel/built-in.o (kref_get)
lib/lib.a(plist.o)            kernel/built-in.o (plist_del)
lib/lib.a(prio_heap.o)        kernel/built-in.o (heap_insert)
lib/lib.a(prio_tree.o)        init/built-in.o (prio_tree_init)
lib/lib.a(proportions.o)      kernel/built-in.o (prop_local_init_single)
lib/lib.a(radix-tree.o)       mm/built-in.o (radix_tree_insert)
lib/lib.a(ratelimit.o)        arch/x86/built-in.o (__ratelimit)
lib/lib.a(rbtree.o)           kernel/built-in.o (rb_last)
lib/lib.a(reciprocal_div.o)   mm/built-in.o (reciprocal_value)
lib/lib.a(rwsem.o)            kernel/built-in.o (__init_rwsem)
lib/lib.a(sha1.o)             crypto/built-in.o (sha_transform)
lib/lib.a(show_mem.o)         mm/built-in.o (show_mem)
lib/lib.a(string.o)           mm/built-in.o (strrchr)
lib/lib.a(vsprintf.o)         arch/x86/built-in.o (vscnprintf)
arch/x86/lib/lib.a(checksum_32.o)
                              arch/x86/built-in.o (csum_partial)
arch/x86/lib/lib.a(delay.o)   kernel/built-in.o (__udelay)
arch/x86/lib/lib.a(getuser.o)
                              arch/x86/built-in.o (__get_user_1)
arch/x86/lib/lib.a(memcpy_32.o)
                              init/built-in.o (memmove)
arch/x86/lib/lib.a(putuser.o)
                              arch/x86/built-in.o (__put_user_1)
arch/x86/lib/lib.a(semaphore_32.o)
                              kernel/built-in.o (call_rwsem_down_read_failed)
arch/x86/lib/lib.a(string_32.o)
                              init/built-in.o (strcpy)
arch/x86/lib/lib.a(strstr_32.o)
                              arch/x86/built-in.o (strstr)
arch/x86/lib/lib.a(usercopy_32.o)
                              arch/x86/built-in.o (movsl_mask)
lib/lib.a(klist.o)            drivers/built-in.o (klist_next)

Discarded input sections

 .discard       0x0000000000000000        0x2 arch/x86/kernel/init_task.o
 .eh_frame      0x0000000000000000     0x10c8 arch/x86/built-in.o
 .discard       0x0000000000000000       0x84 arch/x86/built-in.o
 .exitcall.exit
                0x0000000000000000       0x20 arch/x86/built-in.o
 .discard       0x0000000000000000       0x3b kernel/built-in.o
 .discard       0x0000000000000000        0x8 mm/built-in.o
 .exitcall.exit
                0x0000000000000000        0x4 mm/built-in.o
 .exitcall.exit
                0x0000000000000000       0x2c fs/built-in.o
 .discard       0x0000000000000000        0x3 fs/built-in.o
 .discard       0x0000000000000000        0x2 security/built-in.o
 .exitcall.exit
                0x0000000000000000       0x2c crypto/built-in.o
 .discard       0x0000000000000000        0x4 block/built-in.o
 .exitcall.exit
                0x0000000000000000       0x10 block/built-in.o
 .eh_frame      0x0000000000000000       0x70 arch/x86/lib/lib.a(checksum_32.o)
 .eh_frame      0x0000000000000000       0x68 arch/x86/lib/lib.a(getuser.o)
 .eh_frame      0x0000000000000000       0x7c arch/x86/lib/lib.a(putuser.o)
 .eh_frame      0x0000000000000000       0xd4 arch/x86/lib/lib.a(semaphore_32.o)
 .eh_frame      0x0000000000000000       0x98 arch/x86/lib/built-in.o
 .exitcall.exit
                0x0000000000000000      0x1c8 drivers/built-in.o
 .exitcall.exit
                0x0000000000000000       0x44 net/built-in.o

Memory Configuration

Name             Origin             Length             Attributes
*default*        0x0000000000000000 0xffffffffffffffff

Linker script and memory map

                0x00000000c09faa40                jiffies = jiffies_64
                0x00000000c0400000                . = 0xc0400000
                0x0000000000400000                phys_startup_32 = (startup_32 - 0xc0000000)

.text           0x00000000c0400000   0x4156e0 load address 0x0000000000400000
                0x00000000c0400000                _text = .
 *(.head.text)
 .head.text     0x00000000c0400000       0xd0 arch/x86/kernel/head_32.o
                0x00000000c0400000                startup_32
                0x00000000c0400079                xen_entry
                0x00000000c0400079                lguest_entry
                0x00000000c0401000                . = ALIGN (0x1000)
 *fill*         0x00000000c04000d0      0xf30 9090
 *(.text.page_aligned)
 .text.page_aligned
                0x00000000c0401000       0xe1 arch/x86/built-in.o
                0x00000000c0401000                wakeup_pmode_return
                0x00000000c04010c0                do_suspend_lowlevel
                0x00000000c04010e8                . = ALIGN (0x8)
 *fill*         0x00000000c04010e1        0x7 9090
                0x00000000c04010e8                _stext = .
                0x00000000c04010e8                . = ALIGN (0x8)
 *(.text.hot)
 *(.text)
 *fill*         0x00000000c04010e8      0xf18 9090
 .text          0x00000000c0402000     0x1000 arch/x86/kernel/head_32.o
                0x00000000c0402000                hypercall_page
 .text          0x00000000c0403000        0x0 arch/x86/kernel/head32.o
 .text          0x00000000c0403000        0x0 arch/x86/kernel/head.o
 .text          0x00000000c0403000        0x0 arch/x86/kernel/init_task.o
 .text          0x00000000c0403000      0x6b4 init/built-in.o
                0x00000000c0403010                do_one_initcall
                0x00000000c0403340                name_to_dev_t
 .text          0x00000000c04036b4        0x0 usr/built-in.o
 *fill*         0x00000000c04036b4        0xc 9090
 .text          0x00000000c04036c0    0x34d96 arch/x86/built-in.o
                0x00000000c0403b20                xen_copy_trap_info
                0x00000000c04042e0                xen_setup_vcpu_info_placement
                0x00000000c04043a0                xen_setup_shared_info
                0x00000000c0404410                xen_vcpu_restore
                0x00000000c04048a0                xen_mc_extend_args
                0x00000000c0404930                xen_mc_flush
                0x00000000c0404bb0                xen_mc_callback
                0x00000000c0404c40                __xen_mc_entry
                0x00000000c0404dd0                xen_ptep_modify_prot_start
                0x00000000c0404de0                xen_pte_val
                0x00000000c0404e30                xen_pgd_val
                0x00000000c0404ea0                xen_pmd_val
                0x00000000c0404f10                xen_set_pte_atomic
                0x00000000c0404f40                xen_pte_clear
                0x00000000c0404f60                xen_pmd_clear
                0x00000000c0404fc0                xen_read_cr2_direct
                0x00000000c0405100                __set_phys_to_machine
                0x00000000c0405150                get_phys_to_machine
                0x00000000c0405480                install_p2mtop_page
                0x00000000c0405500                xen_set_pte
                0x00000000c0405770                set_pte_mfn
                0x00000000c04057c0                make_lowmem_page_readwrite
                0x00000000c0405800                make_lowmem_page_readonly
                0x00000000c0405840                set_phys_to_machine
                0x00000000c04058d0                xen_build_mfn_list_list
                0x00000000c0405cb0                xen_setup_mfn_list_list
                0x00000000c0405f20                arbitrary_virt_to_machine
                0x00000000c0405fe0                arbitrary_virt_to_mfn
                0x00000000c0405ff0                xen_make_pgd
                0x00000000c0406080                xen_make_pte
                0x00000000c0406100                xen_make_pmd
                0x00000000c0406190                xen_set_pte_at
                0x00000000c0406320                xen_set_pud_hyper
                0x00000000c0406410                xen_set_pud
                0x00000000c04064c0                xen_ptep_modify_prot_commit
                0x00000000c04065c0                xen_set_pmd_hyper
                0x00000000c04066b0                xen_set_pmd
                0x00000000c0406ae0                xen_exit_mmap
                0x00000000c0406c50                xen_mm_unpin_all
                0x00000000c0406f70                xen_dup_mmap
                0x00000000c0406fb0                xen_activate_mm
                0x00000000c0406ff0                xen_mm_pin_all
                0x00000000c0407080                xen_force_evtchn_callback
                0x00000000c04071d0                xen_vcpu_stolen
                0x00000000c04071f0                xen_setup_runstate_info
                0x00000000c0407230                xen_set_wallclock
                0x00000000c0407320                xen_get_wallclock
                0x00000000c0407350                xen_timer_resume
                0x00000000c04073e0                xen_setup_cpu_clockevents
                0x00000000c0407400                xen_teardown_timer
                0x00000000c0407430                xen_setup_timer
                0x00000000c0407740                xen_clocksource_read
                0x00000000c0407840                xen_tsc_khz
                0x00000000c0407854                xen_irq_enable_direct
                0x00000000c0407867                xen_irq_enable_direct_reloc
                0x00000000c040786b                xen_irq_enable_direct_end
                0x00000000c040786c                xen_irq_disable_direct
                0x00000000c0407874                xen_irq_disable_direct_end
                0x00000000c0407878                xen_save_fl_direct
                0x00000000c0407885                xen_save_fl_direct_end
                0x00000000c0407888                xen_restore_fl_direct
                0x00000000c040789f                xen_restore_fl_direct_reloc
                0x00000000c04078a3                xen_restore_fl_direct_end
                0x00000000c04078bc                xen_sysexit
                0x00000000c04078d4                xen_iret
                0x00000000c04078ff                xen_iret_start_crit
                0x00000000c040790f                xen_iret_end_crit
                0x00000000c0407914                xen_iret_crit_fixup
                0x00000000c0407a10                arch_gnttab_unmap_shared
                0x00000000c0407a40                arch_gnttab_map_shared
                0x00000000c0407aa0                xen_arch_resume
                0x00000000c0407ae0                xen_post_suspend
                0x00000000c0407b60                xen_pre_suspend
                0x00000000c04082c0                xen_debugfs_create_u32_array
                0x00000000c0408380                thread_saved_pc
                0x00000000c0408390                get_wchan
                0x00000000c0408430                prepare_to_copy
                0x00000000c04084c0                sys_execve
                0x00000000c0408520                sys_clone
                0x00000000c0408560                kernel_thread
                0x00000000c0408600                __switch_to
                0x00000000c0408770                start_thread
                0x00000000c04087d0                copy_thread
                0x00000000c0408910                release_thread
                0x00000000c0408930                __show_regs
                0x00000000c0408b90                show_regs
                0x00000000c0408bc0                cpu_idle
                0x00000000c0408cc0                signal_fault
                0x00000000c0408d90                sys_sigaltstack
                0x00000000c0408e90                sys_rt_sigreturn
                0x00000000c0408f90                sys_sigreturn
                0x00000000c0409070                sys_sigaction
                0x00000000c0409180                sys_sigsuspend
                0x00000000c0409c50                do_notify_resume
                0x00000000c0409cc0                ret_from_fork
                0x00000000c0409cfc                resume_userspace
                0x00000000c0409d28                ia32_sysenter_target
                0x00000000c0409e64                system_call
                0x00000000c040a0c0                irq_entries_start
                0x00000000c040a4fc                reschedule_interrupt
                0x00000000c040a538                call_function_interrupt
                0x00000000c040a574                call_function_single_interrupt
                0x00000000c040a5b0                irq_move_cleanup_interrupt
                0x00000000c040a5e8                reboot_interrupt
                0x00000000c040a624                invalidate_interrupt0
                0x00000000c040a660                invalidate_interrupt1
                0x00000000c040a69c                invalidate_interrupt2
                0x00000000c040a6d8                invalidate_interrupt3
                0x00000000c040a714                invalidate_interrupt4
                0x00000000c040a750                invalidate_interrupt5
                0x00000000c040a78c                invalidate_interrupt6
                0x00000000c040a7c8                invalidate_interrupt7
                0x00000000c040a804                generic_interrupt
                0x00000000c040a840                apic_timer_interrupt
                0x00000000c040a87c                error_interrupt
                0x00000000c040a8b8                spurious_interrupt
                0x00000000c040a8f4                perf_pending_interrupt
                0x00000000c040a930                thermal_interrupt
                0x00000000c040a96c                threshold_interrupt
                0x00000000c040a9a8                mce_self_interrupt
                0x00000000c040a9e4                coprocessor_error
                0x00000000c040a9f0                simd_coprocessor_error
                0x00000000c040a9fc                device_not_available
                0x00000000c040aa08                native_iret
                0x00000000c040aa0c                native_irq_enable_sysexit
                0x00000000c040aa10                overflow
                0x00000000c040aa1c                bounds
                0x00000000c040aa28                invalid_op
                0x00000000c040aa34                coprocessor_segment_overrun
                0x00000000c040aa40                invalid_TSS
                0x00000000c040aa4c                segment_not_present
                0x00000000c040aa58                stack_segment
                0x00000000c040aa64                alignment_check
                0x00000000c040aa70                divide_error
                0x00000000c040aa7c                machine_check
                0x00000000c040aa8c                spurious_interrupt_bug
                0x00000000c040aa98                kernel_thread_helper
                0x00000000c040aaa8                xen_sysenter_target
                0x00000000c040aab0                xen_hypervisor_callback
                0x00000000c040aaf4                xen_do_upcall
                0x00000000c040ab00                xen_failsafe_callback
                0x00000000c040acf0                math_error
                0x00000000c040ae60                __math_state_restore
                0x00000000c040aee0                do_iret_error
                0x00000000c040af80                math_emulate
                0x00000000c040afd0                math_state_restore
                0x00000000c040b030                restart_nmi
                0x00000000c040b050                stop_nmi
                0x00000000c040b070                do_spurious_interrupt_bug
                0x00000000c040b0a0                do_coprocessor_error
                0x00000000c040b0d0                do_simd_coprocessor_error
                0x00000000c040b190                do_divide_error
                0x00000000c040b230                do_coprocessor_segment_overrun
                0x00000000c040b2b0                do_invalid_op
                0x00000000c040b350                do_bounds
                0x00000000c040b3d0                do_overflow
                0x00000000c040b450                do_alignment_check
                0x00000000c040b500                do_stack_segment
                0x00000000c040b580                do_segment_not_present
                0x00000000c040b600                do_invalid_TSS
                0x00000000c040b680                arch_irq_stat_cpu
                0x00000000c040b760                arch_irq_stat
                0x00000000c040b780                smp_generic_interrupt
                0x00000000c040b7e0                do_IRQ
                0x00000000c040b8a0                ack_bad_irq
                0x00000000c040b8e0                show_interrupts
                0x00000000c040c590                irq_ctx_exit
                0x00000000c040c5b0                fixup_irqs
                0x00000000c040c6b0                handle_irq
                0x00000000c040c770                do_softirq
                0x00000000c040c870                x86_is_stack_id
                0x00000000c040c880                is_valid_bugaddr
                0x00000000c040c8d0                show_stack_log_lvl
                0x00000000c040c9c0                show_registers
                0x00000000c040cba0                dump_trace
                0x00000000c040ccd0                profile_pc
                0x00000000c040cd30                sys_iopl
                0x00000000c040cdb0                sys_ioperm
                0x00000000c040cf80                destroy_context
                0x00000000c040d3b0                sys_modify_ldt
                0x00000000c040d500                init_new_context
                0x00000000c040d610                printk_address
                0x00000000c040d680                die
                0x00000000c040d6f0                show_stack
                0x00000000c040d710                show_trace_log_lvl
                0x00000000c040d770                show_trace
                0x00000000c040d7d0                print_context_stack
                0x00000000c040d8b0                unmask_8259A
                0x00000000c040d8e0                mask_8259A
                0x00000000c040d910                i8259A_irq_pending
                0x00000000c040d970                enable_8259A_irq
                0x00000000c040d9d0                disable_8259A_irq
                0x00000000c040db20                init_8259A
                0x00000000c040dc60                make_8259A_irq
                0x00000000c040dd20                vector_used_by_percpu_irq
                0x00000000c040ddc0                kernel_execve
                0x00000000c040ddf0                sys_olduname
                0x00000000c040df80                sys_uname
                0x00000000c040dfd0                sys_ipc
                0x00000000c040e210                old_select
                0x00000000c040e270                old_mmap
                0x00000000c040e2e0                e820_any_mapped
                0x00000000c040e380                pci_iommu_shutdown
                0x00000000c040e390                dma_supported
                0x00000000c040e460                dma_set_mask
                0x00000000c040e4c0                dma_generic_alloc_coherent
                0x00000000c040ed50                force_hpet_resume
                0x00000000c040eff0                arch_unregister_cpu
                0x00000000c040f300                apply_paravirt
                0x00000000c040f3e0                apply_alternatives
                0x00000000c040f5b0                alternatives_smp_switch
                0x00000000c040f750                alternatives_smp_module_del
                0x00000000c040f810                alternatives_smp_module_add
                0x00000000c040fe80                sched_clock
                0x00000000c040fe90                check_tsc_unstable
                0x00000000c040fea0                recalibrate_cpu_khz
                0x00000000c040feb0                save_sched_clock_state
                0x00000000c0410070                native_sched_clock
                0x00000000c0410100                mark_tsc_unstable
                0x00000000c04103a0                native_calibrate_tsc
                0x00000000c0410b50                restore_sched_clock_state
                0x00000000c0410c60                native_io_delay
                0x00000000c0410ca0                native_read_tsc
                0x00000000c0410cb0                read_persistent_clock
                0x00000000c0410d00                update_persistent_clock
                0x00000000c0410d40                rtc_cmos_write
                0x00000000c0410de0                rtc_cmos_read
                0x00000000c0410e80                mach_get_cmos_time
                0x00000000c0411000                mach_set_rtc_mmss
                0x00000000c0411130                flush_thread
                0x00000000c04111d0                disable_TSC
                0x00000000c0411200                set_tsc_mode
                0x00000000c0411270                disable_hlt
                0x00000000c0411280                enable_hlt
                0x00000000c04112a0                arch_randomize_brk
                0x00000000c04112d0                arch_align_stack
                0x00000000c0411310                cpu_idle_wait
                0x00000000c0411330                stop_this_cpu
                0x00000000c0411380                sys_vfork
                0x00000000c04113b0                sys_fork
                0x00000000c04113e0                get_tsc_mode
                0x00000000c0411420                exit_thread
                0x00000000c04114c0                arch_task_cache_init
                0x00000000c0411500                free_thread_xstate
                0x00000000c0411560                free_thread_info
                0x00000000c0411580                arch_dup_task_struct
                0x00000000c0411620                default_idle
                0x00000000c04116c0                __switch_to_xtra
                0x00000000c0411850                mwait_idle_with_hints
                0x00000000c0411a40                c1e_remove_cpu
                0x00000000c0411bf0                fpregs_active
                0x00000000c0411c10                xfpregs_active
                0x00000000c0411f90                save_i387_xstate
                0x00000000c0412150                init_fpu
                0x00000000c0412310                restore_i387_xstate
                0x00000000c0412520                fpregs_set
                0x00000000c0412650                fpregs_get
                0x00000000c0412720                dump_fpu
                0x00000000c0412770                xfpregs_set
                0x00000000c0412850                xfpregs_get
                0x00000000c04128e0                check_for_xstate
                0x00000000c0412990                task_user_regset_view
                0x00000000c0413410                send_sigtrap
                0x00000000c0413530                ptrace_disable
                0x00000000c0413550                syscall_trace_leave
                0x00000000c0413780                arch_ptrace
                0x00000000c0413b60                syscall_trace_enter
                0x00000000c0413e20                regset_tls_active
                0x00000000c0413e50                regset_tls_set
                0x00000000c0413ed0                regset_tls_get
                0x00000000c0414110                do_get_thread_area
                0x00000000c0414260                sys_get_thread_area
                0x00000000c0414280                do_set_thread_area
                0x00000000c0414360                sys_set_thread_area
                0x00000000c0414390                user_disable_single_step
                0x00000000c0414410                convert_ip_to_linear
                0x00000000c04146a0                user_enable_block_step
                0x00000000c04146b0                user_enable_single_step
                0x00000000c04146c0                tboot_force_iommu
                0x00000000c0414710                tboot_get_dmar_table
                0x00000000c04147a0                tboot_shutdown
                0x00000000c0414950                tboot_sleep
                0x00000000c0414bc0                save_stack_trace_user
                0x00000000c0414cc0                save_stack_trace_tsk
                0x00000000c0414d10                save_stack_trace_bp
                0x00000000c0414d60                save_stack_trace
                0x00000000c04158b0                load_percpu_segment
                0x00000000c04158d0                switch_to_new_gdt
                0x00000000c0415910                vmware_platform
                0x00000000c0415b30                arch_scale_smt_power
                0x00000000c0415b50                arch_scale_freq_power
                0x00000000c0415ca0                amd_get_nb_id
                0x00000000c0415f00                hw_perf_disable
                0x00000000c0415f80                hw_perf_enable
                0x00000000c04160b0                set_perf_event_pending
                0x00000000c04160e0                perf_events_lapic_init
                0x00000000c0416190                hw_perf_event_setup_online
                0x00000000c04161f0                perf_callchain
                0x00000000c0417210                perf_event_print_debug
                0x00000000c04174b0                smp_perf_pending_interrupt
                0x00000000c0417a40                hw_perf_event_init
                0x00000000c04180d0                mce_log
                0x00000000c0418180                mce_available
                0x00000000c0418370                memory_failure
                0x00000000c0418a10                mce_get_debugfs_dir
                0x00000000c0418a40                mce_notify_irq
                0x00000000c0418ad0                mce_notify_process
                0x00000000c0419020                smp_mce_self_interrupt
                0x00000000c0419080                mce_setup
                0x00000000c0419140                mce_log_therm_throt_event
                0x00000000c0419230                machine_check_poll
                0x00000000c0419850                do_machine_check
                0x00000000c041a180                mce_severity
                0x00000000c041a410                cmci_clear
                0x00000000c041a6c0                cmci_reenable
                0x00000000c041a720                cmci_rediscover
                0x00000000c041a800                cmci_recheck
                0x00000000c041a890                mce_intel_feature_init
                0x00000000c041ac80                mce_amd_feature_init
                0x00000000c041af90                smp_threshold_interrupt
                0x00000000c041afc0                intel_init_thermal
                0x00000000c041b2e0                smp_thermal_interrupt
                0x00000000c041b390                set_mtrr_ops
                0x00000000c041b400                set_mtrr_aps_delayed_init
                0x00000000c041b430                mtrr_bp_restore
                0x00000000c041b6c0                mtrr_aps_init
                0x00000000c041b700                mtrr_ap_init
                0x00000000c041b740                mtrr_save_state
                0x00000000c041b7b0                mtrr_del_page
                0x00000000c041b920                mtrr_del
                0x00000000c041b970                mtrr_add_page
                0x00000000c041bda0                mtrr_add
                0x00000000c041be00                mtrr_attrib_to_str
                0x00000000c041c6c0                mtrr_type_lookup
                0x00000000c041c980                fill_mtrr_var_range
                0x00000000c041c9b0                generic_get_free_region
                0x00000000c041ca40                positive_have_wrcomb
                0x00000000c041cb50                generic_validate_add_page
                0x00000000c041cc40                mtrr_wrmsr
                0x00000000c041d2f0                mtrr_save_fixed_ranges
                0x00000000c041d310                set_mtrr_cache_disable
                0x00000000c041d360                set_mtrr_prepare_save
                0x00000000c041d420                set_mtrr_done
                0x00000000c041db50                mtrr_centaur_report_mcr
                0x00000000c041eb80                speedstep_get_frequency
                0x00000000c041ee40                speedstep_get_freqs
                0x00000000c041f070                speedstep_detect_processor
                0x00000000c041f9d0                reserve_evntsel_nmi
                0x00000000c041fb80                lapic_watchdog_stop
                0x00000000c041fba0                lapic_adjust_nmi_hz
                0x00000000c041fbd0                lapic_watchdog_init
                0x00000000c04202a0                disable_lapic_nmi_watchdog
                0x00000000c04202f0                enable_lapic_nmi_watchdog
                0x00000000c0420350                release_evntsel_nmi
                0x00000000c04203b0                release_perfctr_nmi
                0x00000000c0420460                avail_to_resrv_perfctr_nmi_bit
                0x00000000c0420480                avail_to_resrv_perfctr_nmi
                0x00000000c04204f0                reserve_perfctr_nmi
                0x00000000c0420620                acpi_register_ioapic
                0x00000000c0420630                acpi_unregister_ioapic
                0x00000000c0420640                __acpi_release_global_lock
                0x00000000c0420660                __acpi_acquire_global_lock
                0x00000000c0420730                mp_register_gsi
                0x00000000c04208f0                acpi_unmap_lsapic
                0x00000000c0420920                acpi_register_gsi
                0x00000000c0420970                acpi_gsi_to_irq
                0x00000000c04209a0                acpi_restore_state_mem
                0x00000000c04209b0                acpi_save_state_mem
                0x00000000c0420b50                acpi_processor_ffh_cstate_enter
                0x00000000c0420b80                acpi_processor_ffh_cstate_probe
                0x00000000c0420d00                acpi_processor_power_init_bm_check
                0x00000000c0420d60                arch_acpi_processor_cleanup_pdc
                0x00000000c0420db0                arch_acpi_processor_init_pdc
                0x00000000c04210a0                mach_reboot_fixups
                0x00000000c04210b0                machine_power_off
                0x00000000c04210c0                machine_shutdown
                0x00000000c04210d0                machine_emergency_restart
                0x00000000c04210f0                machine_restart
                0x00000000c0421100                machine_halt
                0x00000000c0421110                machine_crash_shutdown
                0x00000000c0421220                nmi_shootdown_cpus
                0x00000000c04212b0                machine_real_restart
                0x00000000c0421570                native_machine_shutdown
                0x00000000c0423530                native_send_call_func_single_ipi
                0x00000000c0423560                smp_reschedule_interrupt
                0x00000000c04236b0                smp_call_function_single_interrupt
                0x00000000c04236f0                smp_call_function_interrupt
                0x00000000c0423730                smp_reboot_interrupt
                0x00000000c0423760                native_send_call_func_ipi
                0x00000000c0423820                arch_cpu_probe
                0x00000000c0423830                arch_cpu_release
                0x00000000c0423890                numa_remove_cpu
                0x00000000c04238a0                cpu_coregroup_mask
                0x00000000c04238f0                play_dead_common
                0x00000000c0423950                native_play_dead
                0x00000000c04239b0                native_cpu_die
                0x00000000c0423a30                __inquire_remote_apic
                0x00000000c0423bb0                arch_enable_nonboot_cpus_end
                0x00000000c0423bc0                arch_enable_nonboot_cpus_begin
                0x00000000c0423bd0                cpu_hotplug_driver_unlock
                0x00000000c0423be0                cpu_hotplug_driver_lock
                0x00000000c0423cb0                cpu_disable_common
                0x00000000c0423f40                native_cpu_disable
                0x00000000c0423fc0                apic_disable
                0x00000000c0423ff0                native_apic_wait_icr_idle
                0x00000000c0424020                native_apic_icr_write
                0x00000000c0424050                native_apic_icr_read
                0x00000000c0424080                get_physical_broadcast
                0x00000000c04240c0                lapic_get_maxlvt
                0x00000000c04240f0                setup_APIC_eilvt_mce
                0x00000000c0424120                setup_APIC_eilvt_ibs
                0x00000000c0424190                setup_profiling_timer
                0x00000000c04241a0                default_init_apic_ldr
                0x00000000c0424470                disconnect_bsp_APIC
                0x00000000c04245e0                smp_error_interrupt
                0x00000000c0424690                smp_spurious_interrupt
                0x00000000c04246f0                native_safe_apic_wait_icr_idle
                0x00000000c04248e0                smp_apic_timer_interrupt
                0x00000000c0424970                clear_local_APIC
                0x00000000c0424c10                disable_local_APIC
                0x00000000c0424e50                lapic_shutdown
                0x00000000c0424ed0                default_apicid_to_node
                0x00000000c0424f00                hard_smp_processor_id
                0x00000000c04250b0                setup_apic_flat_routing
                0x00000000c04251f0                default_setup_apic_routing
                0x00000000c0425260                default_send_IPI_all
                0x00000000c04252d0                default_send_IPI_self
                0x00000000c0425320                safe_smp_processor_id
                0x00000000c04253e0                default_send_IPI_allbutself
                0x00000000c0425470                default_send_IPI_mask_logical
                0x00000000c0425580                default_send_IPI_mask_allbutself_logical
                0x00000000c04256c0                default_send_IPI_mask_sequence_logical
                0x00000000c04257f0                default_send_IPI_mask_allbutself_phys
                0x00000000c0425920                default_send_IPI_mask_sequence_phys
                0x00000000c0425a80                cpu_nmi_set_wd_enabled
                0x00000000c0425ad0                arch_trigger_all_cpu_backtrace
                0x00000000c0425b30                do_nmi_callback
                0x00000000c0425ba0                acpi_nmi_disable
                0x00000000c0425bd0                acpi_nmi_enable
                0x00000000c0425c00                stop_apic_nmi_watchdog
                0x00000000c0425c80                setup_apic_nmi_watchdog
                0x00000000c0425d00                touch_nmi_watchdog
                0x00000000c0425d90                proc_nmi_enabled
                0x00000000c0425f00                arch_disable_smp_support
                0x00000000c0425ff0                setup_ioapic_entry
                0x00000000c0426110                mp_find_ioapic
                0x00000000c0426230                save_IO_APIC_setup
                0x00000000c04263b0                ioapic_write_entry
                0x00000000c0426440                restore_IO_APIC_setup
                0x00000000c04264d0                mask_IO_APIC_setup
                0x00000000c04266e0                mp_find_ioapic_pin
                0x00000000c0426750                free_ioapic_entries
                0x00000000c0426790                arch_free_chip_data
                0x00000000c04269b0                acpi_get_override_irq
                0x00000000c0426a40                IO_APIC_get_PCI_irq_vector
                0x00000000c0427120                lock_vector_lock
                0x00000000c0427130                unlock_vector_lock
                0x00000000c04273f0                arch_setup_ht_irq
                0x00000000c0427590                arch_setup_hpet_msi
                0x00000000c0427690                arch_setup_dmar_msi
                0x00000000c0427800                destroy_irq
                0x00000000c0427910                arch_teardown_msi_irq
                0x00000000c0427920                create_irq_nr
                0x00000000c04279e0                arch_setup_msi_irqs
                0x00000000c0427b00                create_irq
                0x00000000c0427b20                arch_init_chip_data
                0x00000000c0427be0                __setup_vector_irq
                0x00000000c0427d00                smp_irq_move_cleanup_interrupt
                0x00000000c0427e60                disable_IO_APIC
                0x00000000c0427f50                alloc_ioapic_entries
                0x00000000c04283c0                io_apic_set_pci_routing
                0x00000000c0428590                setup_IO_APIC_irq_extra
                0x00000000c04286f0                arch_init_copy_chip_data
                0x00000000c0428d90                syscall_nr_to_meta
                0x00000000c0428dc0                set_syscall_enter_id
                0x00000000c0428de0                set_syscall_exit_id
                0x00000000c0428e80                syscall_name_to_nr
                0x00000000c0428ee0                arch_crash_save_vmcoreinfo
                0x00000000c0428f00                machine_kexec
                0x00000000c04291a0                machine_kexec_cleanup
                0x00000000c04291d0                machine_kexec_prepare
                0x00000000c0429318                relocate_kernel
                0x00000000c04294f0                native_machine_crash_shutdown
                0x00000000c0429780                copy_oldmem_page
                0x00000000c0429870                module_frob_arch_sections
                0x00000000c0429880                module_arch_cleanup
                0x00000000c04298a0                module_finalize
                0x00000000c0429a10                apply_relocate_add
                0x00000000c0429a40                apply_relocate
                0x00000000c0429b00                module_free
                0x00000000c0429b10                module_alloc
                0x00000000c0429d70                efi_mem_type
                0x00000000c0429df0                efi_mem_attributes
                0x00000000c0429e70                efi_set_rtc_mmss
                0x00000000c0429f30                efi_get_time
                0x00000000c0429f90                efi_call_phys_epilog
                0x00000000c042a040                efi_call_phys_prelog
                0x00000000c042a110                efi_call_phys
                0x00000000c042a2a0                pt_regs_to_gdb_regs
                0x00000000c042a310                sleeping_thread_to_gdb_regs
                0x00000000c042a390                gdb_regs_to_pt_regs
                0x00000000c042a5d0                kgdb_disable_hw_debug
                0x00000000c042a5f0                kgdb_post_primary_code
                0x00000000c042a610                kgdb_roundup_cpus
                0x00000000c042a630                kgdb_arch_pc
                0x00000000c042a650                kgdb_skipexception
                0x00000000c042a680                kgdb_arch_exit
                0x00000000c042a690                kgdb_arch_init
                0x00000000c042a6a0                kgdb_arch_handle_exception
                0x00000000c042ad70                sys_vm86
                0x00000000c042afb0                sys_vm86old
                0x00000000c042b060                save_v86_state
                0x00000000c042b380                handle_vm86_trap
                0x00000000c042b560                release_vm86_irqs
                0x00000000c042b5d0                handle_vm86_fault
                0x00000000c042c040                early_printk
                0x00000000c042c0a0                hpet_readl
                0x00000000c042c0b0                is_hpet_enabled
                0x00000000c042c100                hpet_disable
                0x00000000c042c150                hpet_register_irq_handler
                0x00000000c042c1a0                hpet_unregister_irq_handler
                0x00000000c042c1e0                hpet_mask_rtc_irq_bit
                0x00000000c042c220                hpet_set_alarm_time
                0x00000000c042c270                hpet_set_periodic_freq
                0x00000000c042c330                hpet_rtc_dropped_irq
                0x00000000c042c9c0                hpet_rtc_interrupt
                0x00000000c042cca0                hpet_rtc_timer_init
                0x00000000c042cdc0                hpet_set_rtc_irq_bit
                0x00000000c042ce80                hpet_msi_read
                0x00000000c042ced0                hpet_msi_write
                0x00000000c042cf10                hpet_msi_mask
                0x00000000c042cf50                hpet_msi_unmask
                0x00000000c042d330                k8_flush_garts
                0x00000000c042d460                cache_k8_northbridges
                0x00000000c042d560                rodata_test
                0x00000000c042dfc0                _paravirt_nop
                0x00000000c042dfd0                _paravirt_ident_32
                0x00000000c042dfe0                _paravirt_ident_64
                0x00000000c042dff0                paravirt_patch_nop
                0x00000000c042e000                paravirt_patch_ignore
                0x00000000c042e010                paravirt_patch_call
                0x00000000c042e050                paravirt_patch_jmp
                0x00000000c042e150                paravirt_patch_insns
                0x00000000c042e1f0                paravirt_get_lazy_mode
                0x00000000c042e210                arch_flush_lazy_mmu_mode
                0x00000000c042e300                paravirt_end_context_switch
                0x00000000c042e340                paravirt_leave_lazy_mmu
                0x00000000c042e360                paravirt_enter_lazy_mmu
                0x00000000c042e380                paravirt_start_context_switch
                0x00000000c042e3d0                paravirt_disable_iospace
                0x00000000c042e3f0                paravirt_patch_default
                0x00000000c042e520                paravirt_patch_ident_32
                0x00000000c042e530                paravirt_patch_ident_64
                0x00000000c042e540                native_patch
                0x00000000c042e650                pvclock_tsc_khz
                0x00000000c042e6d0                pvclock_clocksource_read
                0x00000000c042e830                pvclock_read_wallclock
                0x00000000c042e970                olpc_ec_cmd
                0x00000000c042ebb0                free_init_pages
                0x00000000c042ec80                free_initrd_mem
                0x00000000c042eca0                free_initmem
                0x00000000c042ecc0                devmem_is_allowed
                0x00000000c042ed20                mark_rodata_ro
                0x00000000c042eed0                set_kernel_text_ro
                0x00000000c042ef70                set_kernel_text_rw
                0x00000000c042f010                arch_add_memory
                0x00000000c042f050                zap_low_mappings
                0x00000000c042fbd0                vmalloc_sync_all
                0x00000000c042fdb0                page_is_ram
                0x00000000c0430260                xlate_dev_mem_ptr
                0x00000000c0430340                ioremap_prot
                0x00000000c0430370                ioremap_cache
                0x00000000c0430390                ioremap_nocache
                0x00000000c04303b0                ioremap_wc
                0x00000000c04303f0                iounmap
                0x00000000c04304c0                unxlate_dev_mem_ptr
                0x00000000c04304f0                ioremap_change_attr
                0x00000000c0430530                fixup_exception
                0x00000000c0430580                clflush_cache_range
                0x00000000c0430610                lookup_address
                0x00000000c0430a20                update_page_count
                0x00000000c0430a60                arch_report_meminfo
                0x00000000c0431990                set_memory_array_uc
                0x00000000c0431aa0                _set_memory_wb
                0x00000000c0431af0                set_memory_wb
                0x00000000c0431b50                set_pages_wb
                0x00000000c0431b70                set_memory_4k
                0x00000000c0431bc0                set_pages_array_wb
                0x00000000c0431cb0                set_pages_array_uc
                0x00000000c04323a0                set_memory_rw
                0x00000000c04323f0                set_pages_rw
                0x00000000c0432410                set_memory_nx
                0x00000000c0432460                set_pages_nx
                0x00000000c0432480                _set_memory_uc
                0x00000000c04324d0                set_memory_uc
                0x00000000c0432580                set_pages_uc
                0x00000000c04325a0                set_memory_array_wb
                0x00000000c0432640                _set_memory_wc
                0x00000000c04326e0                set_memory_wc
                0x00000000c04327a0                set_memory_np
                0x00000000c04327f0                set_memory_ro
                0x00000000c0432840                set_pages_ro
                0x00000000c0432860                set_memory_x
                0x00000000c04328b0                set_pages_x
                0x00000000c04328d0                arch_pick_mmap_layout
                0x00000000c04329e0                phys_mem_access_prot
                0x00000000c04329f0                pgprot_writecombine
                0x00000000c0432b30                pat_init
                0x00000000c0432e70                phys_mem_access_prot_allowed
                0x00000000c0432f10                kernel_map_sync_memtype
                0x00000000c0433000                free_memtype
                0x00000000c0433350                untrack_pfn_vma
                0x00000000c04333c0                io_free_memtype
                0x00000000c04333e0                reserve_memtype
                0x00000000c0433da0                track_pfn_vma_new
                0x00000000c0433e30                track_pfn_vma_copy
                0x00000000c0433ee0                io_reserve_memtype
                0x00000000c0434200                ptep_test_and_clear_young
                0x00000000c0434230                __native_set_fixmap
                0x00000000c0434260                native_set_fixmap
                0x00000000c04342c0                ptep_clear_flush_young
                0x00000000c0434310                ptep_set_access_flags
                0x00000000c0434390                pud_populate
                0x00000000c0434420                pgd_free
                0x00000000c0434530                pte_alloc_one_kernel
                0x00000000c0434550                pgd_alloc
                0x00000000c04347d0                ___pte_free_tlb
                0x00000000c0434870                pte_alloc_one
                0x00000000c04348c0                ___pmd_free_tlb
                0x00000000c0434950                __virt_addr_valid
                0x00000000c04349d0                __phys_addr
                0x00000000c04350b0                get_user_pages_fast
                0x00000000c0435220                __get_user_pages_fast
                0x00000000c0435320                flush_tlb_all
                0x00000000c0435340                flush_tlb_current_task
                0x00000000c04353a0                native_flush_tlb_others
                0x00000000c0435470                leave_mm
                0x00000000c0435530                flush_tlb_page
                0x00000000c04355c0                flush_tlb_mm
                0x00000000c0435650                smp_invalidate_interrupt
                0x00000000c0435760                set_pte_vaddr
                0x00000000c0435830                set_pmd_pfn
                0x00000000c0435920                iounmap_atomic
                0x00000000c0435990                kmap_atomic_prot_pfn
                0x00000000c0435a50                iomap_atomic_prot_pfn
                0x00000000c0435ab0                iomap_free
                0x00000000c0435ad0                iomap_create_wc
                0x00000000c0435b30                huge_pte_offset
                0x00000000c0435ba0                follow_huge_addr
                0x00000000c0435bb0                pmd_huge
                0x00000000c0435bd0                pud_huge
                0x00000000c0435bf0                follow_huge_pmd
                0x00000000c0435c60                follow_huge_pud
                0x00000000c0435de0                hugetlb_get_unmapped_area
                0x00000000c0436040                huge_pmd_unshare
                0x00000000c0436180                huge_pte_alloc
                0x00000000c0436ad0                kmap_atomic_to_page
                0x00000000c0436b70                kunmap_atomic
                0x00000000c0436bf0                kmap_atomic_pfn
                0x00000000c0436c20                kmap_atomic_prot
                0x00000000c0436d40                kmap_atomic
                0x00000000c0436d70                kunmap
                0x00000000c0436dd0                kmap
                0x00000000c0436e40                kmemcheck_error_save_bug
                0x00000000c0436f00                kmemcheck_error_save
                0x00000000c0437070                kmemcheck_error_recall
                0x00000000c0437250                kmemcheck_active
                0x00000000c0437270                kmemcheck_hide_addr
                0x00000000c04372d0                kmemcheck_show_addr
                0x00000000c0437370                kmemcheck_hide
                0x00000000c0437450                kmemcheck_trap
                0x00000000c0437480                kmemcheck_show
                0x00000000c0437500                kmemcheck_is_obj_initialized
                0x00000000c0437b60                kmemcheck_fault
                0x00000000c0437bd0                kmemcheck_page_is_tracked
                0x00000000c0437bf0                kmemcheck_hide_pages
                0x00000000c0437ca0                kmemcheck_show_pages
                0x00000000c0437da0                kmemcheck_opcode_decode
                0x00000000c0437e20                kmemcheck_opcode_get_primary
                0x00000000c0437e40                kmemcheck_pte_lookup
                0x00000000c0437e80                kmemcheck_selftest
                0x00000000c0437f00                kmemcheck_shadow_test
                0x00000000c0437f40                kmemcheck_shadow_set
                0x00000000c0437f60                kmemcheck_shadow_lookup
                0x00000000c04380b0                kmemcheck_mark_freed
                0x00000000c04380c0                kmemcheck_mark_initialized
                0x00000000c04380d0                kmemcheck_mark_initialized_pages
                0x00000000c0438100                kmemcheck_mark_uninitialized
                0x00000000c0438110                kmemcheck_mark_uninitialized_pages
                0x00000000c0438140                kmemcheck_mark_unallocated
                0x00000000c0438150                kmemcheck_mark_unallocated_pages
                0x00000000c0438180                enable_sep_cpu
                0x00000000c0438210                arch_vma_name
                0x00000000c0438240                get_gate_vma
                0x00000000c0438270                in_gate_area
                0x00000000c04382b0                in_gate_area_no_task
                0x00000000c04382c0                arch_setup_additional_pages
 *fill*         0x00000000c0438456        0xa 9090
 .text          0x00000000c0438460    0xaae3e kernel/built-in.o
                0x00000000c0438460                runqueue_is_locked
                0x00000000c0438490                task_rq_unlock_wait
                0x00000000c04384c0                wake_up_idle_cpu
                0x00000000c0438720                get_rr_interval_idle
                0x00000000c0438770                get_rr_interval_rt
                0x00000000c04388a0                proc_sched_set_task
                0x00000000c0438d20                task_curr
                0x00000000c0438d50                kick_process
                0x00000000c0439040                nr_iowait_cpu
                0x00000000c0439060                this_cpu_load
                0x00000000c0439080                get_avenrun
                0x00000000c04390b0                calc_global_load
                0x00000000c0439150                default_scale_freq_power
                0x00000000c0439170                default_scale_smt_power
                0x00000000c04392e0                get_nohz_load_balancer
                0x00000000c04392f0                account_steal_time
                0x00000000c0439320                account_idle_time
                0x00000000c0439390                account_steal_ticks
                0x00000000c04393c0                account_idle_ticks
                0x00000000c04393d0                task_gtime
                0x00000000c0439450                __wake_up_locked
                0x00000000c0439480                __wake_up_locked_key
                0x00000000c04394a0                task_prio
                0x00000000c04394b0                task_nice
                0x00000000c04394c0                idle_cpu
                0x00000000c04394f0                idle_task
                0x00000000c0439510                sys_sched_get_priority_max
                0x00000000c0439530                sys_sched_get_priority_min
                0x00000000c0439760                arch_update_cpu_topology
                0x00000000c0439770                sched_group_shares
                0x00000000c0439780                sched_group_rt_runtime
                0x00000000c04397f0                sched_group_rt_period
                0x00000000c0439a10                get_rr_interval_fair
                0x00000000c0439ae0                sched_rt_can_attach
                0x00000000c0439b60                scale_rt_power
                0x00000000c043f5a0                print_rt_rq
                0x00000000c0440340                completion_done
                0x00000000c0440380                try_wait_for_completion
                0x00000000c04403d0                complete_all
                0x00000000c0440430                complete
                0x00000000c0440490                __wake_up_sync_key
                0x00000000c04404f0                __wake_up_sync
                0x00000000c0440510                __wake_up
                0x00000000c0440680                wait_task_context_switch
                0x00000000c0440980                print_cfs_rq
                0x00000000c0442390                __might_sleep
                0x00000000c04424d0                in_sched_functions
                0x00000000c0442510                get_parent_ip
                0x00000000c0442850                sched_nr_latency_handler
                0x00000000c04428a0                sched_show_task
                0x00000000c04429e0                can_nice
                0x00000000c0442a20                proc_sched_show_task
                0x00000000c0443f60                task_oncpu_function_call
                0x00000000c0443fc0                wait_task_inactive
                0x00000000c04440d0                kthread_bind
                0x00000000c0444150                set_task_cpu
                0x00000000c0444300                sched_fork
                0x00000000c0444410                update_rq_clock
                0x00000000c0444490                sched_move_task
                0x00000000c04446c0                set_user_nice
                0x00000000c04447f0                normalize_rt_tasks
                0x00000000c04449b0                sys_nice
                0x00000000c0444a60                task_sched_runtime
                0x00000000c0444af0                task_delta_exec
                0x00000000c0444b90                thread_group_sched_runtime
                0x00000000c0444c30                schedule_tail
                0x00000000c0444cc0                thread_group_times
                0x00000000c0444d90                task_utime
                0x00000000c0444e50                task_stime
                0x00000000c04453d0                sched_setscheduler_nocheck
                0x00000000c04453f0                sched_setscheduler
                0x00000000c0445410                sched_getaffinity
                0x00000000c04454d0                sys_sched_getaffinity
                0x00000000c0445d90                sched_rt_handler
                0x00000000c0445fe0                account_system_time
                0x00000000c0446180                account_user_time
                0x00000000c0446240                account_process_tick
                0x00000000c04462c0                sys_sched_rr_get_interval
                0x00000000c04463d0                sys_sched_getscheduler
                0x00000000c0446510                sys_sched_getparam
                0x00000000c04470a0                rt_mutex_setprio
                0x00000000c04489c0                default_wake_function
                0x00000000c04489d0                wake_up_state
                0x00000000c04489e0                wake_up_process
                0x00000000c0448a50                sched_idle_next
                0x00000000c04495e0                sys_sched_setparam
                0x00000000c0449600                sys_sched_setscheduler
                0x00000000c0449880                idle_task_exit
                0x00000000c0449cd0                scheduler_tick
                0x00000000c0449f30                mutex_spin_on_owner
                0x00000000c044a460                wake_up_new_task
                0x00000000c044a730                move_task_off_dead_cpu
                0x00000000c044a8a0                sched_destroy_group
                0x00000000c044bbc0                select_nohz_load_balancer
                0x00000000c044dd20                __cond_resched_lock
                0x00000000c044ddc0                set_cpus_allowed_ptr
                0x00000000c044df50                sched_setaffinity
                0x00000000c044e080                sys_sched_setaffinity
                0x00000000c044e0d0                sched_exec
                0x00000000c044e200                sys_sched_yield
                0x00000000c044ec00                nr_context_switches
                0x00000000c044ede0                sched_group_set_rt_period
                0x00000000c044ee50                sched_group_set_rt_runtime
                0x00000000c044f190                nr_running
                0x00000000c044fa60                partition_sched_domains
                0x00000000c0450f80                show_state_filter
                0x00000000c0451030                nr_uninterruptible
                0x00000000c04510c0                nr_iowait
                0x00000000c0451150                rcu_expedited_torture_stats
                0x00000000c04512e0                sched_group_set_shares
                0x00000000c0451590                synchronize_sched_expedited
                0x00000000c04517e0                sched_create_group
                0x00000000c0451e30                mm_init_owner
                0x00000000c0452040                unshare_files
                0x00000000c04520d0                get_task_mm
                0x00000000c0452130                __cleanup_sighand
                0x00000000c0452250                __cleanup_signal
                0x00000000c04522c0                sys_set_tid_address
                0x00000000c0452400                mm_alloc
                0x00000000c0452450                mm_release
                0x00000000c0452540                __mmdrop
                0x00000000c0452570                mmput
                0x00000000c0452650                sys_unshare
                0x00000000c0452910                dup_mm
                0x00000000c0452cf0                free_task
                0x00000000c0453e00                do_fork
                0x00000000c0454190                __put_task_struct
                0x00000000c0454220                nr_processes
                0x00000000c0454440                unregister_exec_domain
                0x00000000c04544b0                register_exec_domain
                0x00000000c0454530                __set_personality
                0x00000000c04547b0                sys_personality
                0x00000000c0454820                get_taint
                0x00000000c0454830                oops_may_print
                0x00000000c04549e0                oops_exit
                0x00000000c04549f0                oops_enter
                0x00000000c0454a10                add_taint
                0x00000000c0454af0                warn_slowpath_null
                0x00000000c0454b10                warn_slowpath_fmt
                0x00000000c0454b40                test_taint
                0x00000000c0454b50                print_tainted
                0x00000000c0454c00                __stack_chk_fail
                0x00000000c0454ca0                is_console_locked
                0x00000000c0454cb0                printk_needs_cpu
                0x00000000c0454cd0                wake_up_klogd
                0x00000000c0454e00                update_console_cmdline
                0x00000000c0454e90                printk_timed_ratelimit
                0x00000000c0454ee0                printk_ratelimit
                0x00000000c0454ef0                try_acquire_console_sem
                0x00000000c0454f50                printk_tick
                0x00000000c0454fa0                acquire_console_sem
                0x00000000c0454fe0                do_syslog
                0x00000000c0455430                sys_syslog
                0x00000000c0455450                log_buf_kexec_setup
                0x00000000c0455570                add_preferred_console
                0x00000000c04556a0                release_console_sem
                0x00000000c04558c0                unregister_console
                0x00000000c0455950                console_start
                0x00000000c0455970                console_stop
                0x00000000c0455990                console_device
                0x00000000c04559e0                console_unblank
                0x00000000c0455a50                resume_console
                0x00000000c0455a80                vprintk
                0x00000000c0455fb0                suspend_console
                0x00000000c0455ff0                register_console
                0x00000000c0456350                init_cpu_present
                0x00000000c0456360                init_cpu_possible
                0x00000000c0456370                init_cpu_online
                0x00000000c04563c0                cpu_maps_update_begin
                0x00000000c04563e0                cpu_maps_update_done
                0x00000000c0456430                put_online_cpus
                0x00000000c0456490                get_online_cpus
                0x00000000c0456540                set_cpu_active
                0x00000000c04565c0                disable_nonboot_cpus
                0x00000000c04566d0                set_cpu_online
                0x00000000c0456750                set_cpu_present
                0x00000000c04567d0                set_cpu_possible
                0x00000000c0456d50                is_current_pgrp_orphaned
                0x00000000c0456ea0                __wake_up_parent
                0x00000000c0456ed0                get_files_struct
                0x00000000c0457020                put_files_struct
                0x00000000c04570e0                exit_files
                0x00000000c0457140                reset_files_struct
                0x00000000c04571a0                disallow_signal
                0x00000000c0457210                allow_signal
                0x00000000c0457290                __set_special_pids
                0x00000000c04572f0                session_of_pgrp
                0x00000000c0457330                release_task
                0x00000000c0458690                sys_wait4
                0x00000000c0458750                sys_waitpid
                0x00000000c0458780                sys_waitid
                0x00000000c04588d0                mm_update_next_owner
                0x00000000c0458bd0                daemonize
                0x00000000c0458d70                do_exit
                0x00000000c04594c0                do_group_exit
                0x00000000c0459560                sys_exit_group
                0x00000000c0459580                sys_exit
                0x00000000c04595a0                complete_and_exit
                0x00000000c0459a50                do_setitimer
                0x00000000c0459c30                sys_setitimer
                0x00000000c0459cc0                alarm_setitimer
                0x00000000c0459d20                it_real_fn
                0x00000000c0459e40                do_getitimer
                0x00000000c0459f20                sys_getitimer
                0x00000000c0459f90                jiffies_to_msecs
                0x00000000c0459fa0                jiffies_to_usecs
                0x00000000c0459fb0                timespec_trunc
                0x00000000c0459ff0                mktime
                0x00000000c045a080                set_normalized_timespec
                0x00000000c045a0d0                msecs_to_jiffies
                0x00000000c045a0e0                usecs_to_jiffies
                0x00000000c045a110                timespec_to_jiffies
                0x00000000c045a180                timeval_to_jiffies
                0x00000000c045a1f0                clock_t_to_jiffies
                0x00000000c045a210                nsec_to_clock_t
                0x00000000c045a270                timespec_add_safe
                0x00000000c045a7e0                get_jiffies_64
                0x00000000c045a820                ns_to_timespec
                0x00000000c045a870                ns_to_timeval
                0x00000000c045a8a0                current_fs_time
                0x00000000c045a8c0                sys_adjtimex
                0x00000000c045a940                do_sys_settimeofday
                0x00000000c045aa60                sys_settimeofday
                0x00000000c045aaf0                sys_gettimeofday
                0x00000000c045ab70                sys_stime
                0x00000000c045abd0                sys_time
                0x00000000c045ac20                jiffies_to_timespec
                0x00000000c045ac80                jiffies_to_timeval
                0x00000000c045acf0                jiffies_to_clock_t
                0x00000000c045ad40                jiffies_64_to_clock_t
                0x00000000c045adb0                open_softirq
                0x00000000c045adc0                tasklet_init
                0x00000000c045adf0                __tasklet_hi_schedule_first
                0x00000000c045bfa0                wakeup_softirqd
                0x00000000c045bfd0                raise_softirq_irqoff
                0x00000000c045c010                on_each_cpu
                0x00000000c045c060                tasklet_hrtimer_init
                0x00000000c045c100                tasklet_kill
                0x00000000c045c160                irq_exit
                0x00000000c045c1e0                irq_enter
                0x00000000c045c2f0                local_bh_disable
                0x00000000c045c300                local_bh_enable
                0x00000000c045c3d0                _local_bh_enable
                0x00000000c045c480                __do_softirq
                0x00000000c045c790                raise_softirq
                0x00000000c045c810                __tasklet_hi_schedule
                0x00000000c045c8f0                __tasklet_schedule
                0x00000000c045caa0                tasklet_kill_immediate
                0x00000000c045cbb0                __send_remote_softirq
                0x00000000c045cc50                send_remote_softirq
                0x00000000c045cd50                local_bh_enable_ip
                0x00000000c045d070                resource_alignment
                0x00000000c045d2c0                iomem_is_exclusive
                0x00000000c045d390                iomem_map_sanity_check
                0x00000000c045d500                adjust_resource
                0x00000000c045d660                insert_resource_expand_to_fit
                0x00000000c045d700                insert_resource
                0x00000000c045d750                allocate_resource
                0x00000000c045da50                release_resource
                0x00000000c045dac0                request_resource
                0x00000000c045dc30                __release_region
                0x00000000c045dd50                __devm_release_region
                0x00000000c045de10                walk_system_ram_range
                0x00000000c045dfc0                __request_region
                0x00000000c045e1b0                __devm_request_region
                0x00000000c045e270                __check_region
                0x00000000c045e310                setup_sysctl_set
                0x00000000c045e580                sysctl_jiffies
                0x00000000c045e660                sysctl_intvec
                0x00000000c045eb00                proc_dointvec_ms_jiffies
                0x00000000c045eb50                proc_dointvec_userhz_jiffies
                0x00000000c045eba0                proc_dointvec_jiffies
                0x00000000c045ebf0                proc_dointvec_minmax
                0x00000000c045ec40                proc_dointvec
                0x00000000c045ec90                sysctl_string
                0x00000000c045edb0                sysctl_data
                0x00000000c045f1a0                proc_doulongvec_ms_jiffies_minmax
                0x00000000c045f1f0                proc_doulongvec_minmax
                0x00000000c045f240                proc_dostring
                0x00000000c045f450                sysctl_ms_jiffies
                0x00000000c045f630                sysctl_is_seen
                0x00000000c045f690                sysctl_head_get
                0x00000000c045f6c0                sysctl_head_grab
                0x00000000c045f700                sysctl_head_put
                0x00000000c045f740                unregister_sysctl_table
                0x00000000c045f830                register_sysctl_root
                0x00000000c045f860                sysctl_perm
                0x00000000c045f900                __sysctl_head_next
                0x00000000c045f9e0                sysctl_head_next
                0x00000000c045fa00                sysctl_head_finish
                0x00000000c045fa40                do_sysctl
                0x00000000c045fbd0                sys_sysctl
                0x00000000c045fd00                __register_sysctl_paths
                0x00000000c045ff80                register_sysctl_paths
                0x00000000c045ffb0                register_sysctl_table
                0x00000000c04601d0                capable
                0x00000000c0460320                sys_capset
                0x00000000c0460490                sys_capget
                0x00000000c04606b0                generic_ptrace_pokedata
                0x00000000c04606e0                generic_ptrace_peekdata
                0x00000000c0460740                ptrace_writedata
                0x00000000c04608e0                ptrace_readdata
                0x00000000c04609d0                __ptrace_link
                0x00000000c0460a20                ptrace_traceme
                0x00000000c0460aa0                __ptrace_may_access
                0x00000000c0460bb0                ptrace_attach
                0x00000000c0460cd0                ptrace_may_access
                0x00000000c0460d20                ptrace_check_attach
                0x00000000c0460de0                sys_ptrace
                0x00000000c0460f00                __ptrace_unlink
                0x00000000c04610a0                exit_ptrace
                0x00000000c04611a0                ptrace_detach
                0x00000000c0461260                ptrace_request
                0x00000000c04615d0                __round_jiffies
                0x00000000c04615e0                __round_jiffies_relative
                0x00000000c0461600                round_jiffies
                0x00000000c0461620                round_jiffies_relative
                0x00000000c0461640                __round_jiffies_up
                0x00000000c0461650                __round_jiffies_up_relative
                0x00000000c0461670                round_jiffies_up
                0x00000000c0461690                round_jiffies_up_relative
                0x00000000c04616b0                __timer_stats_timer_set_start_info
                0x00000000c0461710                sys_getuid
                0x00000000c0461730                sys_geteuid
                0x00000000c0461750                sys_getgid
                0x00000000c0461770                sys_getegid
                0x00000000c0465610                destroy_timer_on_stack
                0x00000000c04657e0                do_sysinfo
                0x00000000c04658b0                sys_sysinfo
                0x00000000c0465910                sys_gettid
                0x00000000c0465980                del_timer
                0x00000000c0465a50                sys_getppid
                0x00000000c0465ac0                sys_getpid
                0x00000000c0465ae0                sys_alarm
                0x00000000c0465af0                do_timer
                0x00000000c0465b10                run_local_timers
                0x00000000c0465b30                update_process_times
                0x00000000c0465b90                get_next_timer_interrupt
                0x00000000c0465de0                init_timer_key
                0x00000000c0465e80                init_timer_deferrable_key
                0x00000000c0465ea0                init_timer_on_stack_key
                0x00000000c0465f20                add_timer_on
                0x00000000c0466400                try_to_del_timer_sync
                0x00000000c04664b0                del_timer_sync
                0x00000000c04665b0                mod_timer_pinned
                0x00000000c04667b0                mod_timer_pending
                0x00000000c0466990                mod_timer
                0x00000000c0466bb0                add_timer
                0x00000000c0466bd0                msleep
                0x00000000c0466bf0                msleep_interruptible
                0x00000000c0466c30                uids_sysfs_init
                0x00000000c0466c40                task_can_switch_user
                0x00000000c0466c50                alloc_uid
                0x00000000c0466df0                free_uid
                0x00000000c0466ec0                find_user
                0x00000000c0466f50                recalc_sigpending
                0x00000000c0466fe0                next_signal
                0x00000000c0467020                flush_signal_handlers
                0x00000000c0467070                unhandled_signal
                0x00000000c04670b0                sys_restart_syscall
                0x00000000c04670d0                do_no_restart_syscall
                0x00000000c04670e0                sys_sgetmask
                0x00000000c0468210                sys_ssetmask
                0x00000000c0468280                sigprocmask
                0x00000000c0468370                sys_pause
                0x00000000c0468390                sys_rt_sigsuspend
                0x00000000c0468450                do_sigpending
                0x00000000c0468500                sys_sigpending
                0x00000000c0468520                sys_rt_sigpending
                0x00000000c0468530                sys_sigprocmask
                0x00000000c0468650                sys_rt_sigprocmask
                0x00000000c0468740                do_sigaltstack
                0x00000000c04689a0                do_sigaction
                0x00000000c0468b30                sys_signal
                0x00000000c0468b70                sys_rt_sigaction
                0x00000000c0468e90                flush_sigqueue
                0x00000000c0468ed0                __flush_signals
                0x00000000c0469060                copy_siginfo_to_user
                0x00000000c0469270                sigqueue_free
                0x00000000c04692d0                unblock_all_signals
                0x00000000c0469330                block_all_signals
                0x00000000c04693a0                flush_itimer_signals
                0x00000000c0469400                flush_signals
                0x00000000c0469450                ignore_signals
                0x00000000c04696b0                sigqueue_alloc
                0x00000000c04696d0                signal_wake_up
                0x00000000c0469710                zap_other_threads
                0x00000000c0469780                recalc_sigpending_and_wake
                0x00000000c04697f0                dequeue_signal
                0x00000000c0469980                sys_rt_sigtimedwait
                0x00000000c0469bb0                lock_task_sighand
                0x00000000c046a0f0                do_send_sig_info
                0x00000000c046a240                do_rt_tgsigqueueinfo
                0x00000000c046a290                sys_rt_tgsigqueueinfo
                0x00000000c046a370                sys_tkill
                0x00000000c046a390                sys_tgkill
                0x00000000c046a3c0                send_sig_info
                0x00000000c046a3f0                send_sig
                0x00000000c046a410                group_send_sig_info
                0x00000000c046a470                kill_pid_info
                0x00000000c046a500                kill_pid
                0x00000000c046a520                kill_proc_info
                0x00000000c046a5a0                sys_rt_sigqueueinfo
                0x00000000c046a600                __kill_pgrp_info
                0x00000000c046a670                kill_pgrp
                0x00000000c046a6c0                sys_kill
                0x00000000c046a870                __group_send_sig_info
                0x00000000c046ab70                ptrace_notify
                0x00000000c046ad90                exit_signals
                0x00000000c046ae90                do_notify_parent
                0x00000000c046b0a0                get_signal_to_deliver
                0x00000000c046b4a0                force_sig_info
                0x00000000c046b560                force_sig
                0x00000000c046b580                force_sigsegv
                0x00000000c046b5e0                force_sig_specific
                0x00000000c046b600                kill_pid_info_as_uid
                0x00000000c046b730                send_sigqueue
                0x00000000c046b840                sys_umask
                0x00000000c046d670                sys_getcpu
                0x00000000c046d6e0                sys_getresgid
                0x00000000c046d750                sys_getresuid
                0x00000000c046d7c0                sys_prctl
                0x00000000c046da40                getrusage
                0x00000000c046dcf0                sys_getrusage
                0x00000000c046dd30                sys_setrlimit
                0x00000000c046de90                sys_old_getrlimit
                0x00000000c046df50                sys_getrlimit
                0x00000000c046dfd0                sys_setdomainname
                0x00000000c046e0b0                sys_sethostname
                0x00000000c046e190                sys_gethostname
                0x00000000c046e200                sys_newuname
                0x00000000c046e250                sys_setsid
                0x00000000c046e310                sys_setpgid
                0x00000000c046e4e0                do_sys_times
                0x00000000c046e580                sys_times
                0x00000000c046e5d0                sys_setfsgid
                0x00000000c046e6a0                sys_setresgid
                0x00000000c046e7c0                sys_setgid
                0x00000000c046e880                sys_setregid
                0x00000000c046e980                sys_setfsuid
                0x00000000c046eb10                sys_setresuid
                0x00000000c046ec50                sys_setuid
                0x00000000c046ed30                sys_setreuid
                0x00000000c046ee60                ctrl_alt_del
                0x00000000c046eed0                kernel_power_off
                0x00000000c046ef10                orderly_poweroff
                0x00000000c046efd0                kernel_restart_prepare
                0x00000000c046f000                kernel_halt
                0x00000000c046f030                kernel_restart
                0x00000000c046f090                sys_reboot
                0x00000000c046f270                emergency_restart
                0x00000000c046f280                sys_getpriority
                0x00000000c046f530                sys_setpriority
                0x00000000c046f710                sys_getpgid
                0x00000000c046f7c0                sys_getpgrp
                0x00000000c046f7e0                sys_getsid
                0x00000000c046f890                usermodehelper_enable
                0x00000000c046f8a0                call_usermodehelper_setcleanup
                0x00000000c046f8b0                call_usermodehelper_stdinpipe
                0x00000000c046f910                call_usermodehelper_setkeys
                0x00000000c046faf0                usermodehelper_disable
                0x00000000c046fbb0                call_usermodehelper_freeinfo
                0x00000000c046fca0                call_usermodehelper_setup
                0x00000000c046fdb0                call_usermodehelper_exec
                0x00000000c046fea0                call_usermodehelper_pipe
                0x00000000c046ff00                __request_module
                0x00000000c0470070                keventd_up
                0x00000000c0470090                current_is_keventd
                0x00000000c0471850                work_on_cpu
                0x00000000c0471c90                queue_work_on
                0x00000000c0471cf0                schedule_work_on
                0x00000000c0471d10                queue_work
                0x00000000c0471d30                schedule_work
                0x00000000c0471d50                execute_in_process_context
                0x00000000c0471dd0                flush_work
                0x00000000c0471ec0                flush_delayed_work
                0x00000000c0471f10                queue_delayed_work_on
                0x00000000c0471ff0                schedule_delayed_work_on
                0x00000000c0472010                queue_delayed_work
                0x00000000c0472040                schedule_delayed_work
                0x00000000c0472060                destroy_workqueue
                0x00000000c0472110                __create_workqueue_key
                0x00000000c0472550                cancel_delayed_work_sync
                0x00000000c0472560                cancel_work_sync
                0x00000000c0472570                schedule_on_each_cpu
                0x00000000c0472720                flush_workqueue
                0x00000000c0472800                flush_scheduled_work
                0x00000000c0472810                find_pid_ns
                0x00000000c0472870                find_vpid
                0x00000000c0472890                attach_pid
                0x00000000c04728f0                transfer_pid
                0x00000000c0472970                pid_task
                0x00000000c04729a0                find_task_by_pid_ns
                0x00000000c04729c0                find_task_by_vpid
                0x00000000c04729e0                pid_nr_ns
                0x00000000c0472a10                pid_vnr
                0x00000000c0472a50                task_tgid_nr_ns
                0x00000000c0472a90                task_active_pid_ns
                0x00000000c0472ab0                get_task_pid
                0x00000000c0472b30                free_pid
                0x00000000c0472bd0                change_pid
                0x00000000c0472c80                detach_pid
                0x00000000c0472ce0                put_pid
                0x00000000c0472d40                next_pidmap
                0x00000000c0472db0                find_ge_pid
                0x00000000c0472e70                alloc_pid
                0x00000000c04731c0                is_container_init
                0x00000000c0473230                __task_pid_nr_ns
                0x00000000c0473300                find_get_pid
                0x00000000c0473370                get_pid_task
                0x00000000c0473400                rcu_scheduler_starting
                0x00000000c0473450                synchronize_rcu_bh
                0x00000000c04734a0                synchronize_sched
                0x00000000c04734f0                wakeme_after_rcu
                0x00000000c0473500                core_kernel_text
                0x00000000c0473540                func_ptr_is_kernel_text
                0x00000000c0473580                kernel_text_address
                0x00000000c04735c0                __kernel_text_address
                0x00000000c0473630                search_exception_tables
                0x00000000c0473660                param_set_bool
                0x00000000c04736d0                param_set_invbool
                0x00000000c0473710                param_array_get
                0x00000000c04737c0                destroy_params
                0x00000000c0473870                parse_args
                0x00000000c0473b90                param_get_string
                0x00000000c0473d50                module_param_sysfs_remove
                0x00000000c0473d80                module_param_sysfs_setup
                0x00000000c0473e80                param_set_copystring
                0x00000000c0473f00                param_get_invbool
                0x00000000c0473f30                param_get_bool
                0x00000000c0473f80                param_get_charp
                0x00000000c0473fb0                param_get_ulong
                0x00000000c0473fe0                param_get_long
                0x00000000c0474010                param_get_uint
                0x00000000c0474040                param_get_int
                0x00000000c0474070                param_get_ushort
                0x00000000c04740a0                param_get_short
                0x00000000c04740d0                param_get_byte
                0x00000000c0474100                param_set_charp
                0x00000000c0474190                param_set_ulong
                0x00000000c04741d0                param_set_uint
                0x00000000c0474210                param_set_ushort
                0x00000000c0474250                param_set_byte
                0x00000000c0474290                param_set_long
                0x00000000c04742d0                param_set_int
                0x00000000c0474310                param_set_short
                0x00000000c0474350                param_array_set
                0x00000000c0474470                do_posix_clock_nosettime
                0x00000000c0474480                do_posix_clock_nonanosleep
                0x00000000c0474df0                clock_nanosleep_restart
                0x00000000c0474e30                sys_clock_nanosleep
                0x00000000c0474f00                sys_clock_getres
                0x00000000c0474fa0                sys_clock_gettime
                0x00000000c0475040                sys_clock_settime
                0x00000000c0475140                exit_itimers
                0x00000000c04752b0                sys_timer_getoverrun
                0x00000000c04752f0                posix_get_coarse_res
                0x00000000c0475450                sys_timer_gettime
                0x00000000c04754f0                sys_timer_create
                0x00000000c0475830                register_posix_clock
                0x00000000c04758b0                posix_timer_event
                0x00000000c0475a20                do_schedule_next_timer
                0x00000000c0475b10                sys_timer_delete
                0x00000000c0475c00                sys_timer_settime
                0x00000000c0475e50                kthread_should_stop
                0x00000000c0475e70                kthreadd
                0x00000000c0475fd0                kthread_stop
                0x00000000c0476070                kthread_create
                0x00000000c0476120                bit_waitqueue
                0x00000000c04761a0                __wake_up_bit
                0x00000000c04761d0                wake_up_bit
                0x00000000c0476200                autoremove_wake_function
                0x00000000c0476240                wake_bit_function
                0x00000000c0476290                abort_exclusive_wait
                0x00000000c0476310                finish_wait
                0x00000000c0476380                prepare_to_wait_exclusive
                0x00000000c04763e0                add_wait_queue_exclusive
                0x00000000c0476430                prepare_to_wait
                0x00000000c0476490                add_wait_queue
                0x00000000c04764e0                remove_wait_queue
                0x00000000c0476520                __init_waitqueue_head
                0x00000000c0476570                __kfifo_put
                0x00000000c04765f0                __kfifo_get
                0x00000000c0476670                kfifo_free
                0x00000000c0476690                kfifo_init
                0x00000000c0476770                kfifo_alloc
                0x00000000c0476810                compat_sys_mq_open
                0x00000000c0476810                sys_ni_syscall
                0x00000000c0476810                compat_sys_futex
                0x00000000c0476810                compat_sys_recvmsg
                0x00000000c0476810                sys_mbind
                0x00000000c0476810                sys32_sysctl
                0x00000000c0476810                compat_sys_mq_notify
                0x00000000c0476810                sys_migrate_pages
                0x00000000c0476810                compat_sys_mq_timedreceive
                0x00000000c0476810                compat_sys_epoll_pwait
                0x00000000c0476810                compat_sys_set_robust_list
                0x00000000c0476810                compat_sys_setsockopt
                0x00000000c0476810                sys_pciconfig_iobase
                0x00000000c0476810                sys_pciconfig_read
                0x00000000c0476810                compat_sys_ipc
                0x00000000c0476810                sys32_quotactl
                0x00000000c0476810                ppc_rtas
                0x00000000c0476810                compat_sys_get_robust_list
                0x00000000c0476810                sys_spu_run
                0x00000000c0476810                compat_sys_signalfd
                0x00000000c0476810                sys_set_mempolicy
                0x00000000c0476810                compat_sys_move_pages
                0x00000000c0476810                compat_sys_socketcall
                0x00000000c0476810                compat_sys_sysctl
                0x00000000c0476810                compat_sys_set_mempolicy
                0x00000000c0476810                compat_sys_timerfd_gettime
                0x00000000c0476810                compat_sys_mq_timedsend
                0x00000000c0476810                compat_sys_mbind
                0x00000000c0476810                sys_get_mempolicy
                0x00000000c0476810                sys32_ipc
                0x00000000c0476810                sys_move_pages
                0x00000000c0476810                compat_sys_keyctl
                0x00000000c0476810                compat_sys_migrate_pages
                0x00000000c0476810                compat_sys_mq_getsetattr
                0x00000000c0476810                compat_sys_kexec_load
                0x00000000c0476810                compat_sys_signalfd4
                0x00000000c0476810                compat_sys_recvfrom
                0x00000000c0476810                compat_sys_timerfd_settime
                0x00000000c0476810                compat_sys_getsockopt
                0x00000000c0476810                sys_pciconfig_write
                0x00000000c0476810                sys_subpage_prot
                0x00000000c0476810                compat_sys_sendmsg
                0x00000000c0476810                compat_sys_get_mempolicy
                0x00000000c0476810                sys_spu_create
                0x00000000c0476ab0                posix_cpu_timers_exit
                0x00000000c0476af0                posix_cpu_timers_exit_group
                0x00000000c0477090                posix_cpu_timer_del
                0x00000000c0477150                posix_cpu_timer_create
                0x00000000c0477330                posix_cpu_clock_set
                0x00000000c0477350                posix_cpu_clock_getres
                0x00000000c04773d0                thread_group_cputime
                0x00000000c0477550                thread_group_cputimer
                0x00000000c04776e0                set_process_cpu_timer
                0x00000000c04777d0                update_rlimit_cpu
                0x00000000c0477840                posix_cpu_timer_schedule
                0x00000000c04779e0                posix_cpu_timer_get
                0x00000000c0477c60                posix_cpu_timer_set
                0x00000000c0478250                posix_cpu_nsleep_restart
                0x00000000c0478310                posix_cpu_nsleep
                0x00000000c04783f0                posix_cpu_clock_get
                0x00000000c0478570                run_posix_cpu_timers
                0x00000000c0478e70                atomic_dec_and_mutex_lock
                0x00000000c0478ef0                __mutex_init
                0x00000000c0478f50                ktime_divns
                0x00000000c0479000                ktime_add_safe
                0x00000000c0479070                __timer_stats_hrtimer_set_start_info
                0x00000000c04790d0                hrtimer_init_sleeper
                0x00000000c04791e0                hrtimer_forward
                0x00000000c04793f0                destroy_hrtimer_on_stack
                0x00000000c0479400                hrtimer_init
                0x00000000c0479740                hrtimer_get_res
                0x00000000c0479810                hrtimer_get_next_event
                0x00000000c04799b0                hrtimer_get_remaining
                0x00000000c0479a00                hrtimer_try_to_cancel
                0x00000000c0479ac0                hrtimer_cancel
                0x00000000c0479b40                clock_was_set
                0x00000000c0479b60                hrtimer_init_on_stack
                0x00000000c0479ca0                hrtimer_run_pending
                0x00000000c0479dd0                hres_timers_resume
                0x00000000c0479fc0                hrtimer_run_queues
                0x00000000c047a110                hrtimer_interrupt
                0x00000000c047a410                hrtimer_peek_ahead_timers
                0x00000000c047a470                __hrtimer_start_range_ns
                0x00000000c047a8a0                hrtimer_start
                0x00000000c047a8d0                hrtimer_start_range_ns
                0x00000000c047a900                hrtimer_nanosleep
                0x00000000c047aa30                sys_nanosleep
                0x00000000c047aa90                downgrade_write
                0x00000000c047aab0                up_read_non_owner
                0x00000000c047aad0                down_read_non_owner
                0x00000000c047ab00                down_write_trylock
                0x00000000c047ab50                down_read_trylock
                0x00000000c047abc0                down_write_nested
                0x00000000c047ac60                down_read_nested
                0x00000000c047ad00                up_write
                0x00000000c047ad30                up_read
                0x00000000c047aeb0                free_nsproxy
                0x00000000c047af20                switch_task_namespaces
                0x00000000c047af80                exit_task_namespaces
                0x00000000c047af90                unshare_nsproxy_namespaces
                0x00000000c047b040                copy_namespaces
                0x00000000c047b0f0                srcu_read_lock
                0x00000000c047b120                srcu_read_unlock
                0x00000000c047b140                srcu_batches_completed
                0x00000000c047b1e0                synchronize_srcu
                0x00000000c047b250                cleanup_srcu_struct
                0x00000000c047b2b0                init_srcu_struct
                0x00000000c047b2f0                down_trylock
                0x00000000c047b330                up
                0x00000000c047b370                down_interruptible
                0x00000000c047b3c0                down
                0x00000000c047b400                down_timeout
                0x00000000c047b460                down_killable
                0x00000000c047b4b0                raw_notifier_chain_register
                0x00000000c047b4f0                raw_notifier_chain_unregister
                0x00000000c047b520                srcu_init_notifier_head
                0x00000000c047b560                __srcu_notifier_call_chain
                0x00000000c047b5c0                srcu_notifier_call_chain
                0x00000000c047b5e0                __raw_notifier_call_chain
                0x00000000c047b600                raw_notifier_call_chain
                0x00000000c047b620                srcu_notifier_chain_register
                0x00000000c047b6a0                srcu_notifier_chain_unregister
                0x00000000c047b730                __blocking_notifier_call_chain
                0x00000000c047b790                blocking_notifier_call_chain
                0x00000000c047b7b0                blocking_notifier_chain_unregister
                0x00000000c047b830                unregister_reboot_notifier
                0x00000000c047b850                blocking_notifier_chain_cond_register
                0x00000000c047b8a0                blocking_notifier_chain_register
                0x00000000c047b920                register_reboot_notifier
                0x00000000c047b940                notify_die
                0x00000000c047b970                atomic_notifier_chain_register
                0x00000000c047b9c0                register_die_notifier
                0x00000000c047b9e0                atomic_notifier_chain_unregister
                0x00000000c047ba40                unregister_die_notifier
                0x00000000c047bc90                pm_qos_requirement
                0x00000000c047bca0                pm_qos_remove_notifier
                0x00000000c047bcc0                pm_qos_add_notifier
                0x00000000c047bdb0                pm_qos_remove_requirement
                0x00000000c047bea0                pm_qos_update_requirement
                0x00000000c047bfb0                pm_qos_add_requirement
                0x00000000c047c300                sched_clock_cpu
                0x00000000c047c490                cpu_clock
                0x00000000c047c500                sched_clock_idle_sleep_event
                0x00000000c047c510                sched_clock_tick
                0x00000000c047c5b0                sched_clock_idle_wakeup_event
                0x00000000c047c5d0                sched_clock_init
                0x00000000c047c7b0                __invalid_creds
                0x00000000c047c800                creds_are_invalid
                0x00000000c047c840                __validate_process_creds
                0x00000000c047c910                validate_creds_for_do_exit
                0x00000000c047c930                set_create_files_as
                0x00000000c047c950                set_security_override
                0x00000000c047c960                set_security_override_from_ctx
                0x00000000c047c9d0                __put_cred
                0x00000000c047cb40                override_creds
                0x00000000c047cbe0                abort_creds
                0x00000000c047cc40                prepare_creds
                0x00000000c047cd10                prepare_exec_creds
                0x00000000c047ce40                cred_alloc_blank
                0x00000000c047cf30                commit_creds
                0x00000000c047d1f0                revert_creds
                0x00000000c047d2a0                prepare_kernel_cred
                0x00000000c047d480                prepare_usermodehelper_creds
                0x00000000c047d5f0                exit_creds
                0x00000000c047d760                copy_creds
                0x00000000c047dd90                async_synchronize_cookie_domain
                0x00000000c047dec0                async_synchronize_cookie
                0x00000000c047ded0                async_synchronize_full
                0x00000000c047df10                async_synchronize_full_domain
                0x00000000c047e0d0                async_schedule_domain
                0x00000000c047e0e0                async_schedule
                0x00000000c047e0f0                groups_search
                0x00000000c047e160                in_group_p
                0x00000000c047e190                in_egroup_p
                0x00000000c047e3c0                sys_getgroups
                0x00000000c047e460                groups_free
                0x00000000c047e4b0                set_groups
                0x00000000c047e610                set_current_groups
                0x00000000c047e670                groups_alloc
                0x00000000c047e740                sys_setgroups
                0x00000000c047e820                thaw_process
                0x00000000c047e890                cancel_freezing
                0x00000000c047e920                freeze_task
                0x00000000c047e9d0                refrigerator
                0x00000000c047eb30                register_timer_hook
                0x00000000c047ebe0                create_prof_cpu_mask
                0x00000000c047eca0                profile_hits
                0x00000000c047ee10                unregister_timer_hook
                0x00000000c047ee40                profile_event_unregister
                0x00000000c047ee70                profile_event_register
                0x00000000c047eea0                task_handoff_unregister
                0x00000000c047eec0                task_handoff_register
                0x00000000c047eee0                profile_munmap
                0x00000000c047ef00                profile_task_exit
                0x00000000c047ef20                profile_handoff_task
                0x00000000c047ef40                profile_setup
                0x00000000c047f440                profile_tick
                0x00000000c047f730                sysctl_check_table
                0x00000000c047fdb0                print_stack_trace
                0x00000000c047ff60                update_xtime_cache
                0x00000000c047ffd0                timekeeping_leap_insert
                0x00000000c0480190                timekeeping_max_deferment
                0x00000000c04801c0                read_boot_clock
                0x00000000c04801e0                get_seconds
                0x00000000c04801f0                __current_kernel_time
                0x00000000c0480200                monotonic_to_bootbased
                0x00000000c0480230                getboottime
                0x00000000c0480500                update_wall_time
                0x00000000c0480bc0                timekeeping_notify
                0x00000000c0480be0                do_settimeofday
                0x00000000c0480d30                ktime_get
                0x00000000c0480e30                getnstimeofday
                0x00000000c0480f40                ktime_get_real
                0x00000000c0480f80                do_gettimeofday
                0x00000000c0480fc0                get_monotonic_coarse
                0x00000000c0481030                current_kernel_time
                0x00000000c0481070                timekeeping_valid_for_hres
                0x00000000c04810b0                getrawmonotonic
                0x00000000c04811b0                ktime_get_ts
                0x00000000c0481360                ntp_clear
                0x00000000c04813c0                second_overflow
                0x00000000c0481700                do_adjtimex
                0x00000000c0481e10                timecounter_init
                0x00000000c0481e40                timecounter_read
                0x00000000c0481ee0                timecounter_cyc2time
                0x00000000c0482040                clocksource_touch_watchdog
                0x00000000c0482050                clocksource_resume
                0x00000000c0482310                clocksource_change_rating
                0x00000000c04823e0                clocksource_unregister
                0x00000000c0482670                clocksource_register
                0x00000000c04828b0                clocksource_mark_unstable
                0x00000000c0483ee0                sysrq_timer_list_show
                0x00000000c0483ef0                timecompare_transform
                0x00000000c0483f80                timecompare_offset
                0x00000000c04842f0                __timecompare_update
                0x00000000c04844b0                time_to_tm
                0x00000000c04846a0                clockevents_handle_noop
                0x00000000c04846b0                clockevents_program_event
                0x00000000c04847e0                clockevents_set_mode
                0x00000000c0484830                clockevents_shutdown
                0x00000000c0484860                clockevent_delta2ns
                0x00000000c0484920                clockevents_notify
                0x00000000c0484a40                clockevents_exchange_device
                0x00000000c0484af0                clockevents_register_device
                0x00000000c0484b90                clockevents_register_notifier
                0x00000000c0484be0                tick_get_device
                0x00000000c0484c00                tick_is_oneshot_available
                0x00000000c0484c30                tick_setup_periodic
                0x00000000c0485160                tick_handle_periodic
                0x00000000c04851e0                tick_get_broadcast_device
                0x00000000c04851f0                tick_get_broadcast_mask
                0x00000000c0485200                tick_is_broadcast_device
                0x00000000c0485220                tick_set_periodic_handler
                0x00000000c0485240                tick_get_broadcast_oneshot_mask
                0x00000000c0485250                tick_broadcast_oneshot_active
                0x00000000c0485270                tick_resume_broadcast_oneshot
                0x00000000c0485290                tick_suspend_broadcast
                0x00000000c04852c0                tick_check_broadcast_device
                0x00000000c0485370                tick_check_oneshot_broadcast
                0x00000000c04853d0                tick_shutdown_broadcast
                0x00000000c0485470                tick_shutdown_broadcast_oneshot
                0x00000000c04854e0                tick_broadcast_setup_oneshot
                0x00000000c0485650                tick_broadcast_switch_to_oneshot
                0x00000000c0485690                tick_resume_broadcast
                0x00000000c0485a50                tick_device_uses_broadcast
                0x00000000c0485b70                tick_broadcast_on_off
                0x00000000c0485e20                tick_broadcast_oneshot_control
                0x00000000c0486000                tick_oneshot_mode_active
                0x00000000c0486070                tick_switch_to_oneshot
                0x00000000c0486120                tick_init_highres
                0x00000000c0486130                tick_dev_program_event
                0x00000000c0486200                tick_setup_oneshot
                0x00000000c0486230                tick_program_event
                0x00000000c0486270                tick_resume_oneshot
                0x00000000c04862a0                tick_get_tick_sched
                0x00000000c04862c0                tick_nohz_get_sleep_length
                0x00000000c04862e0                tick_oneshot_notify
                0x00000000c0486370                tick_check_oneshot_change
                0x00000000c04867b0                tick_cancel_sched_timer
                0x00000000c04867e0                get_cpu_idle_time_us
                0x00000000c0486890                tick_setup_sched_timer
                0x00000000c04869e0                tick_clock_notify
                0x00000000c0486a60                tick_nohz_restart_sched_tick
                0x00000000c0486c70                tick_check_idle
                0x00000000c0486de0                tick_nohz_stop_sched_tick
                0x00000000c0487800                timer_stats_update_stats
                0x00000000c0487a70                debug_mutex_lock_common
                0x00000000c0487a90                mutex_destroy
                0x00000000c0487ae0                debug_mutex_unlock
                0x00000000c0487bb0                mutex_remove_waiter
                0x00000000c0487cb0                debug_mutex_add_waiter
                0x00000000c0487d10                debug_mutex_free_waiter
                0x00000000c0487d60                debug_mutex_wake_waiter
                0x00000000c0487e60                debug_mutex_init
                0x00000000c0487eb0                lockdep_off
                0x00000000c0487ed0                lockdep_on
                0x00000000c0487ef0                get_usage_chars
                0x00000000c0488030                lock_chain_get_class
                0x00000000c0488080                early_boot_irqs_off
                0x00000000c0488090                early_boot_irqs_on
                0x00000000c04880a0                lockdep_set_current_reclaim_state
                0x00000000c04880c0                lockdep_clear_current_reclaim_state
                0x00000000c04880e0                lockdep_reset
                0x00000000c0488190                lockdep_init
                0x00000000c0488440                __lockdep_count_forward_deps
                0x00000000c0488470                __lockdep_count_backward_deps
                0x00000000c04891a0                print_irqtrace_events
                0x00000000c0489760                trace_softirqs_off
                0x00000000c0489840                trace_hardirqs_off_caller
                0x00000000c0489aa0                lock_is_held
                0x00000000c0489cc0                trace_hardirqs_off
                0x00000000c0489cd0                lock_stats
                0x00000000c0489f10                __get_key_name
                0x00000000c048a3f0                clear_lock_stats
                0x00000000c048a4b0                lockdep_free_key_range
                0x00000000c048aa40                lockdep_init_map
                0x00000000c048ab60                lockdep_reset_lock
                0x00000000c048af70                lockdep_sys_exit
                0x00000000c048aff0                __debug_show_held_locks
                0x00000000c048b020                debug_show_held_locks
                0x00000000c048b030                debug_show_all_locks
                0x00000000c048b1b0                debug_check_no_locks_held
                0x00000000c048b320                lock_acquired
                0x00000000c048b660                lock_contended
                0x00000000c048ca20                lockdep_trace_alloc
                0x00000000c048cb00                trace_softirqs_on
                0x00000000c048cbc0                trace_hardirqs_on_caller
                0x00000000c048cd50                trace_hardirqs_on
                0x00000000c048d350                debug_check_no_locks_freed
                0x00000000c048d490                lockdep_count_backward_deps
                0x00000000c048d530                lockdep_count_forward_deps
                0x00000000c048e830                lock_acquire
                0x00000000c048ec30                lock_release
                0x00000000c048ee50                lock_set_class
                0x00000000c0490ec0                sys_set_robust_list
                0x00000000c0491040                exit_pi_state_list
                0x00000000c0491230                sys_get_robust_list
                0x00000000c04916c0                handle_futex_death
                0x00000000c0491790                exit_robust_list
                0x00000000c04931c0                do_futex
                0x00000000c0493b10                sys_futex
                0x00000000c0493c60                rt_mutex_getprio
                0x00000000c0493c90                rt_mutex_destroy
                0x00000000c0493ec0                rt_mutex_proxy_unlock
                0x00000000c0493f00                __rt_mutex_init
                0x00000000c0493f50                rt_mutex_init_proxy_locked
                0x00000000c0493fa0                rt_mutex_next_owner
                0x00000000c0494690                rt_mutex_finish_proxy_lock
                0x00000000c0494730                rt_mutex_timed_lock
                0x00000000c0494780                rt_mutex_adjust_pi
                0x00000000c0494800                rt_mutex_start_proxy_lock
                0x00000000c0494980                debug_rt_mutex_deadlock
                0x00000000c04949d0                debug_rt_mutex_lock
                0x00000000c04949e0                debug_rt_mutex_proxy_lock
                0x00000000c04949f0                debug_rt_mutex_init_waiter
                0x00000000c0494a50                rt_mutex_deadlock_account_lock
                0x00000000c0494a60                rt_mutex_deadlock_account_unlock
                0x00000000c0494a70                debug_rt_mutex_init
                0x00000000c0494aa0                debug_rt_mutex_free_waiter
                0x00000000c0494b10                rt_mutex_debug_task_free
                0x00000000c0494b60                debug_rt_mutex_proxy_unlock
                0x00000000c0494bd0                debug_rt_mutex_unlock
                0x00000000c0494d10                debug_rt_mutex_print_deadlock
                0x00000000c0495520                schedule_rt_mutex_test
                0x00000000c0495770                request_dma
                0x00000000c0495830                free_dma
                0x00000000c04958e0                ipi_call_unlock_irq
                0x00000000c04958f0                ipi_call_lock_irq
                0x00000000c0495900                ipi_call_unlock
                0x00000000c0495910                ipi_call_lock
                0x00000000c04959a0                generic_smp_call_function_interrupt
                0x00000000c0495b00                __smp_call_function_single
                0x00000000c0495bd0                smp_call_function_single
                0x00000000c0495d80                generic_smp_call_function_single_interrupt
                0x00000000c0495e90                smp_call_function_many
                0x00000000c04960b0                smp_call_function
                0x00000000c04960e0                in_lock_functions
                0x00000000c0496100                sys_getuid16
                0x00000000c0496130                sys_geteuid16
                0x00000000c0496160                sys_getgid16
                0x00000000c0496190                sys_getegid16
                0x00000000c04974c0                sys_setgroups16
                0x00000000c04975b0                sys_getgroups16
                0x00000000c0497660                sys_getresgid16
                0x00000000c0497710                sys_getresuid16
                0x00000000c04977c0                sys_setfsgid16
                0x00000000c04977f0                sys_setfsuid16
                0x00000000c0497820                sys_setresgid16
                0x00000000c0497880                sys_setresuid16
                0x00000000c04978e0                sys_setuid16
                0x00000000c0497910                sys_setreuid16
                0x00000000c0497960                sys_setgid16
                0x00000000c0497990                sys_setregid16
                0x00000000c04979e0                sys_fchown16
                0x00000000c0497a30                sys_lchown16
                0x00000000c0497a80                sys_chown16
                0x00000000c0497b40                arch_mod_section_prepend
                0x00000000c0497ba0                module_kallsyms_on_each_symbol
                0x00000000c0497d10                __module_address
                0x00000000c0497d80                is_module_address
                0x00000000c0497d90                __module_text_address
                0x00000000c0497de0                is_module_text_address
                0x00000000c0497df0                module_layout
                0x00000000c0499460                print_modules
                0x00000000c04997a0                module_get_iter_tracepoints
                0x00000000c0499850                module_update_tracepoints
                0x00000000c04998c0                search_module_extables
                0x00000000c0499bb0                find_module
                0x00000000c0499bf0                module_kallsyms_lookup_name
                0x00000000c0499e10                module_get_kallsym
                0x00000000c0499f50                lookup_module_symbol_attrs
                0x00000000c049a010                lookup_module_symbol_name
                0x00000000c049a0b0                module_address_lookup
                0x00000000c049a5b0                mod_sysfs_init
                0x00000000c049a690                module_remove_modinfo_attrs
                0x00000000c049a6f0                module_put
                0x00000000c049a960                symbol_put_addr
                0x00000000c049a9a0                __module_put_and_exit
                0x00000000c049a9c0                unregister_module_notifier
                0x00000000c049a9e0                register_module_notifier
                0x00000000c049aa80                each_symbol
                0x00000000c049acb0                find_symbol
                0x00000000c049ad00                __symbol_put
                0x00000000c049aff0                module_refcount
                0x00000000c049b2c0                sys_delete_module
                0x00000000c049b4e0                __symbol_get
                0x00000000c049b5b0                use_module
                0x00000000c049b8a0                module_add_modinfo_attrs
                0x00000000c049b9a0                mod_sysfs_setup
                0x00000000c049d160                sys_init_module
                0x00000000c049d760                lookup_symbol_attrs
                0x00000000c049d810                lookup_symbol_name
                0x00000000c049d8a0                kallsyms_lookup
                0x00000000c049d950                sprint_symbol
                0x00000000c049da10                __print_symbol
                0x00000000c049da60                kallsyms_lookup_size_offset
                0x00000000c049db00                kallsyms_on_each_symbol
                0x00000000c049dbb0                kallsyms_lookup_name
                0x00000000c049de40                pm_notifier_call_chain
                0x00000000c049de70                unregister_pm_notifier
                0x00000000c049de90                register_pm_notifier
                0x00000000c049deb0                pm_restore_console
                0x00000000c049ded0                pm_prepare_console
                0x00000000c049dfb0                thaw_processes
                0x00000000c049e250                freeze_processes
                0x00000000c049e2e0                valid_state
                0x00000000c049e310                suspend_valid_only_mem
                0x00000000c049e320                arch_suspend_enable_irqs
                0x00000000c049e330                arch_suspend_disable_irqs
                0x00000000c049e340                suspend_devices_and_enter
                0x00000000c049e4c0                enter_state
                0x00000000c049e620                pm_suspend
                0x00000000c049e650                suspend_set_ops
                0x00000000c049e680                swsusp_swap_in_use
                0x00000000c049e6a0                swsusp_show_speed
                0x00000000c049e7d0                free_all_swap_pages
                0x00000000c049e830                alloc_swapdev_block
                0x00000000c049e9a0                system_entering_hibernation
                0x00000000c049ebf0                hibernation_platform_enter
                0x00000000c049ecc0                hibernation_restore
                0x00000000c049f1b0                hibernation_snapshot
                0x00000000c049f3b0                hibernate
                0x00000000c049f5b0                hibernation_set_ops
                0x00000000c049f700                snapshot_additional_pages
                0x00000000c049f730                snapshot_get_image_size
                0x00000000c049f750                snapshot_image_loaded
                0x00000000c049f800                swsusp_page_is_forbidden
                0x00000000c049f940                swsusp_set_page_free
                0x00000000c049fab0                get_safe_page
                0x00000000c049fb20                swsusp_unset_page_free
                0x00000000c049fbb0                restore_highmem
                0x00000000c049fda0                swsusp_free
                0x00000000c04a0010                snapshot_read_next
                0x00000000c04a0620                swsusp_save
                0x00000000c04a0bd0                free_basic_memory_bitmaps
                0x00000000c04a0fa0                hibernate_preallocate_memory
                0x00000000c04a13b0                create_basic_memory_bitmaps
                0x00000000c04a1640                snapshot_write_finalize
                0x00000000c04a16e0                snapshot_write_next
                0x00000000c04a1ec0                swsusp_close
                0x00000000c04a2200                swsusp_read
                0x00000000c04a2540                swsusp_check
                0x00000000c04a2810                swsusp_write
                0x00000000c04a3490                hibernate_nvs_restore
                0x00000000c04a34f0                hibernate_nvs_save
                0x00000000c04a3560                hibernate_nvs_free
                0x00000000c04a35c0                hibernate_nvs_alloc
                0x00000000c04a3610                hibernate_nvs_register
                0x00000000c04a3780                acct_init_pacct
                0x00000000c04a4070                acct_process
                0x00000000c04a40e0                acct_collect
                0x00000000c04a4350                acct_exit_ns
                0x00000000c04a4390                acct_auto_close
                0x00000000c04a4400                acct_auto_close_mnt
                0x00000000c04a4470                sys_acct
                0x00000000c04a46d0                kexec_should_crash
                0x00000000c04a4820                kernel_kexec
                0x00000000c04a4880                paddr_vmcoreinfo_note
                0x00000000c04a4890                vmcoreinfo_append_str
                0x00000000c04a49c0                crash_save_vmcoreinfo
                0x00000000c04a4a50                crash_save_cpu
                0x00000000c04a4b70                crash_kexec
                0x00000000c04a50a0                kimage_alloc_control_pages
                0x00000000c04a55e0                sys_kexec_load
                0x00000000c04a5af0                cgroup_is_removed
                0x00000000c04a5b00                cgroup_exclude_rmdir
                0x00000000c04a5b80                cgroup_iter_next
                0x00000000c04a5cd0                cgroup_fork_callbacks
                0x00000000c04a5d10                css_id
                0x00000000c04a5d30                css_depth
                0x00000000c04a5d50                css_is_ancestor
                0x00000000c04a5e30                cgroup_lock
                0x00000000c04a6030                cgroup_lock_live_group
                0x00000000c04a6060                cgroup_unlock
                0x00000000c04a61d0                cgroup_is_descendant
                0x00000000c04a6220                cgroup_iter_end
                0x00000000c04a6230                cgroup_task_count
                0x00000000c04a6280                css_get_next
                0x00000000c04a6340                cgroup_fork
                0x00000000c04a63a0                css_lookup
                0x00000000c04a63d0                free_css_id
                0x00000000c04a6580                __css_put
                0x00000000c04a6650                cgroup_release_and_wakeup_rmdir
                0x00000000c04a6670                cgroup_post_fork
                0x00000000c04a6700                cgroup_iter_start
                0x00000000c04a6810                cgroupstats_build
                0x00000000c04a6a60                cgroup_exit
                0x00000000c04a7fc0                cgroup_scan_tasks
                0x00000000c04a81d0                cgroup_add_file
                0x00000000c04a8380                cgroup_add_files
                0x00000000c04a85c0                cgroup_path
                0x00000000c04a9ad0                cgroup_attach_task
                0x00000000c04a9fa0                cgroup_clone
                0x00000000c04aa7e0                cgroup_freezing_or_frozen
                0x00000000c04aa8e0                current_cpuset_is_being_rebound
                0x00000000c04aaa80                __cpuset_node_allowed_hardwall
                0x00000000c04aab40                cpuset_unlock
                0x00000000c04aacb0                __cpuset_memory_pressure_bump
                0x00000000c04aaf30                cpuset_task_status_allowed
                0x00000000c04ab010                cpuset_print_task_mems_allowed
                0x00000000c04ab0b0                cpuset_mem_spread_node
                0x00000000c04ab120                __cpuset_node_allowed_softwall
                0x00000000c04ab340                cpuset_cpus_allowed_fallback
                0x00000000c04ab8e0                cpuset_mems_allowed_intersects
                0x00000000c04ab9e0                cpuset_mems_allowed
                0x00000000c04aba40                cpuset_nodemask_valid_mems_allowed
                0x00000000c04abab0                cpuset_cpus_allowed
                0x00000000c04ac1d0                cpuset_init_current_mems_allowed
                0x00000000c04ac650                rebuild_sched_domains
                0x00000000c04acbe0                ns_cgroup_clone
                0x00000000c04acd10                free_uts_ns
                0x00000000c04acd20                copy_utsname
                0x00000000c04ace40                free_user_ns
                0x00000000c04acec0                create_user_ns
                0x00000000c04ad020                zap_pid_ns_processes
                0x00000000c04ad100                free_pid_ns
                0x00000000c04ad150                copy_pid_ns
                0x00000000c04ad410                res_counter_charge_locked
                0x00000000c04ad450                res_counter_read_u64
                0x00000000c04ad490                res_counter_write
                0x00000000c04ad520                res_counter_memparse_write_strategy
                0x00000000c04ad5a0                res_counter_read
                0x00000000c04ad650                res_counter_uncharge_locked
                0x00000000c04ad6b0                res_counter_uncharge
                0x00000000c04ad730                res_counter_charge
                0x00000000c04ad850                res_counter_init
                0x00000000c04ad9d0                stop_machine_destroy
                0x00000000c04ada10                stop_machine_create
                0x00000000c04adab0                __stop_machine
                0x00000000c04adbf0                stop_machine
                0x00000000c04ade70                init_test_probes
                0x00000000c04ae360                audit_string_contains_control
                0x00000000c04ae3f0                audit_send_list
                0x00000000c04ae4a0                audit_serial
                0x00000000c04ae560                audit_make_reply
                0x00000000c04ae650                audit_panic
                0x00000000c04ae6b0                audit_log_lost
                0x00000000c04ae9a0                audit_log_n_hex
                0x00000000c04aeaf0                audit_send_reply
                0x00000000c04aec00                audit_log_end
                0x00000000c04aed00                audit_log_n_string
                0x00000000c04aee10                audit_log_n_untrustedstring
                0x00000000c04aee70                audit_log_untrustedstring
                0x00000000c04af030                audit_log_format
                0x00000000c04af050                audit_log_key
                0x00000000c04af0b0                audit_log_d_path
                0x00000000c04af1e0                audit_log_start
                0x00000000c04b0380                audit_log
                0x00000000c04b03b0                audit_comparator
                0x00000000c04b0410                audit_match_class
                0x00000000c04b0450                audit_filter_type
                0x00000000c04b0540                audit_filter_user
                0x00000000c04b0660                audit_compare_dname_path
                0x00000000c04b0720                audit_unpack_string
                0x00000000c04b0d10                audit_free_rule_rcu
                0x00000000c04b1620                audit_dupe_rule
                0x00000000c04b1920                audit_update_lsm_rules
                0x00000000c04b1b20                audit_receive_filter
                0x00000000c04b25a0                audit_get_watch
                0x00000000c04b25b0                audit_watch_path
                0x00000000c04b25c0                audit_watch_rules
                0x00000000c04b25d0                audit_watch_inode
                0x00000000c04b25e0                audit_watch_dev
                0x00000000c04b2620                audit_put_watch
                0x00000000c04b2680                audit_remove_watch
                0x00000000c04b2890                audit_remove_watch_rule
                0x00000000c04b2900                audit_inotify_unregister
                0x00000000c04b2960                audit_to_watch
                0x00000000c04b2a20                audit_add_watch
                0x00000000c04b3190                __audit_mq_open
                0x00000000c04b3210                __audit_mq_sendrecv
                0x00000000c04b32a0                __audit_mq_notify
                0x00000000c04b32e0                __audit_mq_getsetattr
                0x00000000c04b3350                __audit_ipc_set_perm
                0x00000000c04b33a0                __audit_fd_pair
                0x00000000c04b33c0                __audit_log_capset
                0x00000000c04b3430                audit_killed_trees
                0x00000000c04b3460                audit_socketcall
                0x00000000c04b3530                audit_core_dumps
                0x00000000c04b3760                audit_bprm
                0x00000000c04b3850                __audit_ipc_obj
                0x00000000c04b38a0                auditsc_get_stamp
                0x00000000c04b3b20                audit_putname
                0x00000000c04b3b60                __audit_getname
                0x00000000c04b3c50                audit_finish_fork
                0x00000000c04b3d30                audit_log_task_context
                0x00000000c04b3f40                __audit_log_bprm_fcaps
                0x00000000c04b40b0                __audit_ptrace
                0x00000000c04b4190                __audit_signal_info
                0x00000000c04b4ec0                audit_filter_inodes
                0x00000000c04b5040                audit_set_loginuid
                0x00000000c04b6280                audit_syscall_exit
                0x00000000c04b6490                audit_free
                0x00000000c04b6530                audit_syscall_entry
                0x00000000c04b6740                __audit_inode
                0x00000000c04b6a30                audit_alloc
                0x00000000c04b6c30                __audit_inode_child
                0x00000000c04b6f90                audit_sockaddr
                0x00000000c04b7070                audit_tree_path
                0x00000000c04b7080                audit_tree_lookup
                0x00000000c04b70d0                audit_tree_match
                0x00000000c04b72e0                audit_make_tree
                0x00000000c04b75a0                audit_put_chunk
                0x00000000c04b75d0                audit_put_tree
                0x00000000c04b7ad0                audit_kill_trees
                0x00000000c04b7c30                audit_trim_trees
                0x00000000c04b7df0                audit_remove_tree_rule
                0x00000000c04b82b0                audit_add_tree_rule
                0x00000000c04b8520                audit_tag_tree
                0x00000000c04b88b0                arch_deref_entry_point
                0x00000000c04b8c00                kgdb_hex2long
                0x00000000c04b8cb0                kgdb_isremovedbreak
                0x00000000c04b8cf0                kgdb_breakpoint
                0x00000000c04b8d80                kgdb_unregister_io_module
                0x00000000c04b8f60                kgdb_register_io_module
                0x00000000c04b9090                kgdb_nmicallback
                0x00000000c04b91b0                kgdb_hex2mem
                0x00000000c04b93a0                kgdb_arch_remove_breakpoint
                0x00000000c04b94e0                kgdb_mem2hex
                0x00000000c04b9550                kgdb_arch_set_breakpoint
                0x00000000c04b95e0                kgdb_validate_break_address
                0x00000000c04b9690                kgdb_handle_exception
                0x00000000c04ba780                touch_softlockup_watchdog
                0x00000000c04ba850                softlockup_tick
                0x00000000c04ba9d0                touch_all_softlockup_watchdogs
                0x00000000c04baa50                proc_dosoftlockup_thresh
                0x00000000c04bad10                proc_dohung_task_timeout_secs
                0x00000000c04bad70                irq_to_desc
                0x00000000c04badc0                no_action
                0x00000000c04badd0                kstat_irqs_cpu
                0x00000000c04bae00                early_init_irq_lock_class
                0x00000000c04bae90                handle_IRQ_event
                0x00000000c04bafd0                clear_kstat_irqs
                0x00000000c04bb030                handle_bad_irq
                0x00000000c04bb500                irq_set_thread_affinity
                0x00000000c04bb530                __disable_irq
                0x00000000c04bb580                compat_irq_chip_set_default_handler
                0x00000000c04bb5b0                exit_irq_thread
                0x00000000c04bb620                can_request_irq
                0x00000000c04bb6a0                irq_can_set_affinity
                0x00000000c04bb6c0                __irq_set_trigger
                0x00000000c04bb7d0                irq_set_affinity
                0x00000000c04bb900                irq_select_affinity_usr
                0x00000000c04bb990                set_irq_wake
                0x00000000c04bba90                __enable_irq
                0x00000000c04bbe20                setup_irq
                0x00000000c04bbe50                synchronize_irq
                0x00000000c04bc0b0                remove_irq
                0x00000000c04bc2a0                enable_irq
                0x00000000c04bc320                free_irq
                0x00000000c04bc390                disable_irq_nosync
                0x00000000c04bc410                disable_irq
                0x00000000c04bc450                request_threaded_irq
                0x00000000c04bc650                noirqdebug_setup
                0x00000000c04bc830                debug_poll_all_shared_irqs
                0x00000000c04bc8d0                note_interrupt
                0x00000000c04bca60                check_irq_resend
                0x00000000c04bcae0                irq_chip_set_defaults
                0x00000000c04bcbf0                set_irq_nested_thread
                0x00000000c04bcc50                set_irq_chip_data
                0x00000000c04bccd0                set_irq_msi
                0x00000000c04bcd40                set_irq_data
                0x00000000c04bcda0                handle_percpu_irq
                0x00000000c04bce00                handle_edge_irq
                0x00000000c04bcf30                handle_fasteoi_irq
                0x00000000c04bcff0                handle_simple_irq
                0x00000000c04bd090                handle_nested_irq
                0x00000000c04bd130                set_irq_type
                0x00000000c04bd1b0                set_irq_chip
                0x00000000c04bd320                dynamic_irq_init_keep_chip_data
                0x00000000c04bd330                dynamic_irq_init
                0x00000000c04bd440                dynamic_irq_cleanup_keep_chip_data
                0x00000000c04bd450                dynamic_irq_cleanup
                0x00000000c04bd460                handle_level_irq
                0x00000000c04bd550                __set_irq_handler
                0x00000000c04bd6e0                set_irq_chip_and_handler_name
                0x00000000c04bd710                set_irq_chip_and_handler
                0x00000000c04bd790                devm_free_irq
                0x00000000c04bd7e0                devm_request_threaded_irq
                0x00000000c04bd880                probe_irq_off
                0x00000000c04bd940                probe_irq_mask
                0x00000000c04bd9e0                probe_irq_on
                0x00000000c04bdc90                unregister_handler_proc
                0x00000000c04bdcc0                register_irq_proc
                0x00000000c04bdda0                init_irq_proc
                0x00000000c04bdf20                register_handler_proc
                0x00000000c04be030                move_masked_irq
                0x00000000c04be0d0                move_native_irq
                0x00000000c04be120                check_wakeup_irqs
                0x00000000c04be180                resume_device_irqs
                0x00000000c04be1f0                suspend_device_irqs
                0x00000000c04be2a0                rcu_sched_qs
                0x00000000c04be2c0                rcu_bh_qs
                0x00000000c04be2e0                rcu_batches_completed_sched
                0x00000000c04be2f0                rcu_batches_completed_bh
                0x00000000c04be340                rcu_needs_cpu
                0x00000000c04be3b0                rcu_batches_completed
                0x00000000c04be3c0                synchronize_rcu_expedited
                0x00000000c04be890                rcu_irq_enter
                0x00000000c04be8f0                rcu_nmi_exit
                0x00000000c04be950                rcu_nmi_enter
                0x00000000c04be9b0                rcu_irq_exit
                0x00000000c04bec10                rcu_exit_nohz
                0x00000000c04beca0                rcu_enter_nohz
                0x00000000c04befe0                call_rcu_bh
                0x00000000c04beff0                call_rcu_sched
                0x00000000c04bf000                call_rcu
                0x00000000c04bf590                rcu_barrier_sched
                0x00000000c04bf5b0                rcu_barrier
                0x00000000c04bf5c0                rcu_barrier_bh
                0x00000000c04bf860                rcu_check_callbacks
                0x00000000c04bf9d0                relay_buf_full
                0x00000000c04bfa80                relay_subbufs_consumed
                0x00000000c04c0470                relay_switch_subbuf
                0x00000000c04c0830                relay_reset
                0x00000000c04c08e0                relay_close
                0x00000000c04c09d0                relay_flush
                0x00000000c04c0b70                relay_late_setup_files
                0x00000000c04c10a0                relay_open
                0x00000000c04c1530                __delayacct_freepages_start
                0x00000000c04c1550                __delayacct_blkio_start
                0x00000000c04c1610                __delayacct_freepages_end
                0x00000000c04c1640                __delayacct_blkio_end
                0x00000000c04c16a0                __delayacct_blkio_ticks
                0x00000000c04c1700                __delayacct_add_tsk
                0x00000000c04c1a50                __delayacct_tsk_init
                0x00000000c04c1a90                delayacct_init
                0x00000000c04c24f0                taskstats_exit
                0x00000000c04c2820                acct_clear_integrals
                0x00000000c04c2860                acct_update_integrals
                0x00000000c04c2990                xacct_add_tsk
                0x00000000c04c2b00                bacct_add_tsk
                0x00000000c04c2d60                tracepoint_get_iter_range
                0x00000000c04c2da0                tracepoint_iter_stop
                0x00000000c04c2db0                tracepoint_iter_reset
                0x00000000c04c2de0                syscall_unregfunc
                0x00000000c04c2e60                syscall_regfunc
                0x00000000c04c2f50                tracepoint_iter_next
                0x00000000c04c2f60                tracepoint_iter_start
                0x00000000c04c31e0                tracepoint_update_probe_range
                0x00000000c04c32e0                tracepoint_module_notify
                0x00000000c04c3330                tracepoint_probe_update_all
                0x00000000c04c3530                tracepoint_probe_unregister_noupdate
                0x00000000c04c35a0                tracepoint_probe_unregister
                0x00000000c04c3a60                tracepoint_probe_register_noupdate
                0x00000000c04c3ad0                tracepoint_probe_register
                0x00000000c04c3cd0                clear_all_latency_tracing
                0x00000000c04c3d30                trace_clock
                0x00000000c04c3d40                trace_clock_global
                0x00000000c04c3df0                trace_clock_local
                0x00000000c04c3e30                tracing_on
                0x00000000c04c3e40                tracing_off
                0x00000000c04c3e50                tracing_off_permanent
                0x00000000c04c3e60                tracing_is_on
                0x00000000c04c3ed0                ring_buffer_event_length
                0x00000000c04c3f00                ring_buffer_page_len
                0x00000000c04c3f10                ring_buffer_time_stamp
                0x00000000c04c3f20                ring_buffer_normalize_time_stamp
                0x00000000c04c3f30                ring_buffer_set_clock
                0x00000000c04c3f40                ring_buffer_record_disable
                0x00000000c04c3f50                ring_buffer_record_enable
                0x00000000c04c3f60                ring_buffer_iter_empty
                0x00000000c04c3f90                ring_buffer_size
                0x00000000c04c41e0                ring_buffer_event_data
                0x00000000c04c43d0                ring_buffer_iter_reset
                0x00000000c04c4660                ring_buffer_read
                0x00000000c04c46c0                ring_buffer_iter_peek
                0x00000000c04c4900                ring_buffer_unlock_commit
                0x00000000c04c4e00                ring_buffer_free_read_page
                0x00000000c04c4e10                ring_buffer_alloc_read_page
                0x00000000c04c4e40                ring_buffer_read_finish
                0x00000000c04c52c0                ring_buffer_print_page_header
                0x00000000c04c5330                ring_buffer_print_entry_header
                0x00000000c04c53e0                ring_buffer_discard_commit
                0x00000000c04c5530                ring_buffer_consume
                0x00000000c04c5680                ring_buffer_empty_cpu
                0x00000000c04c5790                ring_buffer_swap_cpu
                0x00000000c04c5890                ring_buffer_commit_overrun_cpu
                0x00000000c04c58f0                ring_buffer_overrun_cpu
                0x00000000c04c5950                ring_buffer_entries_cpu
                0x00000000c04c59c0                ring_buffer_record_enable_cpu
                0x00000000c04c5a20                ring_buffer_record_disable_cpu
                0x00000000c04c5a80                ring_buffer_reset_cpu
                0x00000000c04c5b60                ring_buffer_read_page
                0x00000000c04c5d60                ring_buffer_peek
                0x00000000c04c5ea0                ring_buffer_read_start
                0x00000000c04c5fd0                ring_buffer_free
                0x00000000c04c6070                ring_buffer_empty
                0x00000000c04c61b0                ring_buffer_reset
                0x00000000c04c6220                ring_buffer_entries
                0x00000000c04c62c0                ring_buffer_overruns
                0x00000000c04c6350                ring_buffer_resize
                0x00000000c04c6a60                __ring_buffer_alloc
                0x00000000c04c70c0                ring_buffer_write
                0x00000000c04c71f0                ring_buffer_lock_reserve
                0x00000000c04c7360                ns2usecs
                0x00000000c04c73c0                tracing_is_enabled
                0x00000000c04c73d0                nsecs_to_usecs
                0x00000000c04c73f0                is_tracing_stopped
                0x00000000c04c7400                tracing_open_generic
                0x00000000c04c7480                tracing_generic_entry_update
                0x00000000c04c7930                trace_parser_put
                0x00000000c04c7ea0                tracing_update_buffers
                0x00000000c04c8600                trace_seq_to_user
                0x00000000c04c8670                trace_create_file
                0x00000000c04c86c0                tracing_init_dentry
                0x00000000c04c8770                tracing_dentry_percpu
                0x00000000c04c87d0                poll_wait_pipe
                0x00000000c04c87f0                trace_current_buffer_discard_commit
                0x00000000c04c8800                trace_buffer_lock_reserve
                0x00000000c04c8850                trace_vbprintk
                0x00000000c04c89f0                trace_current_buffer_lock_reserve
                0x00000000c04c8a20                tracing_record_cmdline
                0x00000000c04c8b30                trace_find_cmdline
                0x00000000c04c8bb0                tracing_stop
                0x00000000c04c8c20                unregister_tracer
                0x00000000c04c8cd0                tracing_start
                0x00000000c04c8ea0                ftrace_off_permanent
                0x00000000c04c8ec0                tracing_reset
                0x00000000c04c8f20                tracing_reset_current
                0x00000000c04c9030                update_max_tr
                0x00000000c04c90d0                trace_get_user
                0x00000000c04c9270                trace_wake_up
                0x00000000c04c92c0                ftrace_now
                0x00000000c04c95e0                trace_parser_get_init
                0x00000000c04c97f0                filter_current_check_discard
                0x00000000c04c98d0                __trace_stack
                0x00000000c04c98f0                ftrace_trace_stack
                0x00000000c04c9920                trace_function
                0x00000000c04c99c0                ftrace
                0x00000000c04c9ad0                ftrace_trace_userstack
                0x00000000c04c9bb0                trace_current_buffer_unlock_commit
                0x00000000c04c9c00                trace_buffer_unlock_commit
                0x00000000c04c9cf0                ftrace_special
                0x00000000c04c9dc0                __trace_special
                0x00000000c04c9df0                trace_nowake_buffer_unlock_commit
                0x00000000c04ca270                default_wait_pipe
                0x00000000c04ca460                trace_find_next_entry
                0x00000000c04caa60                tracing_reset_online_cpus
                0x00000000c04cab10                tracer_init
                0x00000000c04cadd0                register_tracer
                0x00000000c04caf50                tracing_reset_current_online_cpus
                0x00000000c04caf60                trace_array_vprintk
                0x00000000c04cb0e0                trace_vprintk
                0x00000000c04cb1e0                trace_array_printk
                0x00000000c04cb210                update_max_tr_single
                0x00000000c04cc340                ftrace_dump
                0x00000000c04ccba0                trace_seq_putc
                0x00000000c04ccbd0                trace_seq_putmem
                0x00000000c04ccc30                trace_seq_putmem_hex
                0x00000000c04cccb0                trace_seq_reserve
                0x00000000c04cccf0                ftrace_find_event
                0x00000000c04ccd30                trace_nop_print
                0x00000000c04cd110                __unregister_ftrace_event
                0x00000000c04cd140                unregister_ftrace_event
                0x00000000c04cd170                register_ftrace_event
                0x00000000c04cd410                trace_event_read_unlock
                0x00000000c04cd420                trace_event_read_lock
                0x00000000c04cd430                trace_seq_path
                0x00000000c04cd4b0                trace_seq_puts
                0x00000000c04cd510                trace_seq_bprintf
                0x00000000c04cd580                trace_print_bprintk_msg_only
                0x00000000c04cd5d0                trace_seq_vprintf
                0x00000000c04cd640                trace_seq_printf
                0x00000000c04cda60                trace_print_context
                0x00000000c04cdb30                trace_print_lat_fmt
                0x00000000c04cdc60                trace_print_lat_context
                0x00000000c04cde70                seq_print_user_ip
                0x00000000c04cdf50                seq_print_userip_objs
                0x00000000c04ce110                ftrace_print_symbols_seq
                0x00000000c04ce1a0                ftrace_print_flags_seq
                0x00000000c04ce2b0                trace_print_printk_msg_only
                0x00000000c04ce310                trace_print_seq
                0x00000000c04ce440                seq_print_ip_sym
                0x00000000c04ce8a0                unregister_stat_tracer
                0x00000000c04ce9e0                register_stat_tracer
                0x00000000c04ceef0                __ftrace_vprintk
                0x00000000c04cef10                __trace_printk
                0x00000000c04cef30                __ftrace_vbprintk
                0x00000000c04cef60                __trace_bprintk
                0x00000000c04cf0a0                tracing_sched_switch_assign_trace
                0x00000000c04cf130                tracing_stop_sched_switch_record
                0x00000000c04cf1a0                tracing_stop_cmdline_record
                0x00000000c04cf270                tracing_start_sched_switch_record
                0x00000000c04cf2e0                tracing_start_cmdline_record
                0x00000000c04cf2f0                tracing_sched_wakeup_trace
                0x00000000c04cf4a0                tracing_sched_switch_trace
                0x00000000c04cfac0                init_tracer_sysprof_debugfs
                0x00000000c04d02d0                start_boot_trace
                0x00000000c04d04a0                trace_boot_ret
                0x00000000c04d0560                disable_boot_trace
                0x00000000c04d0590                enable_boot_trace
                0x00000000c04d05c0                trace_boot_call
                0x00000000c04d0690                kmemtrace_init
                0x00000000c04d1290                blk_fill_rwbs
                0x00000000c04d1310                blk_fill_rwbs_rq
                0x00000000c04d1ba0                blk_add_driver_data
                0x00000000c04d1ef0                blk_trace_remove
                0x00000000c04d2430                blk_dump_cmd
                0x00000000c04d2c90                blk_trace_remove_sysfs
                0x00000000c04d2cb0                blk_trace_init_sysfs
                0x00000000c04d2cd0                blk_trace_startstop
                0x00000000c04d2db0                blk_trace_shutdown
                0x00000000c04d2ed0                __trace_note_message
                0x00000000c04d3030                do_blk_trace_setup
                0x00000000c04d3370                blk_trace_setup
                0x00000000c04d3410                blk_trace_ioctl
                0x00000000c04d3c80                trace_set_clr_event
                0x00000000c04d5020                trace_define_field
                0x00000000c04d5140                trace_define_common_fields
                0x00000000c04d69e0                ftrace_define_fields_kmem_free
                0x00000000c04d6aa0                ftrace_define_fields_kmem_alloc
                0x00000000c04d6c40                ftrace_define_fields_hw_branch
                0x00000000c04d6cd0                ftrace_define_fields_branch
                0x00000000c04d6dc0                ftrace_define_fields_boot_ret
                0x00000000c04d6e80                ftrace_define_fields_boot_call
                0x00000000c04d6f10                ftrace_define_fields_mmiotrace_map
                0x00000000c04d7040                ftrace_define_fields_mmiotrace_rw
                0x00000000c04d71a0                ftrace_define_fields_print
                0x00000000c04d71f0                ftrace_define_fields_bprint
                0x00000000c04d7280                ftrace_define_fields_user_stack
                0x00000000c04d7310                ftrace_define_fields_kernel_stack
                0x00000000c04d7360                ftrace_define_fields_special
                0x00000000c04d7420                ftrace_define_fields_wakeup
                0x00000000c04d75c0                ftrace_define_fields_context_switch
                0x00000000c04d7760                ftrace_define_fields_funcgraph_exit
                0x00000000c04d7890                ftrace_define_fields_funcgraph_entry
                0x00000000c04d7920                ftrace_define_fields_function
                0x00000000c04d79b0                unreg_prof_syscall_exit
                0x00000000c04d7a20                unreg_event_syscall_exit
                0x00000000c04d7a90                unreg_prof_syscall_enter
                0x00000000c04d7b00                unreg_event_syscall_enter
                0x00000000c04d7e40                reg_prof_syscall_exit
                0x00000000c04d7ee0                reg_event_syscall_exit
                0x00000000c04d7f80                reg_prof_syscall_enter
                0x00000000c04d8020                reg_event_syscall_enter
                0x00000000c04d80c0                ftrace_syscall_exit
                0x00000000c04d8170                ftrace_syscall_enter
                0x00000000c04d8250                syscall_exit_define_fields
                0x00000000c04d82a0                syscall_enter_define_fields
                0x00000000c04d8330                syscall_exit_format
                0x00000000c04d83b0                syscall_enter_format
                0x00000000c04d8540                print_syscall_exit
                0x00000000c04d85f0                print_syscall_enter
                0x00000000c04d8760                ftrace_profile_disable
                0x00000000c04d8820                ftrace_profile_enable
                0x00000000c04d8f70                destroy_preds
                0x00000000c04d9500                filter_assign_type
                0x00000000c04d9560                print_subsystem_event_filter
                0x00000000c04d95d0                print_event_filter
                0x00000000c04d9640                filter_match_preds
                0x00000000c04da2e0                apply_subsystem_event_filter
                0x00000000c04da530                apply_event_filter
                0x00000000c04db3e0                cpupri_cleanup
                0x00000000c04db3f0                cpupri_find
                0x00000000c04db4f0                cpupri_init
                0x00000000c04db5c0                cpupri_set
                0x00000000c04db830                slow_work_unregister_user
                0x00000000c04dbb10                slow_work_register_user
                0x00000000c04dbd80                slow_work_cancel
                0x00000000c04dbeb0                slow_work_sleep_till_thread_needed
                0x00000000c04dbf60                slow_work_enqueue
                0x00000000c04dc140                delayed_slow_work_enqueue
                0x00000000c04dc800                hw_perf_event_setup
                0x00000000c04dc820                hw_perf_group_sched_in
                0x00000000c04dc840                __perf_disable
                0x00000000c04dc860                __perf_enable
                0x00000000c04dc880                perf_disable
                0x00000000c04dc8a0                perf_enable
                0x00000000c04dcdc0                perf_event_do_pending
                0x00000000c04dd0a0                perf_output_copy
                0x00000000c04dd3e0                perf_output_sample
                0x00000000c04dd7b0                perf_event_task_disable
                0x00000000c04dd830                perf_event_task_enable
                0x00000000c04de180                __perf_event_sched_out
                0x00000000c04de3e0                perf_event_task_sched_in
                0x00000000c04de980                perf_event_free_task
                0x00000000c04deac0                perf_prepare_sample
                0x00000000c04df740                perf_event_set_output
                0x00000000c04dfa70                perf_event_wakeup
                0x00000000c04dfca0                perf_output_end
                0x00000000c04dfe90                perf_event_update_userpage
                0x00000000c04e0540                sys_perf_event_open
                0x00000000c04e0cf0                perf_event_init_task
                0x00000000c04e1350                perf_output_begin
                0x00000000c04e17f0                perf_event_fork
                0x00000000c04e1810                perf_event_exit_task
                0x00000000c04e1e30                perf_event_task_tick
                0x00000000c04e24b0                perf_tp_event
                0x00000000c04e2540                __perf_sw_event
                0x00000000c04e25b0                perf_event_task_sched_out
                0x00000000c04e28a0                perf_event_overflow
                0x00000000c04e2b30                __perf_event_mmap
                0x00000000c04e2f00                perf_event_comm
 *fill*         0x00000000c04e329e        0x2 9090
 .text          0x00000000c04e32a0    0x3e358 mm/built-in.o
                0x00000000c04e32b0                iov_iter_single_seg_count
                0x00000000c04e32e0                pagecache_write_begin
                0x00000000c04e3330                iov_iter_fault_in_readable
                0x00000000c04e3380                iov_iter_advance
                0x00000000c04e3410                generic_segment_checks
                0x00000000c04e34b0                try_to_release_page
                0x00000000c04e3500                pagecache_write_end
                0x00000000c04e3560                generic_write_checks
                0x00000000c04e3880                iov_iter_copy_from_user
                0x00000000c04e3900                iov_iter_copy_from_user_atomic
                0x00000000c04e3990                should_remove_suid
                0x00000000c04e3a00                file_remove_suid
                0x00000000c04e3a70                generic_file_mmap
                0x00000000c04e3ac0                generic_file_readonly_mmap
                0x00000000c04e3ae0                sys_readahead
                0x00000000c04e3ba0                file_read_actor
                0x00000000c04e3c80                find_get_page
                0x00000000c04e3d90                __lock_page_nosync
                0x00000000c04e3e10                __lock_page_killable
                0x00000000c04e3e90                __lock_page
                0x00000000c04e3fa0                end_page_writeback
                0x00000000c04e4010                unlock_page
                0x00000000c04e4060                add_page_wait_queue
                0x00000000c04e40e0                wait_on_page_bit
                0x00000000c04e41d0                add_to_page_cache_locked
                0x00000000c04e4320                add_to_page_cache_lru
                0x00000000c04e4390                wait_on_page_writeback_range
                0x00000000c04e44b0                filemap_fdatawait
                0x00000000c04e4510                filemap_fdatawait_range
                0x00000000c04e4550                __filemap_fdatawrite_range
                0x00000000c04e45c0                filemap_write_and_wait_range
                0x00000000c04e4650                generic_file_buffered_write
                0x00000000c04e48c0                generic_file_direct_write
                0x00000000c04e4af0                filemap_flush
                0x00000000c04e4b20                filemap_fdatawrite
                0x00000000c04e4b50                filemap_write_and_wait
                0x00000000c04e4ba0                filemap_fdatawrite_range
                0x00000000c04e4bd0                __remove_from_page_cache
                0x00000000c04e4ce0                remove_from_page_cache
                0x00000000c04e4d30                generic_file_aio_read
                0x00000000c04e53f0                find_get_pages_tag
                0x00000000c04e5590                find_get_pages_contig
                0x00000000c04e5710                find_get_pages
                0x00000000c04e5870                grab_cache_page_nowait
                0x00000000c04e5a70                read_cache_page_gfp
                0x00000000c04e5aa0                read_cache_page_async
                0x00000000c04e5ad0                read_cache_page
                0x00000000c04e5af0                find_lock_page
                0x00000000c04e5b80                find_or_create_page
                0x00000000c04e5c10                __generic_file_aio_write
                0x00000000c04e60f0                generic_file_aio_write
                0x00000000c04e61c0                filemap_fault
                0x00000000c04e65e0                grab_cache_page_write_begin
                0x00000000c04e6690                mempool_free_pages
                0x00000000c04e66a0                mempool_alloc_pages
                0x00000000c04e66c0                mempool_kfree
                0x00000000c04e6720                mempool_destroy
                0x00000000c04e6740                mempool_free_slab
                0x00000000c04e6750                mempool_alloc_slab
                0x00000000c04e6760                mempool_resize
                0x00000000c04e68f0                mempool_free
                0x00000000c04e6980                mempool_alloc
                0x00000000c04e6a80                mempool_kmalloc
                0x00000000c04e6a90                mempool_create_node
                0x00000000c04e6bd0                mempool_create
                0x00000000c04e6f50                clear_zonelist_oom
                0x00000000c04e6fc0                try_set_zone_oom
                0x00000000c04e70a0                unregister_oom_notifier
                0x00000000c04e70c0                register_oom_notifier
                0x00000000c04e70e0                badness
                0x00000000c04e7490                out_of_memory
                0x00000000c04e7540                pagefault_out_of_memory
                0x00000000c04e75d0                mem_cgroup_out_of_memory
                0x00000000c04e7650                sys_fadvise64_64
                0x00000000c04e7870                sys_fadvise64
                0x00000000c04e78b0                probe_kernel_write
                0x00000000c04e78f0                probe_kernel_read
                0x00000000c04e7930                prep_compound_page
                0x00000000c04e7980                set_pageblock_flags_group
                0x00000000c04e7b10                calculate_zone_inactive_ratio
                0x00000000c04e7e00                get_pageblock_flags_group
                0x00000000c04e7e80                unset_migratetype_isolate
                0x00000000c04e7f00                setup_per_zone_wmarks
                0x00000000c04e81a0                lowmem_reserve_ratio_sysctl_handler
                0x00000000c04e81d0                min_free_kbytes_sysctl_handler
                0x00000000c04e85f0                zone_pcp_update
                0x00000000c04e8610                zone_watermark_ok
                0x00000000c04e86c0                show_free_areas
                0x00000000c04e8d30                si_meminfo
                0x00000000c04e8de0                nr_free_pagecache_pages
                0x00000000c04e8df0                nr_free_buffer_pages
                0x00000000c04e8e00                split_page
                0x00000000c04e8f00                mark_free_pages
                0x00000000c04e9080                drain_all_pages
                0x00000000c04e90a0                set_migratetype_isolate
                0x00000000c04e9240                build_all_zonelists
                0x00000000c04e9e60                __alloc_pages_nodemask
                0x00000000c04ea4a0                __get_free_pages
                0x00000000c04ea4e0                get_zeroed_page
                0x00000000c04ea4f0                percpu_pagelist_fraction_sysctl_handler
                0x00000000c04ea980                drain_local_pages
                0x00000000c04ead00                __pagevec_free
                0x00000000c04ead80                free_hot_page
                0x00000000c04eadd0                __free_pages
                0x00000000c04eae60                free_pages
                0x00000000c04eaec0                free_pages_exact
                0x00000000c04eaf00                alloc_pages_exact
                0x00000000c04eafa0                __set_page_dirty_no_writeback
                0x00000000c04eafb0                mapping_tagged
                0x00000000c04eb050                bdi_writeout_inc
                0x00000000c04eb0c0                writeback_set_ratelimit
                0x00000000c04eb110                laptop_sync_completion
                0x00000000c04eb140                laptop_io_completion
                0x00000000c04eb160                dirty_writeback_centisecs_handler
                0x00000000c04eb190                determine_dirtyable_memory
                0x00000000c04eb230                get_dirty_limits
                0x00000000c04eb520                throttle_vm_writeout
                0x00000000c04eb5a0                bdi_set_max_ratio
                0x00000000c04eb610                bdi_set_min_ratio
                0x00000000c04eb680                task_dirty_inc
                0x00000000c04eb6f0                dirty_background_bytes_handler
                0x00000000c04eb760                dirty_bytes_handler
                0x00000000c04eb7b0                dirty_ratio_handler
                0x00000000c04eb800                dirty_background_ratio_handler
                0x00000000c04eb900                set_page_dirty
                0x00000000c04eb960                set_page_dirty_lock
                0x00000000c04eb9c0                clear_page_dirty_for_io
                0x00000000c04ebaf0                write_one_page
                0x00000000c04ebc00                write_cache_pages
                0x00000000c04ebf90                generic_writepages
                0x00000000c04ebfc0                do_writepages
                0x00000000c04ebff0                balance_dirty_pages_ratelimited_nr
                0x00000000c04ec380                set_page_dirty_balance
                0x00000000c04ec3d0                account_page_dirtied
                0x00000000c04ec450                __set_page_dirty_nobuffers
                0x00000000c04ec5b0                redirty_page_for_writepage
                0x00000000c04ec5c0                test_set_page_writeback
                0x00000000c04ec700                test_clear_page_writeback
                0x00000000c04ec840                file_ra_state_init
                0x00000000c04ec860                max_sane_readahead
                0x00000000c04ec930                read_cache_pages
                0x00000000c04ecc10                ra_submit
                0x00000000c04ecc40                force_page_cache_readahead
                0x00000000c04ecf50                page_cache_async_readahead
                0x00000000c04ed000                page_cache_sync_readahead
                0x00000000c04ed060                pagevec_lookup_tag
                0x00000000c04ed090                pagevec_lookup
                0x00000000c04ed110                activate_page
                0x00000000c04ed240                mark_page_accessed
                0x00000000c04ed280                lru_add_drain_all
                0x00000000c04ed290                put_page
                0x00000000c04ed3a0                put_pages_list
                0x00000000c04ed3d0                pagevec_strip
                0x00000000c04ed440                release_pages
                0x00000000c04ed610                ____pagevec_lru_add
                0x00000000c04ed7d0                __lru_cache_add
                0x00000000c04ed860                lru_cache_add_lru
                0x00000000c04ed9d0                lru_add_drain
                0x00000000c04eda90                rotate_reclaimable_page
                0x00000000c04edb60                __pagevec_release
                0x00000000c04edb90                add_page_to_unevictable_list
                0x00000000c04edc10                do_invalidatepage
                0x00000000c04edc30                invalidate_inode_page
                0x00000000c04edcd0                cancel_dirty_page
                0x00000000c04eddb0                truncate_inode_page
                0x00000000c04ede70                generic_error_remove_page
                0x00000000c04edeb0                invalidate_mapping_pages
                0x00000000c04edf90                truncate_inode_pages_range
                0x00000000c04ee280                truncate_inode_pages
                0x00000000c04ee2a0                truncate_pagecache
                0x00000000c04ee330                vmtruncate
                0x00000000c04ee3b0                invalidate_inode_pages2_range
                0x00000000c04ee6b0                invalidate_inode_pages2
                0x00000000c04ee6d0                global_reclaimable_pages
                0x00000000c04ee720                zone_reclaimable_pages
                0x00000000c04ee770                scan_unevictable_unregister_node
                0x00000000c04ee780                __isolate_lru_page
                0x00000000c04ee850                scan_unevictable_register_node
                0x00000000c04ee860                kswapd_run
                0x00000000c04ee960                wakeup_kswapd
                0x00000000c04eea10                isolate_lru_page
                0x00000000c04eeb50                shrink_slab
                0x00000000c04eecd0                unregister_shrinker
                0x00000000c04eed00                register_shrinker
                0x00000000c04ef070                page_evictable
                0x00000000c04ef350                scan_unevictable_handler
                0x00000000c04ef3c0                scan_mapping_unevictable_pages
                0x00000000c04ef540                putback_lru_page
                0x00000000c04ef970                remove_mapping
                0x00000000c04f1090                try_to_free_mem_cgroup_pages
                0x00000000c04f1120                try_to_free_pages
                0x00000000c04f11a0                mem_cgroup_shrink_node_zone
                0x00000000c04f18d0                shrink_all_memory
                0x00000000c04f2500                shmem_file_setup
                0x00000000c04f26c0                shmem_zero_setup
                0x00000000c04f3120                shmem_lock
                0x00000000c04f31e0                shmem_fill_super
                0x00000000c04f3420                shmem_unuse
                0x00000000c04f52a0                vma_prio_tree_next
                0x00000000c04f52f0                vma_prio_tree_remove
                0x00000000c04f53f0                vma_prio_tree_add
                0x00000000c04f5490                vma_prio_tree_insert
                0x00000000c04f9510                sys_mmap_pgoff
                0x00000000c04f9750                memdup_user
                0x00000000c04f97b0                kmemdup
                0x00000000c04f9800                kzfree
                0x00000000c04f9850                __krealloc
                0x00000000c04f98d0                krealloc
                0x00000000c04f9930                kstrndup
                0x00000000c04f9990                kstrdup
                0x00000000c04f99f0                strndup_user
                0x00000000c04f9a80                first_online_pgdat
                0x00000000c04f9a90                next_online_pgdat
                0x00000000c04f9aa0                next_zone
                0x00000000c04f9ad0                next_zones_zonelist
                0x00000000c04f9b00                zone_nr_free_pages
                0x00000000c04f9bd0                vm_events_fold_cpu
                0x00000000c04fa0e0                __dec_zone_state
                0x00000000c04fa170                __dec_zone_page_state
                0x00000000c04fa190                __inc_zone_state
                0x00000000c04fa220                __inc_zone_page_state
                0x00000000c04fa240                __mod_zone_page_state
                0x00000000c04fa3a0                dec_zone_page_state
                0x00000000c04fa420                inc_zone_page_state
                0x00000000c04fa4b0                inc_zone_state
                0x00000000c04fa530                mod_zone_page_state
                0x00000000c04fa5b0                refresh_cpu_vm_stats
                0x00000000c04faa70                all_vm_events
                0x00000000c04fabf0                default_unplug_io_fn
                0x00000000c04fac00                bdi_has_dirty_io
                0x00000000c04faee0                congestion_wait
                0x00000000c04faf50                set_bdi_congested
                0x00000000c04faf70                clear_bdi_congested
                0x00000000c04fb030                bdi_init
                0x00000000c04fb1e0                bdi_unregister
                0x00000000c04fb300                bdi_destroy
                0x00000000c04fb410                bdi_register
                0x00000000c04fb550                bdi_register_dev
                0x00000000c04fbb90                test_pages_isolated
                0x00000000c04fbcc0                undo_isolate_page_range
                0x00000000c04fbd40                start_isolate_page_range
                0x00000000c04fbde0                mminit_verify_zonelist
                0x00000000c04fbeb0                unuse_mm
                0x00000000c04fbf10                use_mm
                0x00000000c04fc1e0                sys_remap_file_pages
                0x00000000c04fc5d0                debug_kmap_atomic
                0x00000000c04fc790                set_page_address
                0x00000000c04fc910                page_address
                0x00000000c04fca00                kunmap_high
                0x00000000c04fcb80                kmap_high
                0x00000000c04fcd70                kmap_flush_unused
                0x00000000c04fcd90                nr_free_highpages
                0x00000000c04fcef0                sys_madvise
                0x00000000c04fd440                might_fault
                0x00000000c04fd4e0                pmd_clear_bad
                0x00000000c04fd530                pgd_clear_bad
                0x00000000c04fd570                print_vma_addr
                0x00000000c04fd810                follow_phys
                0x00000000c04fd8e0                generic_access_phys
                0x00000000c04fd9a0                follow_pfn
                0x00000000c04fda50                __pmd_alloc
                0x00000000c04fdd10                vm_normal_page
                0x00000000c04fdde0                follow_page
                0x00000000c04fe180                __pte_alloc_kernel
                0x00000000c04fe250                __pte_alloc
                0x00000000c04fe330                get_locked_pte
                0x00000000c04fe5a0                vm_insert_mixed
                0x00000000c04fe5f0                vm_insert_pfn
                0x00000000c04fe700                vm_insert_page
                0x00000000c04fe910                apply_to_page_range
                0x00000000c04fec70                remap_pfn_range
                0x00000000c04ff000                pud_clear_bad
                0x00000000c04ff0b0                free_pgd_range
                0x00000000c04ff3b0                free_pgtables
                0x00000000c04ff490                unmap_vmas
                0x00000000c04ffc70                zap_page_range
                0x00000000c04ffe20                unmap_mapping_range
                0x00000000c0500050                vmtruncate_range
                0x00000000c0500150                zap_vma_ptes
                0x00000000c0500190                copy_page_range
                0x00000000c0501730                handle_mm_fault
                0x00000000c0502420                __get_user_pages
                0x00000000c05028f0                get_dump_page
                0x00000000c0502940                get_user_pages
                0x00000000c05029a0                access_process_vm
                0x00000000c0502b40                make_pages_present
                0x00000000c0502d10                sys_mincore
                0x00000000c0503680                refund_locked_memory
                0x00000000c05036d0                account_locked_memory
                0x00000000c0503750                user_shm_unlock
                0x00000000c05037a0                user_shm_lock
                0x00000000c0503840                can_do_mlock
                0x00000000c0503880                munlock_vma_page
                0x00000000c0503920                __clear_page_mlock
                0x00000000c0503990                mlock_vma_page
                0x00000000c05039f0                munlock_vma_pages_range
                0x00000000c0503ea0                sys_munlockall
                0x00000000c0503ef0                sys_mlockall
                0x00000000c0504060                sys_munlock
                0x00000000c05040c0                sys_mlock
                0x00000000c05041a0                mlock_vma_pages_range
                0x00000000c0504230                vm_get_page_prot
                0x00000000c0504250                vm_stat_account
                0x00000000c05042a0                vma_wants_writenotify
                0x00000000c0504330                arch_unmap_area
                0x00000000c0504350                arch_unmap_area_topdown
                0x00000000c0504370                find_vma
                0x00000000c05043e0                arch_get_unmapped_area
                0x00000000c0504500                arch_get_unmapped_area_topdown
                0x00000000c0504670                find_vma_prev
                0x00000000c05046e0                may_expand_vm
                0x00000000c0504990                get_unmapped_area
                0x00000000c0504a10                find_mergeable_anon_vma
                0x00000000c0504b90                mm_drop_all_locks
                0x00000000c0504c30                mm_take_all_locks
                0x00000000c0504f90                expand_stack
                0x00000000c0504fa0                find_extend_vma
                0x00000000c0505010                expand_stack_downwards
                0x00000000c0505080                unlink_file_vma
                0x00000000c05050d0                __vma_link_rb
                0x00000000c0505210                insert_vm_struct
                0x00000000c0505300                install_special_mapping
                0x00000000c05053c0                vma_adjust
                0x00000000c0505800                split_vma
                0x00000000c0505940                vma_merge
                0x00000000c0505bd0                copy_vma
                0x00000000c0505d90                exit_mmap
                0x00000000c0506010                do_munmap
                0x00000000c05062d0                sys_munmap
                0x00000000c0506330                do_brk
                0x00000000c0506650                sys_brk
                0x00000000c0506760                __vm_enough_memory
                0x00000000c05068b0                mmap_region
                0x00000000c0506d40                do_mmap_pgoff
                0x00000000c0507150                mprotect_fixup
                0x00000000c05076f0                sys_mprotect
                0x00000000c0507ae0                move_page_tables
                0x00000000c0508160                do_mremap
                0x00000000c05085b0                sys_mremap
                0x00000000c0508710                sys_msync
                0x00000000c05088b0                page_address_in_vma
                0x00000000c0508900                page_check_address
                0x00000000c0508c10                page_mapped_in_vma
                0x00000000c0508ca0                anon_vma_link
                0x00000000c0508ce0                __anon_vma_link
                0x00000000c0508d60                page_mkclean
                0x00000000c0508f70                page_remove_rmap
                0x00000000c0508fc0                page_add_file_rmap
                0x00000000c0508ff0                page_add_anon_rmap
                0x00000000c0509080                page_add_new_anon_rmap
                0x00000000c0509100                page_unlock_anon_vma
                0x00000000c0509120                page_lock_anon_vma
                0x00000000c05091d0                __anon_vma_merge
                0x00000000c05091f0                anon_vma_unlink
                0x00000000c0509250                anon_vma_prepare
                0x00000000c0509440                page_referenced
                0x00000000c050a020                try_to_munlock
                0x00000000c050a060                try_to_unmap
                0x00000000c050a0b0                is_vmalloc_or_module_addr
                0x00000000c050a450                set_iounmap_nonlazy
                0x00000000c050a630                unmap_kernel_range_noflush
                0x00000000c050a640                unmap_kernel_range
                0x00000000c050a8b0                vmalloc_to_page
                0x00000000c050aa20                remap_vmalloc_range
                0x00000000c050aae0                vmalloc_to_pfn
                0x00000000c050ab00                vwrite
                0x00000000c050ac80                vread
                0x00000000c050b0d0                map_vm_area
                0x00000000c050b130                map_kernel_range_noflush
                0x00000000c050b5c0                remove_vm_area
                0x00000000c050b650                free_vm_area
                0x00000000c050b680                pcpu_free_vm_areas
                0x00000000c050b7a0                vunmap
                0x00000000c050b7e0                vfree
                0x00000000c050b810                vm_unmap_ram
                0x00000000c050bde0                get_vm_area_node
                0x00000000c050be40                get_vm_area_caller
                0x00000000c050bea0                alloc_vm_area
                0x00000000c050bf00                vmap
                0x00000000c050bf80                get_vm_area
                0x00000000c050bfe0                __get_vm_area_caller
                0x00000000c050c020                __get_vm_area
                0x00000000c050c230                __vmalloc_area
                0x00000000c050c260                vmalloc_32_user
                0x00000000c050c2c0                vmalloc_32
                0x00000000c050c300                vmalloc_exec
                0x00000000c050c340                vmalloc_node
                0x00000000c050c380                vmalloc_user
                0x00000000c050c3e0                vmalloc
                0x00000000c050c420                __vmalloc
                0x00000000c050c460                vm_unmap_aliases
                0x00000000c050c630                vm_map_ram
                0x00000000c050caa0                pcpu_get_vm_areas
                0x00000000c050d020                walk_page_range
                0x00000000c050d350                init_emergency_isa_pool
                0x00000000c050d3c0                blk_queue_bounce
                0x00000000c050d950                swap_readpage
                0x00000000c050d9c0                swap_writepage
                0x00000000c050db00                end_swap_bio_read
                0x00000000c050db80                lookup_swap_cache
                0x00000000c050dca0                add_to_swap_cache
                0x00000000c050dcd0                read_swap_cache_async
                0x00000000c050ddb0                swapin_readahead
                0x00000000c050de30                add_to_swap
                0x00000000c050dea0                __delete_from_swap_cache
                0x00000000c050df10                delete_from_swap_cache
                0x00000000c050df60                show_swap_cache_info
                0x00000000c050dfe0                free_page_and_swap_cache
                0x00000000c050e030                free_pages_and_swap_cache
                0x00000000c050e130                get_swap_info_struct
                0x00000000c050e4d0                valid_swaphandles
                0x00000000c050e610                si_swapinfo
                0x00000000c050e670                count_swap_pages
                0x00000000c050e6e0                map_swap_page
                0x00000000c050e740                swapdev_block
                0x00000000c050e900                swapcache_prepare
                0x00000000c050e910                swap_duplicate
                0x00000000c050ea30                reuse_swap_page
                0x00000000c050eaf0                swap_type_of
                0x00000000c050ece0                swap_free
                0x00000000c050ed10                swapcache_free
                0x00000000c050ed70                swap_unplug_io_fn
                0x00000000c050ef10                sys_swapon
                0x00000000c050fb10                free_swap_and_cache
                0x00000000c050fc00                try_to_free_swap
                0x00000000c0510260                get_swap_page_of_type
                0x00000000c05102f0                get_swap_page
                0x00000000c05109f0                sys_swapoff
                0x00000000c05113f0                __put_swap_token
                0x00000000c0511420                grab_swap_token
                0x00000000c0511510                dma_pool_free
                0x00000000c05117c0                dma_pool_destroy
                0x00000000c0511960                dmam_pool_destroy
                0x00000000c05119c0                dma_pool_create
                0x00000000c0511bd0                dmam_pool_create
                0x00000000c0511c60                dma_pool_alloc
                0x00000000c0511f40                vma_kernel_pagesize
                0x00000000c0511f80                vma_mmu_pagesize
                0x00000000c0511fc0                size_to_hstate
                0x00000000c0512020                hugetlb_total_pages
                0x00000000c0512130                PageHuge
                0x00000000c0512200                reset_vma_resv_huge_pages
                0x00000000c0512820                hugetlb_report_node_meminfo
                0x00000000c0513030                hugetlb_unreserve_pages
                0x00000000c05131d0                hugetlb_change_protection
                0x00000000c0513360                __unmap_hugepage_range
                0x00000000c05135c0                unmap_hugepage_range
                0x00000000c0513620                copy_hugetlb_page_range
                0x00000000c05137c0                hugetlb_report_meminfo
                0x00000000c0513820                hugetlb_overcommit_handler
                0x00000000c05138c0                hugetlb_sysctl_handler
                0x00000000c0513950                hugetlb_treat_movable_handler
                0x00000000c0514400                hugetlb_fault
                0x00000000c0514a50                follow_hugetlb_page
                0x00000000c0514cf0                hugetlb_reserve_pages
                0x00000000c0514ec0                __section_nr
                0x00000000c0514f00                sparse_decode_mem_map
                0x00000000c0514f10                usemap_size
                0x00000000c0514f80                sparse_remove_one_section
                0x00000000c0515310                shmem_check_acl
                0x00000000c0515380                shmem_acl_init
                0x00000000c0515b90                __ksm_enter
                0x00000000c0515c80                ksm_madvise
                0x00000000c0515f40                __ksm_exit
                0x00000000c0516fb0                slab_buffer_size
                0x00000000c0516fc0                slab_is_available
                0x00000000c0517090                kmem_ptr_validate
                0x00000000c05170a0                kmem_cache_size
                0x00000000c05170b0                kmem_cache_name
                0x00000000c0517690                ksize
                0x00000000c0517710                kmem_cache_alloc
                0x00000000c0517e40                kmem_cache_alloc_notrace
                0x00000000c0517f70                __kmalloc
                0x00000000c0518160                __kmalloc_track_caller
                0x00000000c0518350                kmem_cache_free
                0x00000000c0518690                kfree
                0x00000000c0518c00                kmem_cache_shrink
                0x00000000c0518d40                kmem_cache_destroy
                0x00000000c05193b0                slabinfo_write
                0x00000000c05195f0                kmem_cache_create
                0x00000000c0519ab0                kmemcheck_slab_free
                0x00000000c0519ae0                kmemcheck_slab_alloc
                0x00000000c0519b40                kmemcheck_free_shadow
                0x00000000c0519be0                kmemcheck_alloc_shadow
                0x00000000c0519c70                kmemcheck_pagealloc_alloc
                0x00000000c0519cf0                should_failslab
                0x00000000c0519d20                remove_memory
                0x00000000c0519d30                online_pages
                0x00000000c0519e90                online_page
                0x00000000c0519fb0                __remove_pages
                0x00000000c051a0a0                register_page_bootmem_info_node
                0x00000000c051a280                put_page_bootmem
                0x00000000c051a2c0                xip_truncate_page
                0x00000000c051a530                xip_file_write
                0x00000000c051aa30                xip_file_mmap
                0x00000000c051aa70                xip_file_read
                0x00000000c051ac60                fail_migrate_page
                0x00000000c051ac70                putback_lru_pages
                0x00000000c051b060                migrate_page
                0x00000000c051b0b0                migrate_prep
                0x00000000c051b0c0                buffer_migrate_page
                0x00000000c051b240                migration_entry_wait
                0x00000000c051b810                migrate_pages
                0x00000000c051c480                free_percpu
                0x00000000c051d900                __alloc_reserved_percpu
                0x00000000c051d910                __alloc_percpu
                0x00000000c051d9d0                mem_cgroup_inactive_file_is_low
                0x00000000c051da50                mem_cgroup_zone_nr_pages
                0x00000000c051daa0                mem_cgroup_get_reclaim_stat
                0x00000000c051dd20                mem_cgroup_record_reclaim_priority
                0x00000000c051dd60                mem_cgroup_note_reclaim_priority
                0x00000000c051ddb0                mem_cgroup_get_reclaim_priority
                0x00000000c051ddf0                mem_cgroup_from_task
                0x00000000c051e190                mem_cgroup_inactive_anon_is_low
                0x00000000c051e300                mem_cgroup_get_reclaim_stat_from_page
                0x00000000c051e350                mem_cgroup_add_lru_list
                0x00000000c051e3d0                mem_cgroup_rotate_lru_list
                0x00000000c051e440                mem_cgroup_del_lru_list
                0x00000000c051e4d0                mem_cgroup_move_lists
                0x00000000c051e510                mem_cgroup_del_lru
                0x00000000c051e550                mem_cgroup_isolate_pages
                0x00000000c051e760                mem_cgroup_update_mapped_file_stat
                0x00000000c051eb50                mem_cgroup_uncharge_cache_page
                0x00000000c051eb80                mem_cgroup_uncharge_page
                0x00000000c051ebb0                mem_cgroup_end_migration
                0x00000000c051f200                mem_cgroup_cancel_charge_swapin
                0x00000000c051f270                mem_cgroup_uncharge_swapcache
                0x00000000c051f310                mem_cgroup_oom_called
                0x00000000c051f480                task_in_mem_cgroup
                0x00000000c051f540                mem_cgroup_uncharge_swap
                0x00000000c051ff90                mem_cgroup_prepare_migration
                0x00000000c05200d0                mem_cgroup_newpage_charge
                0x00000000c05206e0                mem_cgroup_force_empty_write
                0x00000000c0520700                mem_cgroup_soft_limit_reclaim
                0x00000000c0520b60                mem_cgroup_commit_charge_swapin
                0x00000000c0520b70                mem_cgroup_try_charge_swapin
                0x00000000c0520e40                mem_cgroup_shmem_charge_fallback
                0x00000000c0520ea0                mem_cgroup_cache_charge
                0x00000000c0521100                mem_cgroup_print_oom_info
                0x00000000c05212d0                lookup_page_cgroup
                0x00000000c0521310                swap_cgroup_swapoff
                0x00000000c05213a0                swap_cgroup_swapon
                0x00000000c05214e0                lookup_swap_cgroup
                0x00000000c0521510                swap_cgroup_record
                0x00000000c0521560                __free_page_cgroup
 *fill*         0x00000000c05215f8        0x8 9090
 .text          0x00000000c0521600    0x6a061 fs/built-in.o
                0x00000000c0521600                nonseekable_open
                0x00000000c0522d10                generic_file_open
                0x00000000c0522d70                sys_vhangup
                0x00000000c0522da0                fd_install
                0x00000000c0522e00                put_unused_fd
                0x00000000c0522e50                filp_close
                0x00000000c0522ec0                sys_close
                0x00000000c0522f80                do_sys_open
                0x00000000c0523090                sys_openat
                0x00000000c05230d0                sys_open
                0x00000000c0523110                sys_creat
                0x00000000c0523460                nameidata_to_filp
                0x00000000c05234d0                lookup_instantiate_filp
                0x00000000c05235f0                sys_fchown
                0x00000000c0523680                sys_fchmod
                0x00000000c0523780                sys_lchown
                0x00000000c0523800                sys_fchownat
                0x00000000c0523890                sys_chown
                0x00000000c0523910                sys_fchmodat
                0x00000000c05239e0                sys_chmod
                0x00000000c0523a10                sys_chroot
                0x00000000c0523ab0                sys_fchdir
                0x00000000c0523b30                sys_chdir
                0x00000000c0523bb0                sys_faccessat
                0x00000000c0523d40                sys_access
                0x00000000c0523d70                do_fallocate
                0x00000000c0523e90                sys_fallocate
                0x00000000c0523fa0                do_truncate
                0x00000000c0524110                sys_ftruncate64
                0x00000000c0524150                sys_ftruncate
                0x00000000c05242f0                sys_truncate64
                0x00000000c0524310                sys_truncate
                0x00000000c0524330                vfs_statfs
                0x00000000c05243f0                sys_fstatfs64
                0x00000000c0524480                sys_statfs64
                0x00000000c0524600                sys_fstatfs
                0x00000000c0524670                sys_statfs
                0x00000000c0524700                dentry_open
                0x00000000c05247c0                generic_file_llseek_unlocked
                0x00000000c0524880                no_llseek
                0x00000000c0524890                vfs_llseek
                0x00000000c05248e0                iov_shorten
                0x00000000c0524930                do_loop_readv_writev
                0x00000000c05253d0                do_sync_readv_writev
                0x00000000c05254c0                do_sync_write
                0x00000000c05255c0                do_sync_read
                0x00000000c05256c0                rw_verify_area
                0x00000000c0525790                vfs_write
                0x00000000c0525920                default_llseek
                0x00000000c0525a10                generic_file_llseek
                0x00000000c0525a70                rw_copy_check_uvector
                0x00000000c0525b60                sys_lseek
                0x00000000c0525e30                sys_sendfile64
                0x00000000c0525ee0                sys_sendfile
                0x00000000c0525f90                sys_llseek
                0x00000000c0526020                vfs_read
                0x00000000c05261b0                sys_read
                0x00000000c0526220                sys_write
                0x00000000c0526290                sys_pwrite64
                0x00000000c0526310                sys_pread64
                0x00000000c0526540                vfs_writev
                0x00000000c05265a0                sys_pwritev
                0x00000000c0526650                sys_writev
                0x00000000c05266f0                vfs_readv
                0x00000000c0526750                sys_preadv
                0x00000000c0526800                sys_readv
                0x00000000c05268a0                get_max_files
                0x00000000c05268b0                fs_may_remount_ro
                0x00000000c0526930                file_kill
                0x00000000c0526960                drop_file_write_access
                0x00000000c05269e0                file_move
                0x00000000c0526a30                fget_light
                0x00000000c0526b00                fget
                0x00000000c0526bc0                init_file
                0x00000000c0526c70                proc_nr_files
                0x00000000c0526cc0                get_empty_filp
                0x00000000c0526ef0                alloc_file
                0x00000000c0526fa0                mark_files_ro
                0x00000000c05270c0                __fput
                0x00000000c0527300                fput
                0x00000000c0527320                put_filp
                0x00000000c0527540                lock_super
                0x00000000c0527560                unlock_super
                0x00000000c0527580                set_anon_super
                0x00000000c0527690                emergency_remount
                0x00000000c0527750                do_remount_sb
                0x00000000c05278e0                __put_super_and_need_restart
                0x00000000c0527930                user_get_super
                0x00000000c05279d0                get_super
                0x00000000c0527a80                sync_supers
                0x00000000c0527b40                generic_shutdown_super
                0x00000000c0527c00                kill_block_super
                0x00000000c0527c40                kill_anon_super
                0x00000000c0527c90                kill_litter_super
                0x00000000c0527cb0                put_super
                0x00000000c0527de0                get_active_super
                0x00000000c0527ed0                drop_super
                0x00000000c0527ef0                sys_ustat
                0x00000000c0527f90                sget
                0x00000000c0528370                deactivate_locked_super
                0x00000000c0528410                vfs_kern_mount
                0x00000000c0528590                kern_mount_data
                0x00000000c05285b0                do_kern_mount
                0x00000000c0528680                get_sb_single
                0x00000000c0528720                get_sb_nodev
                0x00000000c05287b0                get_sb_bdev
                0x00000000c0528950                get_sb_ns
                0x00000000c05289d0                deactivate_super
                0x00000000c0528b00                cd_forget
                0x00000000c0528c90                cdev_init
                0x00000000c0528d00                cdev_index
                0x00000000c0528d30                cdev_put
                0x00000000c0528d50                cdev_del
                0x00000000c0528d70                cdev_add
                0x00000000c0528e50                __unregister_chrdev
                0x00000000c0528e80                unregister_chrdev_region
                0x00000000c0528ec0                chrdev_show
                0x00000000c0528f30                cdev_alloc
                0x00000000c0529380                __register_chrdev
                0x00000000c0529440                alloc_chrdev_region
                0x00000000c0529470                register_chrdev_region
                0x00000000c0529510                __inode_add_bytes
                0x00000000c0529580                inode_set_bytes
                0x00000000c052a1c0                inode_get_bytes
                0x00000000c052a220                inode_sub_bytes
                0x00000000c052a2b0                inode_add_bytes
                0x00000000c052a590                sys_readlinkat
                0x00000000c052a630                sys_readlink
                0x00000000c052a7b0                generic_fillattr
                0x00000000c052a860                vfs_getattr
                0x00000000c052a8d0                vfs_fstatat
                0x00000000c052a950                sys_fstatat64
                0x00000000c052a990                vfs_lstat
                0x00000000c052a9b0                sys_lstat64
                0x00000000c052a9e0                sys_newlstat
                0x00000000c052aa10                sys_lstat
                0x00000000c052aa40                vfs_stat
                0x00000000c052aa60                sys_stat64
                0x00000000c052aa90                sys_newstat
                0x00000000c052aac0                sys_stat
                0x00000000c052aaf0                vfs_fstat
                0x00000000c052ab40                sys_fstat64
                0x00000000c052ab70                sys_newfstat
                0x00000000c052aba0                sys_fstat
                0x00000000c052abd0                set_dumpable
                0x00000000c052ac30                get_dumpable
                0x00000000c052add0                set_binfmt
                0x00000000c052b0e0                copy_strings_kernel
                0x00000000c052b120                remove_arg_zero
                0x00000000c052b1c0                check_unsafe_exec
                0x00000000c052b2d0                install_exec_creds
                0x00000000c052b310                free_bprm
                0x00000000c052b350                prepare_bprm_creds
                0x00000000c052b3c0                set_task_comm
                0x00000000c052b420                setup_new_exec
                0x00000000c052b660                get_task_comm
                0x00000000c052b6b0                kernel_read
                0x00000000c052b700                prepare_binprm
                0x00000000c052b800                setup_arg_pages
                0x00000000c052bb00                bprm_mm_init
                0x00000000c052bc70                sys_uselib
                0x00000000c052be90                unregister_binfmt
                0x00000000c052bec0                __register_binfmt
                0x00000000c052bfc0                search_binary_handler
                0x00000000c052c2f0                flush_old_exec
                0x00000000c052c890                do_coredump
                0x00000000c052d3c0                open_exec
                0x00000000c052d4c0                do_execve
                0x00000000c052d790                generic_pipe_buf_confirm
                0x00000000c052dad0                generic_pipe_buf_get
                0x00000000c052db10                pipe_double_lock
                0x00000000c052db80                pipe_lock
                0x00000000c052de20                pipe_unlock
                0x00000000c052de40                generic_pipe_buf_map
                0x00000000c052de70                generic_pipe_buf_unmap
                0x00000000c052dee0                generic_pipe_buf_release
                0x00000000c052e000                create_read_pipe
                0x00000000c052e0d0                __free_pipe_info
                0x00000000c052e120                free_pipe_info
                0x00000000c052e250                free_write_pipe
                0x00000000c052e280                pipe_wait
                0x00000000c052ebd0                alloc_pipe_info
                0x00000000c052ec80                create_write_pipe
                0x00000000c052ee00                do_pipe_flags
                0x00000000c052ef10                sys_pipe2
                0x00000000c052ef70                sys_pipe
                0x00000000c052ef90                generic_pipe_buf_steal
                0x00000000c052fcf0                __page_symlink
                0x00000000c052fdf0                page_symlink
                0x00000000c052fe20                page_put_link
                0x00000000c052fea0                page_follow_link_light
                0x00000000c052fed0                path_get
                0x00000000c0530000                generic_permission
                0x00000000c05300a0                deny_write_access
                0x00000000c0530100                get_write_access
                0x00000000c0530150                unlock_rename
                0x00000000c05301a0                vfs_readlink
                0x00000000c0530210                page_readlink
                0x00000000c0530270                generic_readlink
                0x00000000c05303a0                dentry_unhash
                0x00000000c0530420                lock_rename
                0x00000000c05304f0                release_open_intent
                0x00000000c0530520                inode_permission
                0x00000000c05305d0                may_open
                0x00000000c0530810                file_permission
                0x00000000c0530820                putname
                0x00000000c0530860                getname
                0x00000000c0530c20                path_put
                0x00000000c0530c50                follow_up
                0x00000000c0530d30                follow_down
                0x00000000c0530dd0                vfs_mkdir
                0x00000000c0530ec0                vfs_link
                0x00000000c05310b0                vfs_symlink
                0x00000000c0531150                vfs_mknod
                0x00000000c0531240                vfs_create
                0x00000000c0531450                vfs_unlink
                0x00000000c0531520                vfs_rmdir
                0x00000000c05315f0                vfs_rename
                0x00000000c0531cb0                lookup_one_noperm
                0x00000000c0531d70                lookup_create
                0x00000000c0531e10                lookup_one_len
                0x00000000c0532b50                vfs_follow_link
                0x00000000c0532de0                vfs_path_lookup
                0x00000000c0532f30                kern_path
                0x00000000c0532f70                path_lookup
                0x00000000c0533000                sys_renameat
                0x00000000c0533220                sys_rename
                0x00000000c05333c0                sys_unlink
                0x00000000c05334c0                sys_unlinkat
                0x00000000c0533500                sys_rmdir
                0x00000000c0533520                sys_mkdirat
                0x00000000c0533620                sys_mkdir
                0x00000000c0533650                sys_mknodat
                0x00000000c0533870                sys_mknod
                0x00000000c05338a0                sys_symlinkat
                0x00000000c0533990                sys_symlink
                0x00000000c05339c0                user_path_at
                0x00000000c0533a30                sys_linkat
                0x00000000c0533b50                sys_link
                0x00000000c0533b90                do_filp_open
                0x00000000c0534500                filp_open
                0x00000000c0534a30                set_close_on_exec
                0x00000000c0534a90                fasync_helper
                0x00000000c0534c00                f_getown
                0x00000000c0534cf0                f_delown
                0x00000000c0534d10                __f_setown
                0x00000000c0534d60                sys_dup
                0x00000000c0534dc0                sys_dup3
                0x00000000c0534f00                sys_dup2
                0x00000000c0534f80                f_setown
                0x00000000c05354e0                sys_fcntl64
                0x00000000c05355a0                sys_fcntl
                0x00000000c0535780                send_sigio
                0x00000000c0535830                __kill_fasync
                0x00000000c0535890                kill_fasync
                0x00000000c05358e0                send_sigurg
                0x00000000c0535a50                fiemap_check_flags
                0x00000000c0535b80                fiemap_fill_next_extent
                0x00000000c0535d10                ioctl_preallocate
                0x00000000c0535df0                do_vfs_ioctl
                0x00000000c05363b0                sys_ioctl
                0x00000000c0536430                __generic_block_fiemap
                0x00000000c0536890                generic_block_fiemap
                0x00000000c0536ed0                vfs_readdir
                0x00000000c0536f80                sys_getdents64
                0x00000000c0537040                sys_getdents
                0x00000000c0537100                sys_old_readdir
                0x00000000c0537160                poll_initwait
                0x00000000c0537800                poll_select_set_timeout
                0x00000000c0537870                poll_schedule_timeout
                0x00000000c05378e0                poll_freewait
                0x00000000c0537950                do_select
                0x00000000c0538130                do_sys_poll
                0x00000000c05385b0                sys_ppoll
                0x00000000c05386e0                sys_poll
                0x00000000c0538800                core_sys_select
                0x00000000c0538ac0                sys_pselect6
                0x00000000c0538c70                sys_select
                0x00000000c0539140                d_ancestor
                0x00000000c0539260                d_genocide
                0x00000000c05392f0                dentry_path
                0x00000000c0539460                __d_path
                0x00000000c0539610                d_rehash
                0x00000000c0539660                have_submounts
                0x00000000c05397e0                d_find_alias
                0x00000000c0539830                dget_locked
                0x00000000c0539ee0                shrink_dcache_sb
                0x00000000c0539ef0                shrink_dcache_parent
                0x00000000c053a030                d_invalidate
                0x00000000c053a100                is_subdir
                0x00000000c053a1c0                d_path
                0x00000000c053a2a0                sys_getcwd
                0x00000000c053a3e0                dynamic_dname
                0x00000000c053a540                d_instantiate
                0x00000000c053a7d0                shrink_dcache_for_umount
                0x00000000c053a8e0                d_instantiate_unique
                0x00000000c053a960                __d_lookup
                0x00000000c053aab0                d_validate
                0x00000000c053abb0                dput
                0x00000000c053acd0                d_prune_aliases
                0x00000000c053adb0                d_alloc
                0x00000000c053af40                d_alloc_root
                0x00000000c053af90                d_alloc_name
                0x00000000c053aff0                d_obtain_alias
                0x00000000c053b110                d_lookup
                0x00000000c053b160                d_hash_and_lookup
                0x00000000c053b1e0                find_inode_number
                0x00000000c053b420                d_materialise_unique
                0x00000000c053b720                d_move
                0x00000000c053b760                d_splice_alias
                0x00000000c053b830                d_add_ci
                0x00000000c053b980                d_delete
                0x00000000c053ba70                bmap
                0x00000000c053bac0                inode_needs_sync
                0x00000000c053bb10                init_special_inode
                0x00000000c053bbc0                remove_inode_hash
                0x00000000c053bc00                __insert_inode_hash
                0x00000000c053bc60                __iget
                0x00000000c053bcc0                igrab
                0x00000000c053bd10                inode_wait
                0x00000000c053bd20                file_update_time
                0x00000000c053be30                touch_atime
                0x00000000c053bf50                iput
                0x00000000c053bfa0                generic_detach_inode
                0x00000000c053c230                iunique
                0x00000000c053c310                unlock_new_inode
                0x00000000c053c3d0                inode_init_once
                0x00000000c053c500                __destroy_inode
                0x00000000c053c590                destroy_inode
                0x00000000c053c5d0                inode_init_always
                0x00000000c053c870                clear_inode
                0x00000000c053cd00                invalidate_inodes
                0x00000000c053ce30                generic_delete_inode
                0x00000000c053cf90                generic_drop_inode
                0x00000000c053d050                insert_inode_locked4
                0x00000000c053d140                insert_inode_locked
                0x00000000c053d240                inode_add_to_lists
                0x00000000c053d2d0                new_inode
                0x00000000c053d400                ilookup5
                0x00000000c053d450                ilookup5_nowait
                0x00000000c053d540                ilookup
                0x00000000c053d580                iget_locked
                0x00000000c053d6c0                iget5_locked
                0x00000000c053d830                inode_change_ok
                0x00000000c053d9b0                inode_setattr
                0x00000000c053db10                notify_change
                0x00000000c053de40                inode_newsize_ok
                0x00000000c053e170                is_bad_inode
                0x00000000c053e190                make_bad_inode
                0x00000000c053e1e0                iget_failed
                0x00000000c053e260                free_fdtable_rcu
                0x00000000c053e4b0                dup_fd
                0x00000000c053e7f0                expand_files
                0x00000000c053ea30                alloc_fd
                0x00000000c053eb20                get_unused_fd
                0x00000000c053edd0                get_filesystem
                0x00000000c053ee50                unregister_filesystem
                0x00000000c053eec0                register_filesystem
                0x00000000c053ef50                put_filesystem
                0x00000000c053ef60                get_fs_type
                0x00000000c053f010                sys_sysfs
                0x00000000c053f200                __mnt_is_readonly
                0x00000000c053f220                mnt_want_write
                0x00000000c053f290                mnt_clone_write
                0x00000000c053f2d0                mnt_want_write_file
                0x00000000c053f350                mnt_drop_write
                0x00000000c053fcd0                may_umount_tree
                0x00000000c053fd60                mnt_unpin
                0x00000000c053fd90                mnt_pin
                0x00000000c053fdc0                mnt_set_mountpoint
                0x00000000c053fdf0                simple_set_mnt
                0x00000000c053ff30                copy_mount_options
                0x00000000c0540140                copy_mount_string
                0x00000000c0540180                may_umount
                0x00000000c05401c0                umount_tree
                0x00000000c0540300                replace_mount_options
                0x00000000c0540330                save_mount_options
                0x00000000c0540360                generic_show_options
                0x00000000c0540430                free_vfsmnt
                0x00000000c0540460                mntput_no_expire
                0x00000000c05404f0                release_mounts
                0x00000000c0540580                put_mnt_ns
                0x00000000c0540610                mark_mounts_for_expiry
                0x00000000c0540700                drop_collected_mounts
                0x00000000c0540760                sys_umount
                0x00000000c0540aa0                sys_oldumount
                0x00000000c0540ac0                mnt_release_group_id
                0x00000000c0540c20                alloc_vfsmnt
                0x00000000c0540f90                create_mnt_ns
                0x00000000c0540fd0                __lookup_mnt
                0x00000000c0541030                lookup_mnt
                0x00000000c05410d0                sys_pivot_root
                0x00000000c0541750                do_add_mount
                0x00000000c0541860                copy_tree
                0x00000000c0541a50                copy_mnt_ns
                0x00000000c0541c90                do_mount
                0x00000000c0542380                sys_mount
                0x00000000c0542420                collect_mounts
                0x00000000c0542480                seq_putc
                0x00000000c05424b0                seq_write
                0x00000000c0542510                seq_list_start
                0x00000000c0542550                seq_list_start_head
                0x00000000c0542590                seq_list_next
                0x00000000c05425b0                seq_puts
                0x00000000c0542610                seq_release
                0x00000000c0542630                seq_release_private
                0x00000000c0542680                single_release
                0x00000000c0542980                seq_bitmap_list
                0x00000000c05429d0                seq_bitmap
                0x00000000c0542a20                mangle_path
                0x00000000c0542ac0                seq_dentry
                0x00000000c0542b70                seq_path_root
                0x00000000c0542c50                seq_path
                0x00000000c0542d00                seq_escape
                0x00000000c0542df0                seq_printf
                0x00000000c0542e40                seq_lseek
                0x00000000c0542fc0                seq_open
                0x00000000c0543080                seq_read
                0x00000000c0543440                single_open
                0x00000000c0543530                __seq_open_private
                0x00000000c0543590                seq_open_private
                0x00000000c05435b0                generic_getxattr
                0x00000000c0543640                generic_listxattr
                0x00000000c0543710                generic_setxattr
                0x00000000c05437c0                generic_removexattr
                0x00000000c0544620                vfs_removexattr
                0x00000000c0544730                sys_lremovexattr
                0x00000000c05447b0                sys_removexattr
                0x00000000c0544830                vfs_listxattr
                0x00000000c05448a0                xattr_getsecurity
                0x00000000c0544940                vfs_getxattr
                0x00000000c0544b20                sys_lgetxattr
                0x00000000c0544b70                sys_getxattr
                0x00000000c0544bd0                sys_fremovexattr
                0x00000000c0544c70                sys_fgetxattr
                0x00000000c0544ce0                __vfs_setxattr_noperm
                0x00000000c0544e30                vfs_setxattr
                0x00000000c0544ff0                sys_fsetxattr
                0x00000000c0545090                sys_lsetxattr
                0x00000000c0545120                sys_setxattr
                0x00000000c0545270                sys_flistxattr
                0x00000000c05452d0                sys_llistxattr
                0x00000000c0545320                sys_listxattr
                0x00000000c0545370                simple_statfs
                0x00000000c05453a0                simple_sync_file
                0x00000000c05453b0                generic_read_dir
                0x00000000c05453c0                memory_read_from_buffer
                0x00000000c0545470                simple_fsync
                0x00000000c05454e0                generic_fh_to_parent
                0x00000000c0545540                generic_fh_to_dentry
                0x00000000c0545590                simple_attr_write
                0x00000000c0545650                simple_attr_release
                0x00000000c0545670                simple_transaction_set
                0x00000000c0545690                simple_transaction_release
                0x00000000c05456b0                simple_transaction_get
                0x00000000c0545770                simple_empty
                0x00000000c05457d0                simple_read_from_buffer
                0x00000000c0545880                simple_attr_read
                0x00000000c0545940                simple_transaction_read
                0x00000000c0545980                simple_release_fs
                0x00000000c05459e0                simple_pin_fs
                0x00000000c0545a90                simple_unlink
                0x00000000c0545ae0                simple_rename
                0x00000000c0545b90                simple_rmdir
                0x00000000c0545be0                dcache_dir_close
                0x00000000c0545c00                simple_link
                0x00000000c0545c70                simple_fill_super
                0x00000000c0545e00                simple_lookup
                0x00000000c0545e40                simple_prepare_write
                0x00000000c0545f00                simple_readpage
                0x00000000c0545f60                simple_write_end
                0x00000000c0546040                simple_write_begin
                0x00000000c05460a0                dcache_dir_open
                0x00000000c05460d0                get_sb_pseudo
                0x00000000c05461e0                dcache_readdir
                0x00000000c05463e0                dcache_dir_lseek
                0x00000000c0546560                simple_getattr
                0x00000000c05465a0                simple_attr_open
                0x00000000c0546680                writeback_in_progress
                0x00000000c0546b20                bdi_start_writeback
                0x00000000c0546b60                writeback_inodes_sb
                0x00000000c0546ba0                writeback_inodes_sb_if_idle
                0x00000000c0546bd0                wakeup_flusher_threads
                0x00000000c0546d10                sync_inodes_sb
                0x00000000c0546e60                __mark_inode_dirty
                0x00000000c0547250                sync_inode
                0x00000000c0547290                write_inode_now
                0x00000000c0547980                wb_do_writeback
                0x00000000c0547b20                bdi_writeback_task
                0x00000000c0547bd0                writeback_inodes_wbc
                0x00000000c0547bf0                propagate_mount_busy
                0x00000000c0547cf0                propagate_umount
                0x00000000c0547df0                get_dominating_id
                0x00000000c0547e90                propagate_mnt
                0x00000000c05480a0                change_mnt_propagation
                0x00000000c0548270                drop_caches_sysctl_handler
                0x00000000c0548490                splice_from_pipe_feed
                0x00000000c0548590                splice_from_pipe_begin
                0x00000000c0548a60                splice_from_pipe_end
                0x00000000c0548a80                splice_from_pipe_next
                0x00000000c0548b30                __splice_from_pipe
                0x00000000c0548b90                splice_from_pipe
                0x00000000c0548c50                generic_splice_sendpage
                0x00000000c0548f80                splice_direct_to_actor
                0x00000000c0549150                do_splice_direct
                0x00000000c05491d0                generic_file_splice_write
                0x00000000c0549320                pipe_to_file
                0x00000000c0549470                splice_to_pipe
                0x00000000c05498c0                default_file_splice_read
                0x00000000c0549c10                sys_splice
                0x00000000c054a0b0                sys_vmsplice
                0x00000000c054a270                sys_tee
                0x00000000c054aa10                generic_file_splice_read
                0x00000000c054aec0                do_sync_mapping_range
                0x00000000c054af90                sys_sync_file_range
                0x00000000c054b0c0                sys_sync_file_range2
                0x00000000c054b100                vfs_fsync_range
                0x00000000c054b1d0                generic_write_sync
                0x00000000c054b260                vfs_fsync
                0x00000000c054b2e0                sys_fdatasync
                0x00000000c054b300                sys_fsync
                0x00000000c054b310                file_fsync
                0x00000000c054b520                sys_sync
                0x00000000c054b560                sync_filesystem
                0x00000000c054b5b0                emergency_sync
                0x00000000c054bbe0                do_utimes
                0x00000000c054bcb0                sys_futimesat
                0x00000000c054bd30                sys_utimes
                0x00000000c054bd60                sys_utimensat
                0x00000000c054bdc0                sys_utime
                0x00000000c054be40                fsstack_copy_attr_all
                0x00000000c054bee0                fsstack_copy_inode_size
                0x00000000c054bf30                current_umask
                0x00000000c054bf50                copy_fs_struct
                0x00000000c054bff0                chroot_fs_refs
                0x00000000c054c130                set_fs_pwd
                0x00000000c054c190                set_fs_root
                0x00000000c054c1f0                free_fs_struct
                0x00000000c054c220                daemonize_fs_struct
                0x00000000c054c2c0                unshare_fs_struct
                0x00000000c054c360                exit_fs
                0x00000000c054c3e0                init_buffer
                0x00000000c054c3f0                mark_buffer_async_write
                0x00000000c054c410                inode_has_buffers
                0x00000000c054c430                generic_block_bmap
                0x00000000c054c5b0                block_is_partially_uptodate
                0x00000000c054c700                free_buffer_head
                0x00000000c054c790                alloc_buffer_head
                0x00000000c054c7d0                sys_bdflush
                0x00000000c054c840                remove_inode_buffers
                0x00000000c054c8c0                invalidate_inode_buffers
                0x00000000c054ca50                try_to_free_buffers
                0x00000000c054caf0                submit_bh
                0x00000000c054cd20                generic_cont_expand_simple
                0x00000000c054cf60                set_bh_page
                0x00000000c054cfd0                invalidate_bh_lrus
                0x00000000c054d050                alloc_page_buffers
                0x00000000c054d110                create_empty_buffers
                0x00000000c054d1d0                __brelse
                0x00000000c054d2d0                __find_get_block
                0x00000000c054d4a0                __getblk
                0x00000000c054d820                __bforget
                0x00000000c054d940                mark_buffer_dirty
                0x00000000c054da70                block_commit_write
                0x00000000c054da90                mark_buffer_dirty_inode
                0x00000000c054dc40                invalidate_bdev
                0x00000000c054dc70                __wait_on_buffer
                0x00000000c054dce0                unlock_buffer
                0x00000000c054dd30                end_buffer_read_sync
                0x00000000c054dd60                end_buffer_write_sync
                0x00000000c054de00                __lock_buffer
                0x00000000c054de70                emergency_thaw_all
                0x00000000c054df30                block_sync_page
                0x00000000c054df80                __set_page_dirty_buffers
                0x00000000c054e1d0                end_buffer_async_write
                0x00000000c054e3a0                ll_rw_block
                0x00000000c054e4d0                __breadahead
                0x00000000c054e510                write_boundary_block
                0x00000000c054e560                block_invalidatepage
                0x00000000c054e640                sync_mapping_buffers
                0x00000000c054e8d0                unmap_underlying_metadata
                0x00000000c054ed10                bh_submit_read
                0x00000000c054ed90                sync_dirty_buffer
                0x00000000c054ee80                bh_uptodate_or_lock
                0x00000000c054eee0                __bread
                0x00000000c054efa0                block_read_full_page
                0x00000000c054f2e0                block_write_full_page_endio
                0x00000000c054f400                block_write_full_page
                0x00000000c054f420                nobh_writepage
                0x00000000c054f520                page_zero_new_buffers
                0x00000000c054f610                block_write_end
                0x00000000c054f690                generic_write_end
                0x00000000c054f750                nobh_write_end
                0x00000000c054fc00                block_prepare_write
                0x00000000c054fc40                block_page_mkwrite
                0x00000000c054fd60                block_write_begin
                0x00000000c054fe50                cont_write_begin
                0x00000000c0550140                nobh_write_begin
                0x00000000c0550520                block_truncate_page
                0x00000000c0550750                nobh_truncate_page
                0x00000000c0550950                bvec_nr_vecs
                0x00000000c0550970                bio_init
                0x00000000c05509a0                __bio_clone
                0x00000000c0550a10                bio_get_nr_vecs
                0x00000000c0550a50                bio_endio
                0x00000000c0550a80                bio_sector_offset
                0x00000000c0550bd0                bio_put
                0x00000000c0550c20                bio_kmalloc
                0x00000000c0550cc0                bioset_free
                0x00000000c0550da0                bio_split
                0x00000000c0550f50                bio_pair_release
                0x00000000c0550fd0                bio_check_pages_dirty
                0x00000000c0551080                bio_set_pages_dirty
                0x00000000c0551160                bio_unmap_user
                0x00000000c05513c0                bio_uncopy_user
                0x00000000c0551670                bio_add_page
                0x00000000c05516c0                bio_add_pc_page
                0x00000000c05516f0                bio_map_kern
                0x00000000c0551810                bio_map_user_iov
                0x00000000c0551a70                bio_map_user
                0x00000000c0551ab0                bio_phys_segments
                0x00000000c0551b00                bvec_alloc_bs
                0x00000000c0551bd0                bio_alloc_bioset
                0x00000000c0551cb0                bio_clone
                0x00000000c0551d30                bio_alloc
                0x00000000c0551d50                bvec_free_bs
                0x00000000c0551d90                bio_free
                0x00000000c0551df0                zero_fill_bio
                0x00000000c0551ee0                bio_copy_user_iov
                0x00000000c05522f0                bio_copy_user
                0x00000000c0552330                bio_copy_kern
                0x00000000c05523e0                bioset_create
                0x00000000c0552690                I_BDEV
                0x00000000c05526d0                bdgrab
                0x00000000c05526e0                bd_set_size
                0x00000000c0552790                bd_release
                0x00000000c05527e0                bd_claim
                0x00000000c0552860                nr_blockdev_pages
                0x00000000c05529c0                ioctl_by_bdev
                0x00000000c0552d10                __invalidate_device
                0x00000000c0552d60                blkdev_aio_write
                0x00000000c0552ee0                check_disk_change
                0x00000000c0552f50                check_disk_size_change
                0x00000000c0553030                bd_release_from_disk
                0x00000000c0553120                bd_forget
                0x00000000c05531f0                bdput
                0x00000000c0553200                revalidate_disk
                0x00000000c0553270                bdget
                0x00000000c0553430                lookup_bdev
                0x00000000c0553760                thaw_bdev
                0x00000000c0553850                __sync_blockdev
                0x00000000c0553880                sync_blockdev
                0x00000000c05539f0                blkdev_put
                0x00000000c0553a50                close_bdev_exclusive
                0x00000000c0553de0                blkdev_get
                0x00000000c0553ea0                open_bdev_exclusive
                0x00000000c0553f30                open_by_devnum
                0x00000000c0553f80                block_fsync
                0x00000000c0553fa0                freeze_bdev
                0x00000000c05540d0                fsync_bdev
                0x00000000c0554120                set_blocksize
                0x00000000c05541b0                sb_set_blocksize
                0x00000000c0554200                sb_min_blocksize
                0x00000000c0554240                bd_claim_by_disk
                0x00000000c0554e50                __blockdev_direct_IO
                0x00000000c0555e30                mpage_writepages
                0x00000000c05565e0                mpage_readpage
                0x00000000c0556640                mpage_readpages
                0x00000000c0556dc0                mpage_writepage
                0x00000000c0556e10                ioprio_best
                0x00000000c0557070                sys_ioprio_get
                0x00000000c0557380                set_task_ioprio
                0x00000000c05574a0                sys_ioprio_set
                0x00000000c05576d0                bio_integrity_enabled
                0x00000000c0557730                bio_integrity_mark_head
                0x00000000c0557790                bio_integrity_mark_tail
                0x00000000c05577f0                bioset_integrity_free
                0x00000000c0557810                bioset_integrity_create
                0x00000000c0557850                bio_integrity_split
                0x00000000c05579b0                bio_integrity_trim
                0x00000000c0557a90                bio_integrity_advance
                0x00000000c0557af0                bio_integrity_tag_size
                0x00000000c0557b20                bio_integrity_endio
                0x00000000c0557cd0                bio_integrity_tag
                0x00000000c0557da0                bio_integrity_get_tag
                0x00000000c0557dc0                bio_integrity_set_tag
                0x00000000c0557de0                bio_integrity_add_page
                0x00000000c0557e60                bio_integrity_free
                0x00000000c0557ee0                bio_integrity_alloc_bioset
                0x00000000c0557fb0                bio_integrity_clone
                0x00000000c0558040                bio_integrity_alloc
                0x00000000c0558060                bio_integrity_prep
                0x00000000c0558300                fsnotify
                0x00000000c0558420                __fsnotify_update_child_dentry_flags
                0x00000000c0558530                __fsnotify_parent
                0x00000000c0558620                __fsnotify_inode_delete
                0x00000000c0558630                fsnotify_get_cookie
                0x00000000c0558650                fsnotify_get_event
                0x00000000c05586d0                fsnotify_alloc_event_holder
                0x00000000c05586f0                fsnotify_destroy_event_holder
                0x00000000c0558710                fsnotify_create_event
                0x00000000c0558800                fsnotify_peek_notify_event
                0x00000000c0558820                fsnotify_remove_notify_event
                0x00000000c05588a0                fsnotify_notify_queue_is_empty
                0x00000000c05588c0                fsnotify_add_notify_event
                0x00000000c0558b00                fsnotify_remove_priv_from_event
                0x00000000c0558b70                fsnotify_put_event
                0x00000000c0558bd0                fsnotify_flush_notify
                0x00000000c0558c70                fsnotify_evict_group
                0x00000000c0558cc0                fsnotify_final_destroy_group
                0x00000000c0558cf0                fsnotify_recalc_global_mask
                0x00000000c0558d50                fsnotify_put_group
                0x00000000c0558de0                fsnotify_recalc_group_mask
                0x00000000c0558e50                fsnotify_obtain_group
                0x00000000c0559040                fsnotify_get_mark
                0x00000000c0559050                fsnotify_put_mark
                0x00000000c0559080                fsnotify_unmount_inodes
                0x00000000c0559190                fsnotify_find_mark_entry
                0x00000000c05591f0                fsnotify_recalc_inode_mask
                0x00000000c0559250                fsnotify_add_mark
                0x00000000c05593a0                fsnotify_init_mark
                0x00000000c0559400                fsnotify_destroy_mark_by_entry
                0x00000000c0559570                fsnotify_clear_marks_by_inode
                0x00000000c0559620                fsnotify_clear_marks_by_group
                0x00000000c05598a0                dnotify_flush
                0x00000000c05599a0                fcntl_dirnotify
                0x00000000c0559ce0                get_inotify_watch
                0x00000000c0559cf0                inotify_d_move
                0x00000000c0559d20                inotify_get_cookie
                0x00000000c0559d40                inotify_init_watch
                0x00000000c0559d60                inotify_find_update_watch
                0x00000000c0559e20                inotify_find_watch
                0x00000000c0559f80                inotify_d_instantiate
                0x00000000c0559fd0                pin_inotify_watch
                0x00000000c055a1a0                inotify_clone_watch
                0x00000000c055a230                inotify_add_watch
                0x00000000c055a370                inotify_inode_queue_event
                0x00000000c055a450                inotify_remove_watch_locked
                0x00000000c055a4a0                inotify_evict_watch
                0x00000000c055a4d0                inotify_inode_is_dead
                0x00000000c055a560                put_inotify_watch
                0x00000000c055a630                inotify_rm_wd
                0x00000000c055a6f0                inotify_rm_watch
                0x00000000c055a700                unpin_inotify_watch
                0x00000000c055a720                inotify_unmount_inodes
                0x00000000c055a8d0                inotify_dentry_parent_queue_event
                0x00000000c055a990                inotify_init
                0x00000000c055aa80                inotify_destroy
                0x00000000c055ac90                inotify_free_event_priv
                0x00000000c055b5a0                sys_inotify_rm_watch
                0x00000000c055b6f0                sys_inotify_add_watch
                0x00000000c055ba00                sys_inotify_init1
                0x00000000c055bba0                sys_inotify_init
                0x00000000c055bbc0                inotify_ignored_and_remove_idr
                0x00000000c055c420                eventpoll_release_file
                0x00000000c055c900                sys_epoll_wait
                0x00000000c055cb90                sys_epoll_pwait
                0x00000000c055cd70                sys_epoll_ctl
                0x00000000c055d1e0                sys_epoll_create1
                0x00000000c055d350                sys_epoll_create
                0x00000000c055d3c0                anon_inode_getfile
                0x00000000c055d550                anon_inode_getfd
                0x00000000c055de10                sys_signalfd4
                0x00000000c055dfd0                sys_signalfd
                0x00000000c055e3f0                sys_timerfd_settime
                0x00000000c055e630                sys_timerfd_create
                0x00000000c055e730                sys_timerfd_gettime
                0x00000000c055ed50                eventfd_signal
                0x00000000c055f210                eventfd_fget
                0x00000000c055f240                eventfd_ctx_put
                0x00000000c055f290                eventfd_ctx_get
                0x00000000c055f2a0                eventfd_ctx_fileget
                0x00000000c055f2d0                eventfd_ctx_fdget
                0x00000000c055f310                eventfd_file_create
                0x00000000c055f420                sys_eventfd2
                0x00000000c055f480                sys_eventfd
                0x00000000c055fc30                wait_on_sync_kiocb
                0x00000000c055fec0                aio_put_req
                0x00000000c0560190                sys_io_cancel
                0x00000000c05605d0                sys_io_destroy
                0x00000000c0560620                exit_aio
                0x00000000c05606d0                sys_io_setup
                0x00000000c0560b50                aio_complete
                0x00000000c0561270                sys_io_getevents
                0x00000000c0561390                kick_iocb
                0x00000000c05615b0                sys_io_submit
                0x00000000c0561be0                locks_release_private
                0x00000000c0561c70                __locks_copy_lock
                0x00000000c0561cc0                locks_copy_lock
                0x00000000c0561e40                vfs_cancel_lock
                0x00000000c0562350                lock_may_write
                0x00000000c0562400                lock_may_read
                0x00000000c05624d0                posix_unblock_lock
                0x00000000c0562580                locks_mandatory_locked
                0x00000000c05625e0                posix_test_lock
                0x00000000c05626a0                vfs_test_lock
                0x00000000c0562b40                lease_modify
                0x00000000c0562bf0                fcntl_getlease
                0x00000000c0562c50                locks_remove_flock
                0x00000000c0562d70                fcntl_getlk64
                0x00000000c0562f00                fcntl_getlk
                0x00000000c0563120                flock_lock_file_wait
                0x00000000c05633f0                sys_flock
                0x00000000c0563a60                posix_lock_file
                0x00000000c0563a70                vfs_lock_file
                0x00000000c0563ac0                locks_remove_posix
                0x00000000c0563c30                fcntl_setlk64
                0x00000000c0563de0                fcntl_setlk
                0x00000000c0563f90                posix_lock_file_wait
                0x00000000c05640b0                generic_setlease
                0x00000000c05642d0                vfs_setlease
                0x00000000c0564330                lease_get_mtime
                0x00000000c0564370                __break_lease
                0x00000000c0564670                locks_init_lock
                0x00000000c0564710                fcntl_setlease
                0x00000000c0564850                locks_mandatory_area
                0x00000000c0564ac0                sys_nfsservctl
                0x00000000c0568930                posix_acl_valid
                0x00000000c0568a40                posix_acl_equiv_mode
                0x00000000c0568ae0                posix_acl_create_masq
                0x00000000c0568bd0                posix_acl_chmod_masq
                0x00000000c0568cb0                posix_acl_permission
                0x00000000c0568de0                posix_acl_clone
                0x00000000c0568e10                posix_acl_alloc
                0x00000000c0568e40                posix_acl_from_mode
                0x00000000c0568eb0                posix_acl_to_xattr
                0x00000000c0568f20                posix_acl_from_xattr
                0x00000000c0569060                generic_acl_chmod
                0x00000000c0569110                generic_acl_set
                0x00000000c0569260                generic_acl_get
                0x00000000c05692c0                generic_acl_list
                0x00000000c0569360                generic_acl_init
                0x00000000c05694a0                mark_info_dirty
                0x00000000c05694c0                vfs_dq_drop
                0x00000000c0569510                vfs_dq_quota_on_remount
                0x00000000c05695a0                unregister_quota_format
                0x00000000c0569600                register_quota_format
                0x00000000c0569700                vfs_get_dqinfo
                0x00000000c05697d0                dquot_commit_info
                0x00000000c0569820                dquot_commit
                0x00000000c0569900                dquot_release
                0x00000000c05699d0                dquot_acquire
                0x00000000c0569ae0                vfs_set_dqinfo
                0x00000000c0569c60                inode_sub_rsv_space
                0x00000000c0569cb0                inode_add_rsv_space
                0x00000000c0569d00                vfs_dq_transfer
                0x00000000c0569dc0                dquot_mark_dquot_dirty
                0x00000000c056a610                dquot_free_inode
                0x00000000c056a8a0                dquot_alloc_inode
                0x00000000c056aa20                __dquot_free_space
                0x00000000c056adb0                dquot_release_reserved_space
                0x00000000c056add0                dquot_free_space
                0x00000000c056ae10                __dquot_alloc_space
                0x00000000c056b040                dquot_reserve_space
                0x00000000c056b060                dquot_alloc_space
                0x00000000c056b080                inode_claim_rsv_space
                0x00000000c056b0d0                dquot_claim_space
                0x00000000c056b260                dquot_alloc
                0x00000000c056b280                dqput
                0x00000000c056b4a0                vfs_quota_disable
                0x00000000c056baf0                vfs_quota_off
                0x00000000c056bb10                dquot_drop
                0x00000000c056bb90                dqget
                0x00000000c056bea0                vfs_set_dqblk
                0x00000000c056c220                vfs_get_dqblk
                0x00000000c056c330                dquot_initialize
                0x00000000c056c480                vfs_quota_sync
                0x00000000c056c640                dquot_scan_active
                0x00000000c056c720                dquot_destroy
                0x00000000c056cd30                vfs_quota_on_mount
                0x00000000c056ceb0                vfs_quota_enable
                0x00000000c056cff0                vfs_quota_on_path
                0x00000000c056d050                vfs_quota_on
                0x00000000c056d0e0                dquot_transfer
                0x00000000c056dd80                qtree_entry_unused
                0x00000000c056e090                qtree_read_dquot
                0x00000000c056e780                qtree_delete_dquot
                0x00000000c056e7c0                qtree_release_dquot
                0x00000000c056ec40                qtree_write_dquot
                0x00000000c056ee70                sync_quota_sb
                0x00000000c056f430                sys_quotactl
                0x00000000c056f730                get_vmalloc_info
                0x00000000c056f820                task_vsize
                0x00000000c056f830                task_statm
                0x00000000c05703a0                task_mem
                0x00000000c0570af0                de_get
                0x00000000c0570ba0                pde_users_dec
                0x00000000c05710e0                de_put
                0x00000000c0571180                proc_get_inode
                0x00000000c0571250                proc_fill_super
                0x00000000c0571550                pid_ns_release_proc
                0x00000000c05715e0                pid_ns_prepare_proc
                0x00000000c0571770                mem_lseek
                0x00000000c05717b0                added_exe_file_vma
                0x00000000c05725f0                set_mm_exe_file
                0x00000000c0572640                removed_exe_file_vma
                0x00000000c0572980                get_mm_exe_file
                0x00000000c05729c0                dup_mm_exe_file
                0x00000000c05729e0                mm_for_maps
                0x00000000c0574670                proc_pid_lookup
                0x00000000c0574bf0                proc_pid_readdir
                0x00000000c0575410                proc_flush_task
                0x00000000c0575e00                free_proc_entry
                0x00000000c0575e80                remove_proc_entry
                0x00000000c0576660                proc_readdir_de
                0x00000000c0576830                proc_readdir
                0x00000000c0576860                proc_lookup_de
                0x00000000c0576940                proc_lookup
                0x00000000c0576a70                proc_create_data
                0x00000000c0576b20                create_proc_entry
                0x00000000c0576bc0                proc_net_mkdir
                0x00000000c0576c20                proc_mkdir_mode
                0x00000000c0576c70                proc_mkdir
                0x00000000c0576c90                proc_symlink
                0x00000000c0576d30                proc_pid_statm
                0x00000000c05776b0                proc_tgid_stat
                0x00000000c05776d0                proc_tid_stat
                0x00000000c05776f0                proc_pid_status
                0x00000000c0578170                proc_tty_register_driver
                0x00000000c05781c0                proc_tty_unregister_driver
                0x00000000c0579fe0                proc_net_remove
                0x00000000c057a020                proc_net_fops_create
                0x00000000c057a050                seq_open_net
                0x00000000c057a1e0                seq_release_net
                0x00000000c057a220                single_release_net
                0x00000000c057a3c0                single_open_net
                0x00000000c057a820                kclist_add
                0x00000000c057b9d0                part_fail_show
                0x00000000c057ba00                part_inflight_show
                0x00000000c057ba30                part_alignment_offset_show
                0x00000000c057ba60                part_size_show
                0x00000000c057bab0                read_dev_sector
                0x00000000c057bb40                register_disk
                0x00000000c057bc70                add_partition
                0x00000000c057bf60                delete_partition
                0x00000000c057bfd0                part_fail_store
                0x00000000c057c030                __bdevname
                0x00000000c057c070                disk_name
                0x00000000c057c140                bdevname
                0x00000000c057c160                rescan_partitions
                0x00000000c057c6b0                del_gendisk
                0x00000000c057c7f0                part_stat_show
                0x00000000c057ce00                amiga_partition
                0x00000000c057d1f0                mac_partition
                0x00000000c057d790                msdos_partition
                0x00000000c057e1f0                osf_partition
                0x00000000c057e300                sgi_partition
                0x00000000c057e450                sun_partition
                0x00000000c057f220                efi_partition
                0x00000000c057f610                karma_partition
                0x00000000c057f6f0                sysfs_hash_and_remove
                0x00000000c057f770                sysfs_delete_inode
                0x00000000c057f7c0                sysfs_get_inode
                0x00000000c057f990                sysfs_init_inode_attrs
                0x00000000c057fa50                sysfs_setxattr
                0x00000000c057fb30                sysfs_setattr
                0x00000000c057fec0                sysfs_printk_last_file
                0x00000000c0580070                sysfs_schedule_callback
                0x00000000c0580320                sysfs_remove_file
                0x00000000c0580330                sysfs_add_file_mode
                0x00000000c05803c0                sysfs_add_file
                0x00000000c05803e0                sysfs_create_file
                0x00000000c0580410                sysfs_notify_dirent
                0x00000000c0580470                sysfs_notify
                0x00000000c0580500                sysfs_chmod_file
                0x00000000c0580720                sysfs_remove_file_from_group
                0x00000000c05807b0                sysfs_add_file_to_group
                0x00000000c0580d70                sysfs_remove_one
                0x00000000c0580e00                sysfs_find_dirent
                0x00000000c0580e70                sysfs_addrm_start
                0x00000000c0580f20                sysfs_new_dirent
                0x00000000c0581050                sysfs_put_active_two
                0x00000000c0581070                sysfs_get_active_two
                0x00000000c0581120                sysfs_get_dentry
                0x00000000c05811b0                sysfs_rename_dir
                0x00000000c0581310                release_sysfs_dirent
                0x00000000c05813e0                sysfs_move_dir
                0x00000000c0581680                sysfs_addrm_finish
                0x00000000c05818d0                sysfs_remove_subdir
                0x00000000c05818e0                sysfs_remove_dir
                0x00000000c05819c0                sysfs_get_dirent
                0x00000000c0581ac0                __sysfs_add_one
                0x00000000c0581b90                sysfs_add_one
                0x00000000c0581d30                sysfs_create_dir
                0x00000000c0581d70                sysfs_create_subdir
                0x00000000c0581f40                sysfs_remove_link
                0x00000000c05820b0                sysfs_create_link_nowarn
                0x00000000c05820d0                sysfs_create_link
                0x00000000c05820f0                sysfs_put
                0x00000000c0582120                sysfs_get
                0x00000000c05829c0                sysfs_remove_bin_file
                0x00000000c05829d0                sysfs_create_bin_file
                0x00000000c0582a00                unmap_bin_file
                0x00000000c0582c90                sysfs_remove_group
                0x00000000c0582ed0                sysfs_update_group
                0x00000000c0582ef0                sysfs_create_group
                0x00000000c0583160                devpts_get_tty
                0x00000000c05831b0                devpts_pty_kill
                0x00000000c0583250                devpts_pty_new
                0x00000000c0583470                devpts_kill_index
                0x00000000c05834d0                devpts_new_index
                0x00000000c05838d0                dcookie_unregister
                0x00000000c05839c0                get_dcookie
                0x00000000c0583ac0                sys_lookup_dcookie
                0x00000000c0583c20                dcookie_register
                0x00000000c0583e30                ramfs_get_sb
                0x00000000c0583e50                ramfs_get_inode
                0x00000000c0584440                hugetlb_put_quota
                0x00000000c0584490                hugetlb_get_quota
                0x00000000c0584d60                hugetlb_file_setup
                0x00000000c05856b0                isofs_lookup
                0x00000000c0586050                isofs_iget
                0x00000000c05874d0                isofs_get_blocks
                0x00000000c0587870                isofs_bread
                0x00000000c05878e0                isofs_name_translate
                0x00000000c05879a0                get_acorn_filename
                0x00000000c0587f60                iso_date
                0x00000000c0588d70                parse_rock_ridge_inode
                0x00000000c0588dd0                get_rock_ridge_filename
                0x00000000c05892e0                get_joliet_filename
                0x00000000c0589400                zisofs_cleanup
                0x00000000c0589c70                utf8_to_utf32
                0x00000000c0589d30                utf32_to_utf8
                0x00000000c0589e00                utf8s_to_utf16s
                0x00000000c0589f20                unload_nls
                0x00000000c0589f40                unregister_nls
                0x00000000c0589fa0                register_nls
                0x00000000c058a100                load_nls
                0x00000000c058a140                load_nls_default
                0x00000000c058a160                utf16s_to_utf8s
                0x00000000c058a370                debugfs_initialized
                0x00000000c058a450                debugfs_remove_recursive
                0x00000000c058a590                debugfs_remove
                0x00000000c058a720                debugfs_rename
                0x00000000c058a9a0                debugfs_create_file
                0x00000000c058ac90                debugfs_create_symlink
                0x00000000c058ad00                debugfs_create_dir
                0x00000000c058ae80                debugfs_create_blob
                0x00000000c058aeb0                debugfs_create_bool
                0x00000000c058aee0                debugfs_create_size_t
                0x00000000c058af10                debugfs_create_x32
                0x00000000c058af70                debugfs_create_x16
                0x00000000c058afd0                debugfs_create_x8
                0x00000000c058b030                debugfs_create_u64
                0x00000000c058b090                debugfs_create_u32
                0x00000000c058b0f0                debugfs_create_u16
                0x00000000c058b150                debugfs_create_u8
 *fill*         0x00000000c058b661        0xf 9090
 .text          0x00000000c058b670     0x88fb ipc/built-in.o
                0x00000000c058b670                ipc_rcu_getref
                0x00000000c058b680                kernel_to_ipc64_perm
                0x00000000c058b6c0                ipc64_perm_to_ipc_perm
                0x00000000c058b740                ipc_update_perm
                0x00000000c058b770                ipc_parse_version
                0x00000000c058b7e0                ipc_get_maxid
                0x00000000c058b980                ipcperms
                0x00000000c058ba50                ipc_rcu_putref
                0x00000000c058bb10                ipc_free
                0x00000000c058bb40                ipc_rmid
                0x00000000c058bc80                ipc_init_ids
                0x00000000c058bcc0                ipc_lock
                0x00000000c058be70                ipc_addid
                0x00000000c058bfa0                ipcget
                0x00000000c058c1b0                ipc_alloc
                0x00000000c058c1e0                ipc_rcu_alloc
                0x00000000c058c2f0                ipc_lock_check
                0x00000000c058c340                ipcctl_pre_down
                0x00000000c058c440                free_msg
                0x00000000c058c480                store_msg
                0x00000000c058c520                load_msg
                0x00000000c058caf0                do_msgsnd
                0x00000000c058cdf0                sys_msgsnd
                0x00000000c058cfb0                sys_msgget
                0x00000000c058d0a0                msg_exit_ns
                0x00000000c058d0d0                recompute_msgmni
                0x00000000c058d160                msg_init_ns
                0x00000000c058d430                sys_msgctl
                0x00000000c058d7c0                do_msgrcv
                0x00000000c058dbd0                sys_msgrcv
                0x00000000c058e290                sys_semget
                0x00000000c058e370                sem_exit_ns
                0x00000000c058e390                sem_init_ns
                0x00000000c058e580                copy_semundo
                0x00000000c058ee10                exit_sem
                0x00000000c058f260                sys_semctl
                0x00000000c058f3e0                sys_semtimedop
                0x00000000c058fbb0                sys_semop
                0x00000000c058fc80                is_file_shm_hugepages
                0x00000000c05900b0                sys_shmdt
                0x00000000c05902d0                sys_shmget
                0x00000000c0590610                shm_exit_ns
                0x00000000c0590640                shm_init_ns
                0x00000000c0590900                sys_shmctl
                0x00000000c0590fd0                do_shmat
                0x00000000c0591420                sys_shmat
                0x00000000c0591450                ipcns_notify
                0x00000000c0591470                unregister_ipcns_notifier
                0x00000000c05914a0                cond_register_ipcns_notifier
                0x00000000c0591520                register_ipcns_notifier
                0x00000000c0591950                mq_clear_sbinfo
                0x00000000c05921c0                mq_init_ns
                0x00000000c05923f0                mq_put_mnt
                0x00000000c0592410                sys_mq_getsetattr
                0x00000000c0592590                sys_mq_notify
                0x00000000c0592bd0                sys_mq_unlink
                0x00000000c05931e0                sys_mq_timedreceive
                0x00000000c0593550                sys_mq_timedsend
                0x00000000c0593880                sys_mq_open
                0x00000000c0593c60                put_ipc_ns
                0x00000000c0593cd0                free_ipcs
                0x00000000c0593d70                copy_ipcs
                0x00000000c0593e80                mq_register_sysctl_table
 *fill*         0x00000000c0593f6b        0x5 9090
 .text          0x00000000c0593f70    0x283e8 security/built-in.o
                0x00000000c0593f90                key_schedule_gc
                0x00000000c05941f0                key_lookup
                0x00000000c0594260                key_payload_reserve
                0x00000000c0594330                unregister_key_type
                0x00000000c0594420                register_key_type
                0x00000000c05944b0                key_revoke
                0x00000000c0594510                key_update
                0x00000000c0594680                key_instantiate_and_link
                0x00000000c0594700                key_negate_and_link
                0x00000000c05947f0                key_type_put
                0x00000000c0594800                key_type_lookup
                0x00000000c0594850                key_put
                0x00000000c0594880                key_user_put
                0x00000000c05949d0                key_user_lookup
                0x00000000c0594bc0                key_alloc
                0x00000000c0594f60                key_create_or_update
                0x00000000c0595450                keyring_clear
                0x00000000c05954e0                find_keyring_by_name
                0x00000000c0595630                keyring_alloc
                0x00000000c05956b0                __key_link
                0x00000000c05959b0                key_link
                0x00000000c0595a00                __keyring_search_one
                0x00000000c0595bb0                keyring_gc
                0x00000000c0595d40                keyring_search_aux
                0x00000000c0595f90                keyring_search
                0x00000000c0595fe0                key_unlink
                0x00000000c0596500                keyctl_assume_authority
                0x00000000c0596550                keyctl_set_timeout
                0x00000000c05965d0                keyctl_set_reqkey_keyring
                0x00000000c0596690                keyctl_negate_key
                0x00000000c0596720                keyctl_setperm_key
                0x00000000c05967e0                keyctl_chown_key
                0x00000000c0596a50                keyctl_read_key
                0x00000000c0596b30                keyctl_join_session_keyring
                0x00000000c0596c40                keyctl_instantiate_key
                0x00000000c0596d70                keyctl_revoke_key
                0x00000000c0596dd0                keyctl_get_keyring_ID
                0x00000000c0596e10                keyctl_get_security
                0x00000000c0596f20                keyctl_keyring_link
                0x00000000c0596fb0                keyctl_keyring_unlink
                0x00000000c0597030                keyctl_keyring_clear
                0x00000000c0597080                keyctl_keyring_search
                0x00000000c0597210                sys_request_key
                0x00000000c0597360                keyctl_update_key
                0x00000000c0597410                sys_add_key
                0x00000000c05975a0                keyctl_describe_key
                0x00000000c0597740                keyctl_session_to_parent
                0x00000000c0597970                sys_keyctl
                0x00000000c0597ae0                key_validate
                0x00000000c0597b20                key_task_permission
                0x00000000c0597c00                key_replace_session_keyring
                0x00000000c0597d10                install_thread_keyring_to_cred
                0x00000000c0597d50                install_process_keyring_to_cred
                0x00000000c0597eb0                join_session_keyring
                0x00000000c0597ff0                search_process_keyrings
                0x00000000c0598270                key_fsgid_changed
                0x00000000c05982c0                key_fsuid_changed
                0x00000000c0598310                install_user_keyrings
                0x00000000c05984a0                lookup_user_key
                0x00000000c05988f0                wait_for_key_construction
                0x00000000c0598ab0                complete_request_key
                0x00000000c0598b00                request_key_and_link
                0x00000000c0598e30                request_key_async_with_auxdata
                0x00000000c0598e60                request_key_async
                0x00000000c0598e90                request_key_with_auxdata
                0x00000000c0598f00                request_key
                0x00000000c0599330                key_get_instantiation_authkey
                0x00000000c0599460                request_key_auth_new
                0x00000000c0599720                user_read
                0x00000000c0599770                user_describe
                0x00000000c05997b0                user_destroy
                0x00000000c05997d0                user_revoke
                0x00000000c0599820                user_match
                0x00000000c0599840                user_instantiate
                0x00000000c05998d0                user_update
                0x00000000c0599fe0                cap_netlink_send
                0x00000000c059a010                cap_netlink_recv
                0x00000000c059a030                cap_capable
                0x00000000c059a050                cap_capset
                0x00000000c059a150                cap_inode_need_killpriv
                0x00000000c059a190                cap_inode_killpriv
                0x00000000c059a1c0                get_vfs_caps_from_disk
                0x00000000c059a290                cap_bprm_secureexec
                0x00000000c059a2e0                cap_task_fix_setuid
                0x00000000c059a490                cap_file_mmap
                0x00000000c059a4d0                cap_vm_enough_memory
                0x00000000c059a4f0                cap_syslog
                0x00000000c059a520                cap_settime
                0x00000000c059a540                cap_task_prctl
                0x00000000c059a6d0                cap_ptrace_access_check
                0x00000000c059a770                cap_inode_removexattr
                0x00000000c059a7d0                cap_inode_setxattr
                0x00000000c059a830                cap_bprm_set_creds
                0x00000000c059ac40                cap_ptrace_traceme
                0x00000000c059ad80                cap_task_setnice
                0x00000000c059ad90                cap_task_setioprio
                0x00000000c059ada0                cap_task_setscheduler
                0x00000000c059adb0                cap_capget
                0x00000000c059ae40                mmap_min_addr_handler
                0x00000000c059aeb0                security_ptrace_access_check
                0x00000000c059aec0                security_ptrace_traceme
                0x00000000c059aed0                security_capget
                0x00000000c059aef0                security_capset
                0x00000000c059af20                security_capable
                0x00000000c059af50                security_acct
                0x00000000c059af60                security_sysctl
                0x00000000c059af70                security_quotactl
                0x00000000c059af90                security_quota_on
                0x00000000c059afa0                security_syslog
                0x00000000c059afb0                security_settime
                0x00000000c059afc0                security_vm_enough_memory_kern
                0x00000000c059afe0                security_bprm_set_creds
                0x00000000c059aff0                security_bprm_check
                0x00000000c059b000                security_bprm_committing_creds
                0x00000000c059b010                security_bprm_committed_creds
                0x00000000c059b020                security_bprm_secureexec
                0x00000000c059b030                security_sb_alloc
                0x00000000c059b040                security_sb_free
                0x00000000c059b050                security_sb_copy_data
                0x00000000c059b060                security_sb_kern_mount
                0x00000000c059b070                security_sb_show_options
                0x00000000c059b080                security_sb_statfs
                0x00000000c059b090                security_sb_mount
                0x00000000c059b0c0                security_sb_check_sb
                0x00000000c059b0d0                security_sb_umount
                0x00000000c059b0e0                security_sb_umount_close
                0x00000000c059b0f0                security_sb_umount_busy
                0x00000000c059b100                security_sb_post_remount
                0x00000000c059b110                security_sb_post_addmount
                0x00000000c059b130                security_sb_pivotroot
                0x00000000c059b150                security_sb_post_pivotroot
                0x00000000c059b170                security_sb_set_mnt_opts
                0x00000000c059b190                security_sb_clone_mnt_opts
                0x00000000c059b1b0                security_sb_parse_opts_str
                0x00000000c059b1d0                security_inode_alloc
                0x00000000c059b1f0                security_inode_free
                0x00000000c059b210                security_inode_need_killpriv
                0x00000000c059b230                security_inode_killpriv
                0x00000000c059b250                security_inode_getsecid
                0x00000000c059b270                security_file_permission
                0x00000000c059b290                security_file_alloc
                0x00000000c059b2b0                security_file_free
                0x00000000c059b2d0                security_file_ioctl
                0x00000000c059b2f0                security_file_mmap
                0x00000000c059b320                security_file_mprotect
                0x00000000c059b340                security_file_lock
                0x00000000c059b360                security_file_fcntl
                0x00000000c059b380                security_file_set_fowner
                0x00000000c059b3a0                security_file_send_sigiotask
                0x00000000c059b3c0                security_file_receive
                0x00000000c059b3e0                security_dentry_open
                0x00000000c059b400                security_task_create
                0x00000000c059b420                security_cred_alloc_blank
                0x00000000c059b440                security_cred_free
                0x00000000c059b460                security_prepare_creds
                0x00000000c059b480                security_commit_creds
                0x00000000c059b4a0                security_transfer_creds
                0x00000000c059b4c0                security_kernel_act_as
                0x00000000c059b4e0                security_kernel_create_files_as
                0x00000000c059b500                security_kernel_module_request
                0x00000000c059b510                security_task_setuid
                0x00000000c059b530                security_task_fix_setuid
                0x00000000c059b550                security_task_setgid
                0x00000000c059b570                security_task_setpgid
                0x00000000c059b590                security_task_getpgid
                0x00000000c059b5b0                security_task_getsid
                0x00000000c059b5d0                security_task_getsecid
                0x00000000c059b5f0                security_task_setgroups
                0x00000000c059b610                security_task_setnice
                0x00000000c059b630                security_task_setioprio
                0x00000000c059b650                security_task_getioprio
                0x00000000c059b670                security_task_setrlimit
                0x00000000c059b690                security_task_setscheduler
                0x00000000c059b6b0                security_task_getscheduler
                0x00000000c059b6d0                security_task_movememory
                0x00000000c059b6f0                security_task_kill
                0x00000000c059b710                security_task_wait
                0x00000000c059b730                security_task_prctl
                0x00000000c059b760                security_task_to_inode
                0x00000000c059b780                security_ipc_permission
                0x00000000c059b7a0                security_ipc_getsecid
                0x00000000c059b7c0                security_msg_msg_alloc
                0x00000000c059b7e0                security_msg_msg_free
                0x00000000c059b800                security_msg_queue_alloc
                0x00000000c059b820                security_msg_queue_free
                0x00000000c059b840                security_msg_queue_associate
                0x00000000c059b860                security_msg_queue_msgctl
                0x00000000c059b880                security_msg_queue_msgsnd
                0x00000000c059b8a0                security_msg_queue_msgrcv
                0x00000000c059b8d0                security_shm_alloc
                0x00000000c059b8f0                security_shm_free
                0x00000000c059b910                security_shm_associate
                0x00000000c059b930                security_shm_shmctl
                0x00000000c059b950                security_shm_shmat
                0x00000000c059b970                security_sem_alloc
                0x00000000c059b990                security_sem_free
                0x00000000c059b9b0                security_sem_associate
                0x00000000c059b9d0                security_sem_semctl
                0x00000000c059b9f0                security_sem_semop
                0x00000000c059ba10                security_getprocattr
                0x00000000c059ba30                security_setprocattr
                0x00000000c059ba50                security_netlink_send
                0x00000000c059ba70                security_netlink_recv
                0x00000000c059ba90                security_secid_to_secctx
                0x00000000c059bab0                security_secctx_to_secid
                0x00000000c059bad0                security_release_secctx
                0x00000000c059baf0                security_inode_notifysecctx
                0x00000000c059bb10                security_inode_setsecctx
                0x00000000c059bb30                security_inode_getsecctx
                0x00000000c059bb50                security_unix_stream_connect
                0x00000000c059bb70                security_unix_may_send
                0x00000000c059bb90                security_socket_create
                0x00000000c059bbb0                security_socket_post_create
                0x00000000c059bbe0                security_socket_bind
                0x00000000c059bc00                security_socket_connect
                0x00000000c059bc20                security_socket_listen
                0x00000000c059bc40                security_socket_accept
                0x00000000c059bc60                security_socket_sendmsg
                0x00000000c059bc80                security_socket_recvmsg
                0x00000000c059bca0                security_socket_getsockname
                0x00000000c059bcc0                security_socket_getpeername
                0x00000000c059bce0                security_socket_getsockopt
                0x00000000c059bd00                security_socket_setsockopt
                0x00000000c059bd20                security_socket_shutdown
                0x00000000c059bd40                security_sock_rcv_skb
                0x00000000c059bd60                security_socket_getpeersec_stream
                0x00000000c059bd80                security_socket_getpeersec_dgram
                0x00000000c059bda0                security_sk_alloc
                0x00000000c059bdc0                security_sk_free
                0x00000000c059bde0                security_sk_clone
                0x00000000c059be00                security_sk_classify_flow
                0x00000000c059be20                security_req_classify_flow
                0x00000000c059be40                security_sock_graft
                0x00000000c059be60                security_inet_conn_request
                0x00000000c059be80                security_inet_csk_clone
                0x00000000c059bea0                security_inet_conn_established
                0x00000000c059bec0                security_tun_dev_create
                0x00000000c059bed0                security_tun_dev_post_create
                0x00000000c059bef0                security_tun_dev_attach
                0x00000000c059bf10                security_xfrm_policy_alloc
                0x00000000c059bf30                security_xfrm_policy_clone
                0x00000000c059bf50                security_xfrm_policy_free
                0x00000000c059bf70                security_xfrm_policy_delete
                0x00000000c059bf90                security_xfrm_state_alloc
                0x00000000c059bfb0                security_xfrm_state_alloc_acquire
                0x00000000c059bfd0                security_xfrm_state_delete
                0x00000000c059bff0                security_xfrm_state_free
                0x00000000c059c010                security_xfrm_policy_lookup
                0x00000000c059c030                security_xfrm_state_pol_flow_match
                0x00000000c059c050                security_xfrm_decode_session
                0x00000000c059c070                security_key_alloc
                0x00000000c059c090                security_key_free
                0x00000000c059c0b0                security_key_permission
                0x00000000c059c0d0                security_key_getsecurity
                0x00000000c059c0f0                security_key_session_to_parent
                0x00000000c059c110                security_audit_rule_init
                0x00000000c059c130                security_audit_rule_known
                0x00000000c059c150                security_audit_rule_free
                0x00000000c059c170                security_audit_rule_match
                0x00000000c059c1a0                security_skb_classify_flow
                0x00000000c059c1d0                security_d_instantiate
                0x00000000c059c200                security_inode_listsecurity
                0x00000000c059c220                security_inode_setsecurity
                0x00000000c059c260                security_inode_getsecurity
                0x00000000c059c290                security_inode_removexattr
                0x00000000c059c2c0                security_inode_listxattr
                0x00000000c059c2f0                security_inode_getxattr
                0x00000000c059c320                security_inode_post_setxattr
                0x00000000c059c360                security_inode_setxattr
                0x00000000c059c3a0                security_inode_delete
                0x00000000c059c3c0                security_inode_getattr
                0x00000000c059c3f0                security_inode_setattr
                0x00000000c059c420                security_inode_permission
                0x00000000c059c440                security_inode_follow_link
                0x00000000c059c470                security_inode_readlink
                0x00000000c059c4a0                security_inode_rename
                0x00000000c059c4f0                security_inode_mknod
                0x00000000c059c520                security_inode_rmdir
                0x00000000c059c550                security_inode_mkdir
                0x00000000c059c570                security_inode_symlink
                0x00000000c059c590                security_inode_unlink
                0x00000000c059c5c0                security_inode_link
                0x00000000c059c5f0                security_inode_create
                0x00000000c059c610                security_inode_init_security
                0x00000000c059c650                security_vm_enough_memory_mm
                0x00000000c059c690                security_vm_enough_memory
                0x00000000c059c6e0                register_security
                0x00000000c059c740                security_real_capable
                0x00000000c059c820                security_real_capable_noaudit
                0x00000000c059d310                security_fixup_ops
                0x00000000c05a0fd0                securityfs_remove
                0x00000000c05a1150                securityfs_create_file
                0x00000000c05a1350                securityfs_create_dir
                0x00000000c05a1380                avc_policy_seqno
                0x00000000c05a1440                avc_audit
                0x00000000c05a1840                avc_add_callback
                0x00000000c05a19d0                avc_disable
                0x00000000c05a19f0                avc_ss_reset
                0x00000000c05a1c60                avc_has_perm_noaudit
                0x00000000c05a20b0                avc_has_perm
                0x00000000c05a2120                avc_get_hash_stats
                0x00000000c05a4e70                selinux_disable
                0x00000000c05a9c90                selinux_complete_init
                0x00000000c05aae20                exit_sel_fs
                0x00000000c05abf10                selnl_notify_policyload
                0x00000000c05abf30                selnl_notify_setenforce
                0x00000000c05abf50                selinux_nlmsg_lookup
                0x00000000c05ac230                sel_netif_sid
                0x00000000c05ac5e0                sel_netnode_sid
                0x00000000c05ac930                sel_netport_sid
                0x00000000c05acbc0                selinux_secmark_refcount_inc
                0x00000000c05acbd0                selinux_secmark_refcount_dec
                0x00000000c05acbe0                selinux_is_enabled
                0x00000000c05acbf0                selinux_secmark_relabel_packet_permission
                0x00000000c05acc40                selinux_string_to_sid
                0x00000000c05acc80                selinux_xfrm_decode_session
                0x00000000c05acd00                selinux_xfrm_postroute_last
                0x00000000c05acd80                selinux_xfrm_sock_rcv_skb
                0x00000000c05acdf0                selinux_xfrm_state_delete
                0x00000000c05ace40                selinux_xfrm_policy_delete
                0x00000000c05ace90                selinux_xfrm_state_pol_flow_match
                0x00000000c05acf00                selinux_xfrm_policy_lookup
                0x00000000c05acf60                selinux_xfrm_state_free
                0x00000000c05acf70                selinux_xfrm_policy_free
                0x00000000c05ad150                selinux_xfrm_state_alloc
                0x00000000c05ad180                selinux_xfrm_policy_alloc
                0x00000000c05ad1b0                selinux_xfrm_policy_clone
                0x00000000c05ad240                selinux_netlbl_sk_security_reset
                0x00000000c05ad250                selinux_netlbl_inet_csk_clone
                0x00000000c05ad2e0                selinux_netlbl_err
                0x00000000c05ad340                selinux_netlbl_skbuff_setsid
                0x00000000c05ad3e0                selinux_netlbl_cache_invalidate
                0x00000000c05ad4b0                selinux_netlbl_socket_connect
                0x00000000c05ad570                selinux_netlbl_socket_post_create
                0x00000000c05ad5d0                selinux_netlbl_sk_security_free
                0x00000000c05ad650                selinux_netlbl_sock_rcv_skb
                0x00000000c05ad790                selinux_netlbl_skbuff_getsid
                0x00000000c05ad890                selinux_netlbl_socket_setsockopt
                0x00000000c05ad980                selinux_netlbl_inet_conn_request
                0x00000000c05ada50                ebitmap_contains
                0x00000000c05adae0                ebitmap_get_bit
                0x00000000c05adb40                ebitmap_destroy
                0x00000000c05adb80                ebitmap_set_bit
                0x00000000c05add60                ebitmap_cmp
                0x00000000c05addf0                ebitmap_read
                0x00000000c05ae130                ebitmap_cpy
                0x00000000c05ae260                ebitmap_netlbl_import
                0x00000000c05ae3e0                ebitmap_netlbl_export
                0x00000000c05ae540                hashtab_search
                0x00000000c05ae5c0                hashtab_map
                0x00000000c05ae640                hashtab_stat
                0x00000000c05ae6a0                hashtab_destroy
                0x00000000c05ae710                hashtab_insert
                0x00000000c05ae860                hashtab_create
                0x00000000c05ae940                symtab_init
                0x00000000c05aea40                sidtab_search
                0x00000000c05aea50                sidtab_search_force
                0x00000000c05aea60                sidtab_map
                0x00000000c05aead0                sidtab_shutdown
                0x00000000c05aeb10                sidtab_set
                0x00000000c05aeb60                sidtab_destroy
                0x00000000c05aec50                sidtab_hash_eval
                0x00000000c05aecd0                sidtab_insert
                0x00000000c05aef00                sidtab_init
                0x00000000c05aefd0                sidtab_context_to_sid
                0x00000000c05af240                avtab_search
                0x00000000c05af2f0                avtab_search_node
                0x00000000c05af390                avtab_search_node_next
                0x00000000c05af410                avtab_init
                0x00000000c05af430                avtab_cache_destroy
                0x00000000c05af440                avtab_cache_init
                0x00000000c05af470                avtab_hash_eval
                0x00000000c05af680                avtab_insert_nonunique
                0x00000000c05af7a0                avtab_read_item
                0x00000000c05afb00                avtab_alloc
                0x00000000c05afb90                avtab_destroy
                0x00000000c05afc10                avtab_read
                0x00000000c05aff60                policydb_class_isvalid
                0x00000000c05aff80                policydb_role_isvalid
                0x00000000c05affa0                policydb_type_isvalid
                0x00000000c05b0420                policydb_context_isvalid
                0x00000000c05b04c0                policydb_load_isids
                0x00000000c05b09d0                policydb_destroy
                0x00000000c05b1880                policydb_read
                0x00000000c05b3090                security_get_reject_unknown
                0x00000000c05b30a0                security_get_allow_unknown
                0x00000000c05b30c0                selinux_audit_rule_known
                0x00000000c05b31a0                security_netlbl_sid_to_secattr
                0x00000000c05b3250                security_get_bool_value
                0x00000000c05b32a0                security_node_sid
                0x00000000c05b33a0                security_port_sid
                0x00000000c05b34a0                security_get_initial_sid_context
                0x00000000c05b3560                selinux_audit_rule_match
                0x00000000c05b37d0                security_policycap_supported
                0x00000000c05b3c10                security_net_peersid_resolve
                0x00000000c05b3d90                security_set_bools
                0x00000000c05b3ef0                security_netif_sid
                0x00000000c05b3fb0                security_genfs_sid
                0x00000000c05b40d0                security_fs_use
                0x00000000c05b4600                security_get_classes
                0x00000000c05b46a0                security_get_permissions
                0x00000000c05b47c0                security_get_bools
                0x00000000c05b4960                security_load_policy
                0x00000000c05b4ce0                security_get_user_sids
                0x00000000c05b5320                security_bounded_transition
                0x00000000c05b5480                security_validate_transition
                0x00000000c05b5810                security_sid_to_context_force
                0x00000000c05b5830                security_sid_to_context
                0x00000000c05b6040                security_compute_av
                0x00000000c05b6150                selinux_audit_rule_free
                0x00000000c05b61d0                selinux_audit_rule_init
                0x00000000c05b66e0                security_context_to_sid_force
                0x00000000c05b6710                security_context_to_sid_default
                0x00000000c05b6740                security_context_to_sid
                0x00000000c05b6b20                security_change_sid
                0x00000000c05b6b50                security_member_sid
                0x00000000c05b6b80                security_transition_sid
                0x00000000c05b6bb0                security_sid_mls_copy
                0x00000000c05b70a0                security_netlbl_secattr_to_sid
                0x00000000c05b72d0                cond_index_bool
                0x00000000c05b7320                cond_compute_av
                0x00000000c05b7460                cond_destroy_bool
                0x00000000c05b7480                evaluate_cond_node
                0x00000000c05b7710                cond_policydb_destroy
                0x00000000c05b7750                cond_policydb_init
                0x00000000c05b7780                cond_init_bool_indexes
                0x00000000c05b77b0                cond_read_list
                0x00000000c05b7b10                cond_read_bool
                0x00000000c05b7e40                mls_export_netlbl_lvl
                0x00000000c05b7e60                mls_import_netlbl_lvl
                0x00000000c05b7e80                mls_import_netlbl_cat
                0x00000000c05b7ff0                mls_compute_sid
                0x00000000c05b80f0                mls_export_netlbl_cat
                0x00000000c05b8170                mls_context_to_sid
                0x00000000c05b8490                mls_from_string
                0x00000000c05b8520                mls_level_isvalid
                0x00000000c05b8640                mls_range_isvalid
                0x00000000c05b86a0                mls_context_isvalid
                0x00000000c05b8740                mls_convert_context
                0x00000000c05b88c0                mls_compute_context_len
                0x00000000c05b8a90                mls_sid_to_context
                0x00000000c05b8d40                mls_setup_user_range
                0x00000000c05b9020                common_lsm_audit
                0x00000000c05b94c0                ipv4_skb_to_auditdata
                0x00000000c05b9580                ipv6_skb_to_auditdata
                0x00000000c05b9760                devcgroup_inode_permission
                0x00000000c05ba0c0                devcgroup_inode_mknod
                0x00000000c05ba220                ima_open_policy
                0x00000000c05ba550                ima_template_show
                0x00000000c05ba7b0                ima_add_template_entry
                0x00000000c05baa60                ima_counts_get
                0x00000000c05bab00                ima_counts_put
                0x00000000c05bac10                ima_path_check
                0x00000000c05bae00                ima_file_free
                0x00000000c05baff0                ima_file_mmap
                0x00000000c05bb010                ima_bprm_check
                0x00000000c05bb0b0                ima_calc_template_hash
                0x00000000c05bb140                ima_calc_hash
                0x00000000c05bb300                ima_collect_measurement
                0x00000000c05bb380                ima_must_measure
                0x00000000c05bb3b0                ima_store_template
                0x00000000c05bb460                ima_add_violation
                0x00000000c05bb570                ima_store_measurement
                0x00000000c05bb6c0                ima_delete_rules
                0x00000000c05bb720                ima_update_policy
                0x00000000c05bb780                ima_match_policy
                0x00000000c05bb890                ima_parse_add_rule
                0x00000000c05bbf00                ima_inode_free
                0x00000000c05bbf60                iint_rcu_free
                0x00000000c05bbf80                iint_free
                0x00000000c05bc040                ima_iint_insert
                0x00000000c05bc100                ima_inode_alloc
                0x00000000c05bc130                ima_iint_find_get
                0x00000000c05bc1a0                ima_iint_find_insert_get
                0x00000000c05bc1e0                integrity_audit_msg
 *fill*         0x00000000c05bc358        0x8 9090
 .text          0x00000000c05bc360     0xb6a0 crypto/built-in.o
                0x00000000c05bc360                crypto_find_alg
                0x00000000c05bc3a0                crypto_mod_get
                0x00000000c05bc490                crypto_shoot_alg
                0x00000000c05bc4c0                crypto_probing_notify
                0x00000000c05bc510                crypto_larval_kill
                0x00000000c05bc560                crypto_mod_put
                0x00000000c05bc590                crypto_destroy_tfm
                0x00000000c05bc760                crypto_alg_lookup
                0x00000000c05bc7e0                __crypto_alloc_tfm
                0x00000000c05bc8e0                crypto_create_tfm
                0x00000000c05bc9a0                crypto_alloc_tfm
                0x00000000c05bca30                crypto_larval_alloc
                0x00000000c05bcb30                crypto_larval_lookup
                0x00000000c05bcc90                crypto_alg_mod_lookup
                0x00000000c05bcd00                crypto_has_alg
                0x00000000c05bcd20                crypto_alloc_base
                0x00000000c05bcda0                crypto_init_cipher_ops
                0x00000000c05bcde0                crypto_exit_cipher_ops
                0x00000000c05bd080                crypto_init_compress_ops
                0x00000000c05bd0a0                crypto_exit_compress_ops
                0x00000000c05bd150                crypto_get_attr_type
                0x00000000c05bd180                crypto_attr_alg_name
                0x00000000c05bd1c0                crypto_attr_u32
                0x00000000c05bd200                crypto_init_queue
                0x00000000c05bd220                crypto_tfm_in_queue
                0x00000000c05bd260                crypto_xor
                0x00000000c05bd2c0                crypto_inc
                0x00000000c05bd330                crypto_check_attr_type
                0x00000000c05bd380                __crypto_dequeue_request
                0x00000000c05bd3d0                crypto_dequeue_request
                0x00000000c05bd3e0                crypto_enqueue_request
                0x00000000c05bd420                crypto_attr_alg2
                0x00000000c05bd470                crypto_unregister_notifier
                0x00000000c05bd490                crypto_register_notifier
                0x00000000c05bd530                crypto_spawn_tfm2
                0x00000000c05bd580                crypto_spawn_tfm
                0x00000000c05bd5f0                crypto_drop_spawn
                0x00000000c05bd620                crypto_init_spawn
                0x00000000c05bd680                crypto_init_spawn2
                0x00000000c05bd9d0                crypto_lookup_template
                0x00000000c05bda30                crypto_register_template
                0x00000000c05bdac0                crypto_larval_error
                0x00000000c05bdaf0                crypto_alloc_instance2
                0x00000000c05bdbb0                crypto_alloc_instance
                0x00000000c05bdf20                crypto_unregister_template
                0x00000000c05bdff0                crypto_unregister_alg
                0x00000000c05be060                crypto_alg_tested
                0x00000000c05be2a0                crypto_register_instance
                0x00000000c05be360                crypto_register_alg
                0x00000000c05be3d0                scatterwalk_start
                0x00000000c05be490                scatterwalk_done
                0x00000000c05be4c0                scatterwalk_map
                0x00000000c05be540                scatterwalk_copychunks
                0x00000000c05be610                scatterwalk_map_and_copy
                0x00000000c05be950                crypto_aead_setauthsize
                0x00000000c05bef30                crypto_alloc_aead
                0x00000000c05befc0                crypto_grab_aead
                0x00000000c05bf030                aead_geniv_exit
                0x00000000c05bf040                aead_geniv_init
                0x00000000c05bf080                aead_geniv_free
                0x00000000c05bf0a0                aead_geniv_alloc
                0x00000000c05bf420                skcipher_null_givencrypt
                0x00000000c05bf430                skcipher_null_givdecrypt
                0x00000000c05bf520                crypto_default_geniv
                0x00000000c05bf9d0                crypto_alloc_ablkcipher
                0x00000000c05bfa60                crypto_grab_skcipher
                0x00000000c05bfe20                skcipher_geniv_exit
                0x00000000c05bfe30                skcipher_geniv_init
                0x00000000c05bfe70                skcipher_geniv_free
                0x00000000c05bfe90                skcipher_geniv_alloc
                0x00000000c05c0770                blkcipher_walk_done
                0x00000000c05c0b00                blkcipher_walk_virt_block
                0x00000000c05c0b20                blkcipher_walk_phys
                0x00000000c05c0b40                blkcipher_walk_virt
                0x00000000c05c1b40                crypto_ahash_digest
                0x00000000c05c1b50                crypto_ahash_finup
                0x00000000c05c1b60                crypto_ahash_final
                0x00000000c05c1bb0                ahash_attr_alg
                0x00000000c05c1be0                crypto_init_ahash_spawn
                0x00000000c05c1c00                ahash_free_instance
                0x00000000c05c1c20                ahash_register_instance
                0x00000000c05c1c60                crypto_unregister_ahash
                0x00000000c05c1c70                crypto_register_ahash
                0x00000000c05c1cb0                crypto_alloc_ahash
                0x00000000c05c1dc0                crypto_hash_walk_first_compat
                0x00000000c05c1e10                crypto_hash_walk_first
                0x00000000c05c1e50                crypto_hash_walk_done
                0x00000000c05c1f70                crypto_ahash_setkey
                0x00000000c05c2260                shash_attr_alg
                0x00000000c05c2290                crypto_init_shash_ops_async
                0x00000000c05c2380                crypto_init_shash_spawn
                0x00000000c05c23a0                shash_free_instance
                0x00000000c05c23c0                shash_register_instance
                0x00000000c05c2470                crypto_unregister_shash
                0x00000000c05c2480                crypto_register_shash
                0x00000000c05c2530                crypto_alloc_shash
                0x00000000c05c2600                crypto_shash_final
                0x00000000c05c2720                crypto_shash_update
                0x00000000c05c27b0                crypto_shash_finup
                0x00000000c05c2850                crypto_shash_digest
                0x00000000c05c28a0                shash_ahash_finup
                0x00000000c05c2940                shash_ahash_digest
                0x00000000c05c2a70                shash_ahash_update
                0x00000000c05c2cd0                crypto_shash_setkey
                0x00000000c05c2dd0                crypto_unregister_pcomp
                0x00000000c05c2de0                crypto_register_pcomp
                0x00000000c05c2e20                crypto_alloc_pcomp
                0x00000000c05c4230                alg_test
                0x00000000c05c7880                crypto_put_default_rng
                0x00000000c05c78d0                crypto_get_default_rng
 .text          0x00000000c05c7a00    0x1adf2 block/built-in.o
                0x00000000c05c7a00                elv_rq_merge_ok
                0x00000000c05c7ad0                elv_rb_find
                0x00000000c05c7b20                elv_queue_empty
                0x00000000c05c7b50                elv_latter_request
                0x00000000c05c7b70                elv_former_request
                0x00000000c05c7b90                elv_set_request
                0x00000000c05c7bc0                elv_put_request
                0x00000000c05c7be0                elv_may_queue
                0x00000000c05c7c00                elv_rb_latter_request
                0x00000000c05c7c20                elv_rb_former_request
                0x00000000c05c7c40                elv_iosched_show
                0x00000000c05c7d30                elv_drain_elevator
                0x00000000c05c7f80                elv_merge_requests
                0x00000000c05c8060                elv_merged_request
                0x00000000c05c8110                elv_merge
                0x00000000c05c83d0                elevator_exit
                0x00000000c05c8440                elv_unregister_queue
                0x00000000c05c8460                elv_unregister
                0x00000000c05c8510                elv_register
                0x00000000c05c85e0                elv_dispatch_add_tail
                0x00000000c05c8660                elv_dispatch_sort
                0x00000000c05c8780                elv_register_queue
                0x00000000c05c8800                elv_completed_request
                0x00000000c05c88c0                elv_abort_queue
                0x00000000c05c8920                elv_insert
                0x00000000c05c8b10                __elv_add_request
                0x00000000c05c8be0                elv_add_request
                0x00000000c05c8c30                elv_requeue_request
                0x00000000c05c8cb0                elv_quiesce_start
                0x00000000c05c8d50                elv_rb_del
                0x00000000c05c8d90                elv_rb_add
                0x00000000c05c8e20                elv_quiesce_end
                0x00000000c05c8fe0                elevator_init
                0x00000000c05c90f0                elv_iosched_store
                0x00000000c05c92f0                blk_queue_congestion_threshold
                0x00000000c05c9330                blk_get_backing_dev_info
                0x00000000c05c9350                blk_rq_init
                0x00000000c05c93e0                blk_lld_busy
                0x00000000c05c9400                part_round_stats
                0x00000000c05c9500                blk_rq_err_bytes
                0x00000000c05c9570                blk_unplug
                0x00000000c05c95e0                blk_unplug_work
                0x00000000c05c9630                blk_dequeue_request
                0x00000000c05cf590                blk_dump_rq_flags
                0x00000000c05d0a40                kblockd_schedule_work
                0x00000000c05d0a50                blk_unplug_timeout
                0x00000000c05d0aa0                blk_rq_unprep_clone
                0x00000000c05d0ad0                blk_rq_prep_clone
                0x00000000c05d0c00                blk_rq_check_limits
                0x00000000c05d0d90                blk_start_request
                0x00000000c05d0dd0                blk_requeue_request
                0x00000000c05d0e60                blk_get_queue
                0x00000000c05d0e90                blk_alloc_queue_node
                0x00000000c05d0fe0                blk_alloc_queue
                0x00000000c05d0ff0                blk_put_queue
                0x00000000c05d1000                blk_init_queue_node
                0x00000000c05d1120                blk_init_queue
                0x00000000c05d1130                blk_sync_queue
                0x00000000c05d1160                blk_cleanup_queue
                0x00000000c05d11c0                blk_remove_plug
                0x00000000c05d1250                __generic_unplug_device
                0x00000000c05d1280                generic_unplug_device
                0x00000000c05d12b0                blk_plug_device
                0x00000000c05d1380                blk_plug_device_unlocked
                0x00000000c05d13c0                blk_update_request
                0x00000000c05d1960                blk_insert_cloned_request
                0x00000000c05d1a10                blk_rq_bio_prep
                0x00000000c05d1a90                init_request_from_bio
                0x00000000c05d1b50                generic_make_request
                0x00000000c05d20c0                submit_bio
                0x00000000c05d21d0                blk_stop_queue
                0x00000000c05d23a0                __blk_put_request
                0x00000000c05d2690                __blk_end_request_all
                0x00000000c05d26e0                blk_peek_request
                0x00000000c05d2890                blk_fetch_request
                0x00000000c05d28b0                __blk_end_request
                0x00000000c05d28f0                __blk_end_request_err
                0x00000000c05d2940                __blk_end_request_cur
                0x00000000c05d29f0                blk_end_request_all
                0x00000000c05d2a30                blk_end_request
                0x00000000c05d2a50                blk_end_request_err
                0x00000000c05d2aa0                blk_end_request_cur
                0x00000000c05d2ae0                blk_put_request
                0x00000000c05d3350                blk_get_request
                0x00000000c05d33e0                blk_make_request
                0x00000000c05d3450                __blk_run_queue
                0x00000000c05d3580                blk_insert_request
                0x00000000c05d3610                blk_run_queue
                0x00000000c05d3650                blk_start_queue
                0x00000000c05d36c0                blk_queue_free_tags
                0x00000000c05d36d0                blk_queue_invalidate_tags
                0x00000000c05d3710                blk_queue_find_tag
                0x00000000c05d3730                blk_queue_start_tag
                0x00000000c05d3820                blk_queue_end_tag
                0x00000000c05d3950                blk_free_tags
                0x00000000c05d3970                __blk_queue_free_tags
                0x00000000c05d3a50                blk_queue_resize_tags
                0x00000000c05d3bf0                blk_init_tags
                0x00000000c05d3c00                blk_queue_init_tags
                0x00000000c05d4150                blk_unregister_queue
                0x00000000c05d41c0                blk_register_queue
                0x00000000c05d4920                blk_ordered_cur_seq
                0x00000000c05d4940                blkdev_issue_flush
                0x00000000c05d4a10                blkdev_issue_discard
                0x00000000c05d4ca0                blk_ordered_complete_seq
                0x00000000c05d4d10                blk_ordered_req_seq
                0x00000000c05d4e00                blk_do_ordered
                0x00000000c05d5190                blk_queue_ordered
                0x00000000c05d5220                blk_queue_prep_rq
                0x00000000c05d5230                blk_queue_merge_bvec
                0x00000000c05d5240                blk_queue_softirq_done
                0x00000000c05d5250                blk_queue_rq_timeout
                0x00000000c05d5260                blk_queue_rq_timed_out
                0x00000000c05d5270                blk_queue_lld_busy
                0x00000000c05d5280                blk_set_default_limits
                0x00000000c05d52f0                blk_queue_max_hw_sectors
                0x00000000c05d5310                blk_queue_max_discard_sectors
                0x00000000c05d5320                blk_queue_logical_block_size
                0x00000000c05d5350                blk_queue_physical_block_size
                0x00000000c05d5380                blk_queue_alignment_offset
                0x00000000c05d53a0                blk_limits_io_min
                0x00000000c05d53c0                blk_queue_io_min
                0x00000000c05d53f0                blk_limits_io_opt
                0x00000000c05d5400                blk_queue_io_opt
                0x00000000c05d5410                blk_queue_dma_pad
                0x00000000c05d5420                blk_queue_update_dma_pad
                0x00000000c05d5440                blk_queue_dma_alignment
                0x00000000c05d5450                blk_queue_update_dma_alignment
                0x00000000c05d5470                blk_queue_segment_boundary
                0x00000000c05d54b0                blk_queue_max_segment_size
                0x00000000c05d54f0                blk_queue_max_hw_segments
                0x00000000c05d5530                blk_queue_max_phys_segments
                0x00000000c05d5570                blk_queue_dma_drain
                0x00000000c05d55f0                blk_queue_max_sectors
                0x00000000c05d5660                blk_stack_limits
                0x00000000c05d5960                bdev_stack_limits
                0x00000000c05d59b0                blk_queue_bounce_limit
                0x00000000c05d5a00                blk_queue_make_request
                0x00000000c05d5aa0                disk_stack_limits
                0x00000000c05d5c20                blk_queue_stack_limits
                0x00000000c05d5d00                alloc_io_context
                0x00000000c05d5d80                current_io_context
                0x00000000c05d5db0                get_io_context
                0x00000000c05d5e10                put_io_context
                0x00000000c05d5ec0                copy_io_context
                0x00000000c05d5f00                exit_io_context
                0x00000000c05d5ff0                blk_rq_unmap_user
                0x00000000c05d6040                blk_rq_map_user_iov
                0x00000000c05d6180                blk_rq_append_bio
                0x00000000c05d61e0                blk_rq_map_kern
                0x00000000c05d6300                blk_rq_map_user
                0x00000000c05d6550                blk_execute_rq_nowait
                0x00000000c05d65f0                blk_execute_rq
                0x00000000c05d6940                blk_recalc_rq_segments
                0x00000000c05d6960                blk_recount_segments
                0x00000000c05d69a0                blk_rq_set_mixed_merge
                0x00000000c05d6e70                attempt_front_merge
                0x00000000c05d6eb0                attempt_back_merge
                0x00000000c05d6ef0                ll_front_merge_fn
                0x00000000c05d7010                ll_back_merge_fn
                0x00000000c05d7130                blk_rq_map_sg
                0x00000000c05d75e0                __blk_complete_request
                0x00000000c05d7730                blk_complete_request
                0x00000000c05d7760                blk_delete_timer
                0x00000000c05d7790                blk_add_timer
                0x00000000c05d78a0                blk_abort_request
                0x00000000c05d78e0                blk_abort_queue
                0x00000000c05d79d0                blk_rq_timed_out_timer
                0x00000000c05d7af0                part_timeout_store
                0x00000000c05d7bf0                part_timeout_show
                0x00000000c05d7c20                blk_should_fake_timeout
                0x00000000c05d7c50                blk_iopoll_init
                0x00000000c05d7c90                blk_iopoll_enable
                0x00000000c05d7cb0                blk_iopoll_sched
                0x00000000c05d7d30                blk_iopoll_disable
                0x00000000c05d7d70                __blk_iopoll_complete
                0x00000000c05d7e60                blk_iopoll_complete
                0x00000000c05d7ec0                __blkdev_driver_ioctl
                0x00000000c05d8210                blkdev_ioctl
                0x00000000c05d88e0                disk_map_sector_rcu
                0x00000000c05d89e0                set_device_ro
                0x00000000c05d8a00                bdev_read_only
                0x00000000c05d8c80                put_disk
                0x00000000c05d8ca0                get_disk
                0x00000000c05d8e10                get_gendisk
                0x00000000c05d8f20                unregister_blkdev
                0x00000000c05d8fc0                blkdev_show
                0x00000000c05d9030                blk_unregister_region
                0x00000000c05d9050                unlink_gendisk
                0x00000000c05d9090                blk_register_region
                0x00000000c05d90d0                blk_free_devt
                0x00000000c05d91a0                blk_alloc_devt
                0x00000000c05d92c0                add_disk
                0x00000000c05d9400                disk_get_part
                0x00000000c05d9480                disk_expand_part_tbl
                0x00000000c05d9550                blk_lookup_devt
                0x00000000c05d9600                bdget_disk
                0x00000000c05d9640                invalidate_partition
                0x00000000c05d9680                disk_part_iter_exit
                0x00000000c05d96a0                disk_part_iter_init
                0x00000000c05d9740                disk_part_iter_next
                0x00000000c05d9940                set_disk_ro
                0x00000000c05d9b30                register_blkdev
                0x00000000c05d9cd0                alloc_disk_node
                0x00000000c05d9e30                alloc_disk
                0x00000000c05da570                blk_verify_command
                0x00000000c05da950                sg_scsi_ioctl
                0x00000000c05dac90                scsi_cmd_ioctl
                0x00000000c05db830                bsg_register_queue
                0x00000000c05db9e0                bsg_unregister_queue
                0x00000000c05e1fd0                blk_rq_count_integrity_sg
                0x00000000c05e2170                blk_integrity_unregister
                0x00000000c05e2200                blk_integrity_register
                0x00000000c05e24a0                blk_integrity_compare
                0x00000000c05e2620                blk_rq_map_integrity_sg
 *fill*         0x00000000c05e27f2        0xe 9090
 .text          0x00000000c05e2800      0x128 lib/lib.a(argv_split.o)
                0x00000000c05e2800                argv_free
                0x00000000c05e2830                argv_split
 *fill*         0x00000000c05e2928        0x8 9090
 .text          0x00000000c05e2930      0x23e lib/lib.a(bug.o)
                0x00000000c05e2930                find_bug
                0x00000000c05e29d0                report_bug
                0x00000000c05e2aa0                module_bug_cleanup
                0x00000000c05e2ab0                module_bug_finalize
 *fill*         0x00000000c05e2b6e        0x2 9090
 .text          0x00000000c05e2b70      0x17c lib/lib.a(cmdline.o)
                0x00000000c05e2b70                memparse
                0x00000000c05e2be0                get_option
                0x00000000c05e2c60                get_options
 *fill*         0x00000000c05e2cec        0x4 9090
 .text          0x00000000c05e2cf0       0xc8 lib/lib.a(cpumask.o)
                0x00000000c05e2cf0                cpumask_any_but
                0x00000000c05e2d20                cpumask_next_and
                0x00000000c05e2d50                __next_cpu
                0x00000000c05e2d70                __any_online_cpu
                0x00000000c05e2da0                __first_cpu
 .text          0x00000000c05e2db8        0x0 lib/lib.a(ctype.o)
 *fill*         0x00000000c05e2db8        0x8 9090
 .text          0x00000000c05e2dc0       0x7f lib/lib.a(dec_and_lock.o)
                0x00000000c05e2dc0                _atomic_dec_and_lock
 *fill*         0x00000000c05e2e3f        0x1 9090
 .text          0x00000000c05e2e40       0x6a lib/lib.a(decompress.o)
                0x00000000c05e2e40                decompress_method
 *fill*         0x00000000c05e2eaa        0x6 9090
 .text          0x00000000c05e2eb0       0x70 lib/lib.a(decompress_bunzip2.o)
 .text          0x00000000c05e2f20       0x80 lib/lib.a(decompress_inflate.o)
 .text          0x00000000c05e2fa0        0x6 lib/lib.a(decompress_unlzma.o)
 *fill*         0x00000000c05e2fa6        0xa 9090
 .text          0x00000000c05e2fb0      0x125 lib/lib.a(extable.o)
                0x00000000c05e2fd0                trim_init_extable
                0x00000000c05e3080                search_extable
                0x00000000c05e30b0                sort_extable
 *fill*         0x00000000c05e30d5        0xb 9090
 .text          0x00000000c05e30e0      0x1f2 lib/lib.a(find_next_bit.o)
                0x00000000c05e30e0                find_next_bit
                0x00000000c05e3170                find_next_zero_bit
                0x00000000c05e3200                find_first_bit
                0x00000000c05e3270                find_first_zero_bit
 *fill*         0x00000000c05e32d2        0xe 9090
 .text          0x00000000c05e32e0      0xd1f lib/lib.a(idr.o)
                0x00000000c05e32e0                idr_for_each
                0x00000000c05e33a0                idr_get_next
                0x00000000c05e3440                idr_init
                0x00000000c05e3460                ida_init
                0x00000000c05e3530                idr_destroy
                0x00000000c05e3560                ida_destroy
                0x00000000c05e3590                idr_replace
                0x00000000c05e3610                idr_find
                0x00000000c05e38f0                ida_get_new_above
                0x00000000c05e3aa0                ida_get_new
                0x00000000c05e3b20                idr_get_new
                0x00000000c05e3b50                idr_get_new_above
                0x00000000c05e3b80                idr_remove_all
                0x00000000c05e3c40                idr_remove
                0x00000000c05e3df0                ida_remove
                0x00000000c05e3ec0                idr_pre_get
                0x00000000c05e3f30                ida_pre_get
 *fill*         0x00000000c05e3fff        0x1 9090
 .text          0x00000000c05e4000       0x37 lib/lib.a(int_sqrt.o)
                0x00000000c05e4000                int_sqrt
 *fill*         0x00000000c05e4037        0x9 9090
 .text          0x00000000c05e4040      0x212 lib/lib.a(ioremap.o)
                0x00000000c05e4040                ioremap_page_range
 *fill*         0x00000000c05e4252        0xe 9090
 .text          0x00000000c05e4260       0x82 lib/lib.a(is_single_threaded.o)
                0x00000000c05e4260                current_is_single_threaded
 *fill*         0x00000000c05e42e2        0xe 9090
 .text          0x00000000c05e42f0      0xef9 lib/lib.a(kobject.o)
                0x00000000c05e4400                kset_init
                0x00000000c05e4440                kobject_init
                0x00000000c05e44e0                kobject_put
                0x00000000c05e4550                kset_unregister
                0x00000000c05e45b0                kobject_del
                0x00000000c05e4820                kobject_get
                0x00000000c05e4840                kset_find_obj
                0x00000000c05e4af0                kset_register
                0x00000000c05e4b40                kobject_set_name_vargs
                0x00000000c05e4c10                kobject_init_and_add
                0x00000000c05e4c40                kobject_add
                0x00000000c05e4ca0                kobject_set_name
                0x00000000c05e4cc0                kobject_get_path
                0x00000000c05e4da0                kobject_rename
                0x00000000c05e4ee0                kobject_move
                0x00000000c05e5000                kobject_create
                0x00000000c05e5090                kobject_create_and_add
                0x00000000c05e5100                kset_create_and_add
 *fill*         0x00000000c05e51e9        0x7 9090
 .text          0x00000000c05e51f0      0x757 lib/lib.a(kobject_uevent.o)
                0x00000000c05e51f0                add_uevent_var
                0x00000000c05e52c0                kobject_action_type
                0x00000000c05e5350                kobject_uevent_env
                0x00000000c05e5940                kobject_uevent
 *fill*         0x00000000c05e5947        0x9 9090
 .text          0x00000000c05e5950       0x9f lib/lib.a(kref.o)
                0x00000000c05e5950                kref_set
                0x00000000c05e5960                kref_init
                0x00000000c05e5970                kref_put
                0x00000000c05e59d0                kref_get
 *fill*         0x00000000c05e59ef        0x1 9090
 .text          0x00000000c05e59f0       0xee lib/lib.a(plist.o)
                0x00000000c05e59f0                plist_del
                0x00000000c05e5a50                plist_add
 *fill*         0x00000000c05e5ade        0x2 9090
 .text          0x00000000c05e5ae0      0x185 lib/lib.a(prio_heap.o)
                0x00000000c05e5ae0                heap_insert
                0x00000000c05e5c10                heap_free
                0x00000000c05e5c20                heap_init
 *fill*         0x00000000c05e5c65        0xb 9090
 .text          0x00000000c05e5c70      0x739 lib/lib.a(prio_tree.o)
                0x00000000c05e5e30                prio_tree_next
                0x00000000c05e6050                prio_tree_replace
                0x00000000c05e60b0                prio_tree_remove
                0x00000000c05e6180                prio_tree_insert
 *fill*         0x00000000c05e63a9        0x7 9090
 .text          0x00000000c05e63b0      0x66a lib/lib.a(proportions.o)
                0x00000000c05e63b0                prop_local_init_single
                0x00000000c05e63d0                prop_local_destroy_single
                0x00000000c05e6490                prop_fraction_single
                0x00000000c05e6500                __prop_inc_single
                0x00000000c05e66d0                prop_fraction_percpu
                0x00000000c05e6750                __prop_inc_percpu_max
                0x00000000c05e6810                __prop_inc_percpu
                0x00000000c05e6870                prop_local_destroy_percpu
                0x00000000c05e6880                prop_local_init_percpu
                0x00000000c05e68b0                prop_change_shift
                0x00000000c05e6990                prop_descriptor_init
 *fill*         0x00000000c05e6a1a        0x6 9090
 .text          0x00000000c05e6a20      0xe96 lib/lib.a(radix-tree.o)
                0x00000000c05e6a20                radix_tree_lookup_slot
                0x00000000c05e6a90                radix_tree_lookup
                0x00000000c05e6af0                radix_tree_next_hole
                0x00000000c05e6b30                radix_tree_prev_hole
                0x00000000c05e6c40                radix_tree_gang_lookup
                0x00000000c05e6d30                radix_tree_gang_lookup_slot
                0x00000000c05e6dd0                radix_tree_tagged
                0x00000000c05e6ed0                radix_tree_preload
                0x00000000c05e6f40                radix_tree_tag_clear
                0x00000000c05e7040                radix_tree_tag_set
                0x00000000c05e7100                radix_tree_tag_get
                0x00000000c05e72f0                radix_tree_gang_lookup_tag_slot
                0x00000000c05e73a0                radix_tree_gang_lookup_tag
                0x00000000c05e74b0                radix_tree_delete
                0x00000000c05e76f0                radix_tree_insert
 *fill*         0x00000000c05e78b6        0xa 9090
 .text          0x00000000c05e78c0       0xd4 lib/lib.a(ratelimit.o)
                0x00000000c05e78c0                __ratelimit
 *fill*         0x00000000c05e7994        0xc 9090
 .text          0x00000000c05e79a0      0x595 lib/lib.a(rbtree.o)
                0x00000000c05e7a80                rb_insert_color
                0x00000000c05e7b80                rb_erase
                0x00000000c05e7e00                rb_first
                0x00000000c05e7e20                rb_last
                0x00000000c05e7e40                rb_next
                0x00000000c05e7e90                rb_prev
                0x00000000c05e7ee0                rb_replace_node
 *fill*         0x00000000c05e7f35        0xb 9090
 .text          0x00000000c05e7f40       0x40 lib/lib.a(reciprocal_div.o)
                0x00000000c05e7f40                reciprocal_value
 .text          0x00000000c05e7f80      0x1ee lib/lib.a(rwsem.o)
                0x00000000c05e7f80                __init_rwsem
                0x00000000c05e7fa0                rwsem_downgrade_wake
                0x00000000c05e8050                rwsem_wake
 *fill*         0x00000000c05e816e        0x2 9090
 .text          0x00000000c05e8170      0x22b lib/lib.a(sha1.o)
                0x00000000c05e8170                sha_init
                0x00000000c05e81a0                sha_transform
 *fill*         0x00000000c05e839b        0x5 9090
 .text          0x00000000c05e83a0      0x23d lib/lib.a(show_mem.o)
                0x00000000c05e83a0                show_mem
 *fill*         0x00000000c05e85dd        0x3 9090
 .text          0x00000000c05e85e0      0x4d5 lib/lib.a(string.o)
                0x00000000c05e85e0                strnicmp
                0x00000000c05e8660                strcasecmp
                0x00000000c05e86b0                strncasecmp
                0x00000000c05e8710                strnchr
                0x00000000c05e8750                strspn
                0x00000000c05e87b0                strcspn
                0x00000000c05e8800                strpbrk
                0x00000000c05e8850                strsep
                0x00000000c05e88c0                sysfs_streq
                0x00000000c05e8930                memcmp
                0x00000000c05e8970                strstrip
                0x00000000c05e89d0                strrchr
                0x00000000c05e89f0                strlcat
                0x00000000c05e8a60                strlcpy
 *fill*         0x00000000c05e8ab5        0xb 9090
 .text          0x00000000c05e8ac0     0x2791 lib/lib.a(vsprintf.o)
                0x00000000c05e8ac0                simple_strtoul
                0x00000000c05e8ba0                simple_strtol
                0x00000000c05e8bc0                simple_strtoull
                0x00000000c05e8cf0                simple_strtoll
                0x00000000c05e9300                vsscanf
                0x00000000c05e98b0                sscanf
                0x00000000c05e9c70                vbin_printf
                0x00000000c05e9e20                bprintf
                0x00000000c05e9e40                strict_strtoull
                0x00000000c05e9ee0                strict_strtoll
                0x00000000c05e9f10                strict_strtoul
                0x00000000c05e9f90                strict_strtol
                0x00000000c05ea9a0                bstr_printf
                0x00000000c05eada0                vsnprintf
                0x00000000c05eb1a0                sprintf
                0x00000000c05eb1c0                vsprintf
                0x00000000c05eb1e0                scnprintf
                0x00000000c05eb210                snprintf
                0x00000000c05eb230                vscnprintf
 *fill*         0x00000000c05eb251        0x3 9090
 .text          0x00000000c05eb254      0x218 arch/x86/lib/lib.a(checksum_32.o)
                0x00000000c05eb254                csum_partial
                0x00000000c05eb374                csum_partial_copy_generic
 *fill*         0x00000000c05eb46c        0x4 9090
 .text          0x00000000c05eb470      0x151 arch/x86/lib/lib.a(delay.o)
                0x00000000c05eb4a0                use_tsc_delay
                0x00000000c05eb4b0                __delay
                0x00000000c05eb4c0                __const_udelay
                0x00000000c05eb550                __ndelay
                0x00000000c05eb590                __udelay
 *fill*         0x00000000c05eb5c1        0x3 9090
 .text          0x00000000c05eb5c4       0x4b arch/x86/lib/lib.a(getuser.o)
                0x00000000c05eb5c4                __get_user_1
                0x00000000c05eb5d8                __get_user_2
                0x00000000c05eb5f0                __get_user_4
 *fill*         0x00000000c05eb60f        0x1 9090
 .text          0x00000000c05eb610       0xbf arch/x86/lib/lib.a(memcpy_32.o)
                0x00000000c05eb610                memcpy
                0x00000000c05eb650                memmove
                0x00000000c05eb6b0                memset
 *fill*         0x00000000c05eb6cf        0x1 9090
 .text          0x00000000c05eb6d0       0x63 arch/x86/lib/lib.a(putuser.o)
                0x00000000c05eb6d0                __put_user_1
                0x00000000c05eb6e4                __put_user_2
                0x00000000c05eb6fc                __put_user_4
                0x00000000c05eb714                __put_user_8
 *fill*         0x00000000c05eb733        0x1 9090
 .text          0x00000000c05eb734        0x0 arch/x86/lib/lib.a(semaphore_32.o)
 *fill*         0x00000000c05eb734        0xc 9090
 .text          0x00000000c05eb740      0x1e5 arch/x86/lib/lib.a(string_32.o)
                0x00000000c05eb740                strcpy
                0x00000000c05eb770                strncpy
                0x00000000c05eb7a0                strcat
                0x00000000c05eb7e0                strncat
                0x00000000c05eb830                strcmp
                0x00000000c05eb860                strncmp
                0x00000000c05eb890                strchr
                0x00000000c05eb8b0                strlen
                0x00000000c05eb8d0                memchr
                0x00000000c05eb8f0                memscan
                0x00000000c05eb910                strnlen
 *fill*         0x00000000c05eb925        0xb 9090
 .text          0x00000000c05eb930       0x45 arch/x86/lib/lib.a(strstr_32.o)
                0x00000000c05eb930                strstr
 *fill*         0x00000000c05eb975        0xb 9090
 .text          0x00000000c05eb980      0x897 arch/x86/lib/lib.a(usercopy_32.o)
                0x00000000c05eb980                __copy_to_user_ll
                0x00000000c05eba70                __copy_from_user_ll
                0x00000000c05ebb60                __copy_from_user_ll_nozero
                0x00000000c05ebc50                __copy_from_user_ll_nocache
                0x00000000c05ebd50                __copy_from_user_ll_nocache_nozero
                0x00000000c05ebe50                strnlen_user
                0x00000000c05ebea0                __clear_user
                0x00000000c05ebee0                clear_user
                0x00000000c05ebf40                strncpy_from_user
                0x00000000c05ebfa0                __strncpy_from_user
                0x00000000c05ebfe0                copy_to_user
                0x00000000c05ec0f0                copy_from_user
 *fill*         0x00000000c05ec217        0x9 9090
 .text          0x00000000c05ec220     0x8330 lib/built-in.o
                0x00000000c05ec220                bcd2bin
                0x00000000c05ec240                bin2bcd
                0x00000000c05ec260                __div64_32
                0x00000000c05ec380                iter_div_u64_rem
                0x00000000c05ec3c0                div64_u64
                0x00000000c05ec440                div_s64_rem
                0x00000000c05ec530                sort
                0x00000000c05ec6f0                match_strlcpy
                0x00000000c05ec740                match_token
                0x00000000c05ec9b0                match_hex
                0x00000000c05ec9c0                match_octal
                0x00000000c05ec9d0                match_int
                0x00000000c05ec9e0                match_strdup
                0x00000000c05eca30                half_md4_transform
                0x00000000c05ecce0                debug_locks_off
                0x00000000c05ecd90                random32
                0x00000000c05ecdb0                srandom32
                0x00000000c05ece00                bust_spinlocks
                0x00000000c05ece40                hex_dump_to_buffer
                0x00000000c05ed180                print_hex_dump
                0x00000000c05ed300                print_hex_dump_bytes
                0x00000000c05ed340                kvasprintf
                0x00000000c05ed3a0                kasprintf
                0x00000000c05ed3c0                __bitmap_empty
                0x00000000c05ed430                __bitmap_full
                0x00000000c05ed4b0                __bitmap_equal
                0x00000000c05ed530                __bitmap_complement
                0x00000000c05ed590                __bitmap_and
                0x00000000c05ed5d0                __bitmap_or
                0x00000000c05ed600                __bitmap_xor
                0x00000000c05ed630                __bitmap_andnot
                0x00000000c05ed670                __bitmap_intersects
                0x00000000c05ed6f0                __bitmap_subset
                0x00000000c05ed840                bitmap_find_free_region
                0x00000000c05ed8c0                bitmap_release_region
                0x00000000c05ed8e0                bitmap_allocate_region
                0x00000000c05ed930                bitmap_copy_le
                0x00000000c05ed9d0                __bitmap_shift_left
                0x00000000c05edb10                __bitmap_shift_right
                0x00000000c05edc90                __bitmap_weight
                0x00000000c05edd90                bitmap_remap
                0x00000000c05ede60                bitmap_scnlistprintf
                0x00000000c05edf70                bitmap_scnprintf
                0x00000000c05ee040                bitmap_bitremap
                0x00000000c05ee0c0                bitmap_parselist
                0x00000000c05ee1a0                __bitmap_parse
                0x00000000c05ee370                bitmap_parse_user
                0x00000000c05ee3d0                bitmap_onto
                0x00000000c05ee450                bitmap_fold
                0x00000000c05ee4d0                sg_init_table
                0x00000000c05ee540                __sg_alloc_table
                0x00000000c05ee630                __sg_free_table
                0x00000000c05ee6a0                sg_free_table
                0x00000000c05ee6b0                sg_alloc_table
                0x00000000c05ee700                sg_init_one
                0x00000000c05ee770                sg_next
                0x00000000c05ee790                sg_last
                0x00000000c05ee7d0                sg_miter_start
                0x00000000c05ee840                sg_miter_stop
                0x00000000c05ee8d0                sg_miter_next
                0x00000000c05eeaa0                sg_copy_to_buffer
                0x00000000c05eeac0                sg_copy_from_buffer
                0x00000000c05eeb30                string_get_size
                0x00000000c05eee30                gcd
                0x00000000c05eee50                lcm
                0x00000000c05eee80                ioport_map
                0x00000000c05eeea0                ioport_unmap
                0x00000000c05eeef0                pci_iounmap
                0x00000000c05eef20                iowrite32_rep
                0x00000000c05eef70                iowrite16_rep
                0x00000000c05eefd0                iowrite8_rep
                0x00000000c05ef020                ioread32_rep
                0x00000000c05ef070                ioread16_rep
                0x00000000c05ef0d0                ioread8_rep
                0x00000000c05ef120                iowrite32
                0x00000000c05ef160                iowrite16
                0x00000000c05ef1a0                iowrite8
                0x00000000c05ef1e0                ioread32be
                0x00000000c05ef210                ioread32
                0x00000000c05ef240                ioread16be
                0x00000000c05ef280                ioread16
                0x00000000c05ef2b0                ioread8
                0x00000000c05ef2e0                pci_iomap
                0x00000000c05ef3c0                iowrite32be
                0x00000000c05ef400                iowrite16be
                0x00000000c05ef440                __iowrite32_copy
                0x00000000c05ef460                __iowrite64_copy
                0x00000000c05ef4c0                pcim_iomap_table
                0x00000000c05ef520                pcim_iounmap
                0x00000000c05ef570                pcim_iounmap_regions
                0x00000000c05ef5c0                pcim_iomap
                0x00000000c05ef620                pcim_iomap_regions
                0x00000000c05ef740                pcim_iomap_regions_request_all
                0x00000000c05ef7c0                devm_ioport_unmap
                0x00000000c05ef820                devm_ioport_map
                0x00000000c05ef8a0                devm_iounmap
                0x00000000c05ef900                devm_ioremap_release
                0x00000000c05ef910                devm_ioremap_nocache
                0x00000000c05ef990                devm_ioremap
                0x00000000c05efa10                check_signature
                0x00000000c05efa50                find_last_bit
                0x00000000c05efaa0                hweight32
                0x00000000c05efaf0                hweight16
                0x00000000c05efb30                hweight8
                0x00000000c05efb60                hweight64
                0x00000000c05efb90                list_del
                0x00000000c05efc20                __list_add
                0x00000000c05efcd0                bitrev16
                0x00000000c05efcf0                bitrev32
                0x00000000c05efd40                crc16
                0x00000000c05efd70                crc32_be
                0x00000000c05efe40                crc32_le
                0x00000000c05eff10                gen_pool_free
                0x00000000c05f0000                gen_pool_alloc
                0x00000000c05f0160                gen_pool_destroy
                0x00000000c05f01e0                gen_pool_add
                0x00000000c05f0270                gen_pool_create
                0x00000000c05f0320                inflate_fast
                0x00000000c05f09d0                zlib_inflate_workspacesize
                0x00000000c05f09e0                zlib_inflateReset
                0x00000000c05f0a70                zlib_inflateInit2
                0x00000000c05f0ad0                zlib_inflateEnd
                0x00000000c05f0bd0                zlib_inflate
                0x00000000c05f21e0                zlib_inflateIncomp
                0x00000000c05f23c0                zlib_inflate_blob
                0x00000000c05f24f0                zlib_inflate_table
                0x00000000c05f2aa0                textsearch_find_continuous
                0x00000000c05f2af0                textsearch_destroy
                0x00000000c05f2b50                textsearch_unregister
                0x00000000c05f2bc0                textsearch_register
                0x00000000c05f2c70                textsearch_prepare
                0x00000000c05f2e80                percpu_counter_destroy
                0x00000000c05f2ec0                __percpu_counter_init
                0x00000000c05f2f30                __percpu_counter_add
                0x00000000c05f2fd0                __percpu_counter_sum
                0x00000000c05f3030                percpu_counter_set
                0x00000000c05f3090                audit_classify_arch
                0x00000000c05f30a0                audit_classify_syscall
                0x00000000c05f3160                task_current_syscall
                0x00000000c05f3490                ddebug_remove_module
                0x00000000c05f3cd0                ddebug_add_module
                0x00000000c05f3dd0                nla_policy_len
                0x00000000c05f3e30                nla_find
                0x00000000c05f3e80                nla_memcpy
                0x00000000c05f3ec0                nla_strlcpy
                0x00000000c05f3f50                nla_append
                0x00000000c05f3fc0                __nla_reserve_nohdr
                0x00000000c05f4000                __nla_put_nohdr
                0x00000000c05f4040                nla_put_nohdr
                0x00000000c05f4090                nla_reserve_nohdr
                0x00000000c05f40c0                __nla_reserve
                0x00000000c05f4130                __nla_put
                0x00000000c05f4170                nla_put
                0x00000000c05f41c0                nla_reserve
                0x00000000c05f4210                nla_strcmp
                0x00000000c05f4250                nla_memcmp
                0x00000000c05f4410                nla_parse
                0x00000000c05f44f0                nla_validate
 .text          0x00000000c05f4550      0x6db arch/x86/lib/built-in.o
                0x00000000c05f4630                wrmsr_safe_regs_on_cpu
                0x00000000c05f4660                rdmsr_safe_regs_on_cpu
                0x00000000c05f4690                wrmsr_safe_on_cpu
                0x00000000c05f4700                rdmsr_safe_on_cpu
                0x00000000c05f4770                wrmsr_on_cpu
                0x00000000c05f47e0                rdmsr_on_cpu
                0x00000000c05f48c0                wrmsr_on_cpus
                0x00000000c05f48e0                rdmsr_on_cpus
                0x00000000c05f4910                wbinvd_on_all_cpus
                0x00000000c05f4930                wbinvd_on_cpu
                0x00000000c05f4950                msrs_free
                0x00000000c05f4960                msrs_alloc
                0x00000000c05f4998                native_rdmsr_safe_regs
                0x00000000c05f49e4                native_wrmsr_safe_regs
                0x00000000c05f4a60                atomic64_cmpxchg
                0x00000000c05f4a70                atomic64_xchg
                0x00000000c05f4ad0                atomic64_set
                0x00000000c05f4ae0                atomic64_add_return
                0x00000000c05f4b50                atomic64_sub_return
                0x00000000c05f4b60                atomic64_inc_return
                0x00000000c05f4b80                atomic64_dec_return
                0x00000000c05f4ba0                atomic64_add
                0x00000000c05f4bb0                atomic64_sub
                0x00000000c05f4bc0                atomic64_sub_and_test
                0x00000000c05f4bd0                atomic64_inc
                0x00000000c05f4be0                atomic64_dec
                0x00000000c05f4bf0                atomic64_dec_and_test
                0x00000000c05f4c00                atomic64_inc_and_test
                0x00000000c05f4c20                atomic64_add_negative
 *fill*         0x00000000c05f4c2b        0x5 9090
 .text          0x00000000c05f4c30   0x165d20 drivers/built-in.o
                0x00000000c05f4c30                gpiochip_is_requested
                0x00000000c05f4c60                __gpio_get_value
                0x00000000c05f4c80                __gpio_set_value
                0x00000000c05f4ca0                __gpio_cansleep
                0x00000000c05f4cc0                __gpio_to_irq
                0x00000000c05f4cf0                gpio_get_value_cansleep
                0x00000000c05f4d10                gpio_set_value_cansleep
                0x00000000c05f5000                gpiochip_remove
                0x00000000c05f50a0                gpiochip_add
                0x00000000c05f5350                gpio_direction_input
                0x00000000c05f54c0                gpio_direction_output
                0x00000000c05f5640                gpio_free
                0x00000000c05f5710                gpio_request
                0x00000000c05f5c30                pci_read_vpd
                0x00000000c05f5ca0                pci_write_vpd
                0x00000000c05f5d10                pci_vpd_truncate
                0x00000000c05f5d50                pci_unblock_user_cfg_access
                0x00000000c05f5dd0                pci_block_user_cfg_access
                0x00000000c05f5e20                pci_bus_set_ops
                0x00000000c05f5e60                pci_bus_write_config_dword
                0x00000000c05f5ed0                pci_bus_write_config_word
                0x00000000c05f5f50                pci_bus_write_config_byte
                0x00000000c05f5fd0                pci_bus_read_config_dword
                0x00000000c05f6050                pci_bus_read_config_word
                0x00000000c05f60d0                pci_bus_read_config_byte
                0x00000000c05f61f0                pci_user_write_config_dword
                0x00000000c05f6280                pci_user_write_config_word
                0x00000000c05f6310                pci_user_write_config_byte
                0x00000000c05f6390                pci_user_read_config_dword
                0x00000000c05f6430                pci_user_read_config_word
                0x00000000c05f6890                pci_user_read_config_byte
                0x00000000c05f6920                pci_vpd_pci22_init
                0x00000000c05f6a10                pci_walk_bus
                0x00000000c05f6aa0                pci_enable_bridges
                0x00000000c05f6b00                pci_bus_add_child
                0x00000000c05f6b70                pci_bus_add_device
                0x00000000c05f6bb0                pci_bus_add_devices
                0x00000000c05f6cd0                pci_bus_alloc_resource
                0x00000000c05f6eb0                pci_cfg_space_size_ext
                0x00000000c05f6ef0                pci_device_add
                0x00000000c05f6ff0                pci_cfg_space_size
                0x00000000c05f70d0                __pci_read_base
                0x00000000c05f7550                pci_setup_device
                0x00000000c05f7b10                no_pci_devices
                0x00000000c05f7b40                alloc_pci_dev
                0x00000000c05f7bd0                pci_scan_slot
                0x00000000c05f7c70                pci_create_bus
                0x00000000c05f7f40                pci_stop_bus_device
                0x00000000c05f7fc0                pci_remove_bus
                0x00000000c05f8020                pci_remove_bus_device
                0x00000000c05f80b0                pci_remove_behind_bridge
                0x00000000c05f80f0                pci_bus_max_busnr
                0x00000000c05f8130                pci_find_parent_resource
                0x00000000c05f81c0                pci_set_platform_pm
                0x00000000c05f8210                pcibios_set_pcie_reset_state
                0x00000000c05f8220                pci_set_pcie_reset_state
                0x00000000c05f8230                pci_pme_capable
                0x00000000c05f8250                pci_target_state
                0x00000000c05f8300                platform_pci_wakeup_init
                0x00000000c05f8340                pci_swizzle_interrupt_pin
                0x00000000c05f8380                pci_get_interrupt_pin
                0x00000000c05f83c0                pci_common_swizzle
                0x00000000c05f8400                pci_set_dma_max_seg_size
                0x00000000c05f8420                pci_set_dma_seg_boundary
                0x00000000c05f8440                pci_select_bars
                0x00000000c05f8480                pci_fixup_cardbus
                0x00000000c05f8490                pci_get_resource_alignment_param
                0x00000000c05f84f0                pci_set_resource_alignment_param
                0x00000000c05f8550                pci_specified_resource_alignment
                0x00000000c05f8700                pci_is_reassigndev
                0x00000000c05f8710                pci_resource_bar
                0x00000000c05f87c0                pci_find_ext_capability
                0x00000000c05f8920                pci_find_capability
                0x00000000c05f89b0                pcix_get_max_mmrbc
                0x00000000c05f8a00                pci_choose_state
                0x00000000c05f8a80                pci_find_next_capability
                0x00000000c05f8b80                pci_find_ht_capability
                0x00000000c05f8c00                pci_find_next_ht_capability
                0x00000000c05f8c10                pci_bus_find_capability
                0x00000000c05f8cc0                pci_set_consistent_dma_mask
                0x00000000c05f8d10                pci_set_dma_mask
                0x00000000c05f8d90                pcim_pin_device
                0x00000000c05f8fe0                pci_request_region_exclusive
                0x00000000c05f9000                pci_request_region
                0x00000000c05f9020                pci_release_region
                0x00000000c05f91a0                __pci_request_selected_regions
                0x00000000c05f9220                pci_request_selected_regions_exclusive
                0x00000000c05f9240                pci_request_regions_exclusive
                0x00000000c05f9250                pci_request_selected_regions
                0x00000000c05f9270                pci_request_regions
                0x00000000c05f9280                pci_release_selected_regions
                0x00000000c05f92d0                pci_release_regions
                0x00000000c05f92e0                pci_ioremap_bar
                0x00000000c05f93e0                pci_allocate_cap_save_buffers
                0x00000000c05f9470                pci_clear_mwi
                0x00000000c05f94c0                pci_intx
                0x00000000c05f95b0                pci_disable_enabled_device
                0x00000000c05f95d0                pci_disable_device
                0x00000000c05f97b0                pci_clear_master
                0x00000000c05f97c0                pci_set_master
                0x00000000c05f97e0                pcie_get_readrq
                0x00000000c05f9830                pci_set_vga_state
                0x00000000c05f9970                pci_set_mwi
                0x00000000c05f9af0                pci_try_set_mwi
                0x00000000c05f9b00                pci_msi_off
                0x00000000c05f9bb0                pci_save_state
                0x00000000c05f9e70                pci_update_current_state
                0x00000000c05f9f50                __pci_complete_power_transition
                0x00000000c05f9f70                pci_restore_state
                0x00000000c05fa2d0                pci_enable_ari
                0x00000000c05fa750                pci_probe_reset_function
                0x00000000c05fa760                __pci_reset_function
                0x00000000c05fa770                pci_reset_function
                0x00000000c05fa7d0                pcix_set_mmrbc
                0x00000000c05fa8e0                pcix_get_mmrbc
                0x00000000c05fa930                pcie_set_readrq
                0x00000000c05fa9e0                pci_set_power_state
                0x00000000c05fad30                pci_enable_device
                0x00000000c05fad40                pcim_enable_device
                0x00000000c05fadf0                pci_enable_device_mem
                0x00000000c05fae00                pci_enable_device_io
                0x00000000c05fae10                pci_reenable_device
                0x00000000c05fae30                pci_pme_active
                0x00000000c05faef0                pci_enable_wake
                0x00000000c05fafe0                pci_wake_from_d3
                0x00000000c05fb010                pci_back_from_sleep
                0x00000000c05fb030                pci_prepare_to_sleep
                0x00000000c05fb0a0                pci_pm_init
                0x00000000c05fb920                pci_fixup_device
                0x00000000c05fc490                pci_match_id
                0x00000000c05fc570                pci_dev_driver
                0x00000000c05fd230                pci_dev_put
                0x00000000c05fd290                pci_dev_get
                0x00000000c05fd480                pci_unregister_driver
                0x00000000c05fd4e0                __pci_register_driver
                0x00000000c05fd590                pci_add_dynid
                0x00000000c05fd880                pci_find_upstream_pcie_bridge
                0x00000000c05fd950                pci_dev_present
                0x00000000c05fd9b0                pci_get_slot
                0x00000000c05fda20                pci_find_next_bus
                0x00000000c05fda80                pci_find_bus
                0x00000000c05fdac0                pci_get_subsys
                0x00000000c05fdba0                pci_get_device
                0x00000000c05fdbc0                pci_get_bus_and_slot
                0x00000000c05fdc00                pci_get_class
                0x00000000c05fdce0                pci_mmap_fits
                0x00000000c05fde20                pcibios_add_platform_entries
                0x00000000c05fe940                pci_remove_sysfs_dev_files
                0x00000000c05ff050                pci_create_sysfs_dev_files
                0x00000000c05ff530                pci_cleanup_rom
                0x00000000c05ff580                pci_get_rom_size
                0x00000000c05ff620                pci_disable_rom
                0x00000000c05ff660                pci_unmap_rom
                0x00000000c05ff690                pci_enable_rom
                0x00000000c05ff710                pci_map_rom
                0x00000000c05ff880                pci_enable_resources
                0x00000000c05ff9b0                pci_disable_bridge_window
                0x00000000c05ffa60                pci_claim_resource
                0x00000000c05ffb30                pci_update_resource
                0x00000000c05ffe10                pdev_sort_resources
                0x00000000c0600050                pci_assign_resource
                0x00000000c06003d0                pci_lost_interrupt
                0x00000000c0600680                pci_proc_detach_bus
                0x00000000c06006a0                pci_proc_detach_device
                0x00000000c06006e0                pci_proc_attach_device
                0x00000000c0600fc0                pci_hp_remove_module_link
                0x00000000c0600fd0                pci_hp_create_module_link
                0x00000000c0601030                pci_destroy_slot
                0x00000000c06010d0                pci_renumber_slot
                0x00000000c0601340                pci_create_slot
                0x00000000c0601630                pci_find_device
                0x00000000c06017b0                pcie_no_aspm
                0x00000000c06017d0                pcie_aspm_enabled
                0x00000000c0601bf0                pci_disable_link_state
                0x00000000c0601dd0                pcie_aspm_pm_state_change
                0x00000000c0601e40                pcie_aspm_exit_link_state
                0x00000000c0601fd0                pcie_aspm_init_link_state
                0x00000000c0602820                pcie_port_service_unregister
                0x00000000c0602830                pcie_port_service_register
                0x00000000c0602970                pcie_port_device_resume
                0x00000000c0602980                pcie_port_device_suspend
                0x00000000c06029a0                pcie_port_device_remove
                0x00000000c0602a30                pcie_port_device_probe
                0x00000000c0602a80                pcie_port_device_register
                0x00000000c06032c0                pcie_port_bus_unregister
                0x00000000c06032d0                pcie_port_bus_register
                0x00000000c06032e0                aer_print_port_info
                0x00000000c0603360                aer_print_error
                0x00000000c0603960                aer_init
                0x00000000c0603b10                pci_disable_pcie_error_reporting
                0x00000000c0603b80                pci_enable_pcie_error_reporting
                0x00000000c0603ca0                aer_delete_rootport
                0x00000000c0603d30                aer_enable_rootport
                0x00000000c0603e60                pci_cleanup_aer_uncorrect_error_status
                0x00000000c0604290                aer_isr
                0x00000000c06047d0                pci_no_aer
                0x00000000c0604a70                aer_irq
                0x00000000c0604ba0                aer_osc_setup
                0x00000000c0604c30                pcie_ecrc_get_policy
                0x00000000c0604c90                pcie_set_ecrc_checking
                0x00000000c0604d60                pci_uevent
                0x00000000c0604e80                pci_hp_change_slot_info
                0x00000000c0604ec0                pci_hp_deregister
                0x00000000c06051e0                __pci_hp_register
                0x00000000c0605ec0                pci_configure_slot
                0x00000000c0606340                acpi_pci_detect_ejectable
                0x00000000c0606430                acpi_pci_check_ejectable
                0x00000000c06064a0                pci_get_hp_params
                0x00000000c0606970                acpi_get_hp_hw_control_from_firmware
                0x00000000c0607940                pciehp_handle_power_fault
                0x00000000c0607a50                pciehp_handle_presence_change
                0x00000000c0607b40                pciehp_handle_switch_change
                0x00000000c0607c30                pciehp_handle_attention_button
                0x00000000c0607da0                pciehp_disable_slot
                0x00000000c0607f90                pciehp_sysfs_disable_slot
                0x00000000c06080d0                pciehp_enable_slot
                0x00000000c06083b0                pciehp_sysfs_enable_slot
                0x00000000c0608a40                pciehp_queue_pushbutton_work
                0x00000000c0608b80                pciehp_unconfigure_device
                0x00000000c0608d10                pciehp_configure_device
                0x00000000c0608e80                pciehp_get_max_lnk_width
                0x00000000c0608f60                pciehp_get_max_link_speed
                0x00000000c0609690                pcie_enable_notification
                0x00000000c0609710                pcie_init_notification
                0x00000000c06097f0                pciehp_power_on_slot
                0x00000000c0609990                pciehp_green_led_blink
                0x00000000c0609a10                pciehp_green_led_off
                0x00000000c0609a90                pciehp_green_led_on
                0x00000000c0609b10                pciehp_set_attention_status
                0x00000000c0609bd0                pciehp_power_off_slot
                0x00000000c0609d70                pciehp_get_cur_lnk_width
                0x00000000c0609e50                pciehp_get_cur_link_speed
                0x00000000c0609f30                pciehp_query_power_fault
                0x00000000c0609fa0                pciehp_get_adapter_status
                0x00000000c060a030                pciehp_get_latch_status
                0x00000000c060a0c0                pciehp_get_power_status
                0x00000000c060a1a0                pciehp_get_attention_status
                0x00000000c060a2b0                pciehp_check_link_status
                0x00000000c060a460                pciehp_release_ctrl
                0x00000000c060a4f0                pcie_init
                0x00000000c060aea0                pciehp_acpi_slot_detection_check
                0x00000000c060aed0                acpiphp_register_attention
                0x00000000c060af10                acpiphp_unregister_attention
                0x00000000c060af40                acpiphp_unregister_hotplug_slot
                0x00000000c060b3e0                acpiphp_register_hotplug_slot
                0x00000000c060b670                acpiphp_get_power_status
                0x00000000c060b740                acpiphp_get_adapter_status
                0x00000000c060b750                acpiphp_get_latch_status
                0x00000000c060bbf0                acpiphp_eject_slot
                0x00000000c060c120                acpiphp_disable_slot
                0x00000000c060c2d0                acpiphp_glue_exit
                0x00000000c060c5a0                acpiphp_enable_slot
                0x00000000c060d520                arch_msi_check_device
                0x00000000c060d530                pci_no_msi
                0x00000000c060d540                pci_msi_enabled
                0x00000000c060d550                pci_msi_init_pci_dev
                0x00000000c060d570                get_cached_msi_msg_desc
                0x00000000c060d5a0                get_cached_msi_msg
                0x00000000c060d640                pci_msix_table_size
                0x00000000c060d710                pci_msix_shutdown
                0x00000000c060d7e0                read_msi_msg_desc
                0x00000000c060d8a0                read_msi_msg
                0x00000000c060d8b0                pci_msi_shutdown
                0x00000000c060da70                unmask_msi_irq
                0x00000000c060da80                mask_msi_irq
                0x00000000c060da90                write_msi_msg_desc
                0x00000000c060dbb0                write_msi_msg
                0x00000000c060dbc0                pci_restore_msi_state
                0x00000000c060dd70                arch_teardown_msi_irqs
                0x00000000c060dec0                msi_remove_pci_irq_vectors
                0x00000000c060def0                pci_disable_msix
                0x00000000c060df20                pci_disable_msi
                0x00000000c060dff0                pci_enable_msix
                0x00000000c060e390                pci_enable_msi_block
                0x00000000c060e5f0                fetch_ht_irq_msg
                0x00000000c060e610                ht_destroy_irq
                0x00000000c060e650                write_ht_irq_msg
                0x00000000c060e740                unmask_ht_irq
                0x00000000c060e770                mask_ht_irq
                0x00000000c060e7a0                __ht_create_irq
                0x00000000c060e930                ht_create_irq
                0x00000000c060e940                dmar_find_matched_atsr_unit
                0x00000000c060e9f0                dmar_pci_device_match
                0x00000000c060ea30                dmar_find_matched_drhd_unit
                0x00000000c060eab0                dmar_get_fault_reason
                0x00000000c060eb00                dmar_ir_support
                0x00000000c060ec40                dmar_disable_qi
                0x00000000c060ee50                dmar_reenable_qi
                0x00000000c060ee80                dmar_fault
                0x00000000c060f0d0                dmar_set_interrupt
                0x00000000c060f190                dmar_msi_read
                0x00000000c060f1e0                dmar_msi_write
                0x00000000c060f230                dmar_msi_mask
                0x00000000c060f270                dmar_msi_unmask
                0x00000000c060f2b0                qi_submit_sync
                0x00000000c060f640                qi_flush_dev_iotlb
                0x00000000c060f740                qi_flush_iotlb
                0x00000000c060f800                qi_flush_context
                0x00000000c060f870                qi_global_iec
                0x00000000c060f8a0                free_iommu
                0x00000000c060f8e0                alloc_iommu
                0x00000000c060fc70                dmar_enable_qi
                0x00000000c060fe00                init_iova_domain
                0x00000000c060fe20                find_iova
                0x00000000c060fe80                reserve_iova
                0x00000000c060ff60                copy_reserved_iova
                0x00000000c060ffd0                put_iova_domain
                0x00000000c0610010                __free_iova
                0x00000000c0610070                free_iova
                0x00000000c06100c0                alloc_iova
                0x00000000c0610930                free_iova_mem
                0x00000000c0610990                iommu_calculate_agaw
                0x00000000c06109a0                iommu_calculate_max_sagaw
                0x00000000c06124b0                free_dmar_iommu
                0x00000000c0612ea0                alloc_iova_mem
                0x00000000c0614eb0                pci_iov_bus_range
                0x00000000c0614f40                pci_ats_queue_depth
                0x00000000c0614fb0                pci_iov_resource_bar
                0x00000000c0614fe0                pci_disable_ats
                0x00000000c06150e0                pci_sriov_migration
                0x00000000c0615150                pci_iov_release
                0x00000000c0615340                pci_disable_sriov
                0x00000000c0615960                pci_enable_sriov
                0x00000000c0615de0                pci_restore_iov_state
                0x00000000c0615eb0                pci_sriov_resource_alignment
                0x00000000c0615f20                pci_iov_init
                0x00000000c0616370                pci_enable_ats
                0x00000000c0616a30                pci_setup_cardbus
                0x00000000c0616ea0                fb_notifier_call_chain
                0x00000000c0616eb0                fb_unregister_client
                0x00000000c0616ec0                fb_register_client
                0x00000000c0616ed0                fb_get_color_depth
                0x00000000c0616f30                fb_pad_aligned_buffer
                0x00000000c0616f80                fb_pad_unaligned_buffer
                0x00000000c0617070                fb_get_buffer_offset
                0x00000000c0617180                fb_pan_display
                0x00000000c0617310                lock_fb_info
                0x00000000c0617640                fb_set_suspend
                0x00000000c06176b0                fb_blank
                0x00000000c0617760                fb_get_options
                0x00000000c0617860                unregister_framebuffer
                0x00000000c0617950                fb_set_var
                0x00000000c0618170                fb_new_modelist
                0x00000000c0618370                fb_prepare_logo
                0x00000000c06185b0                fb_show_logo
                0x00000000c0618e90                register_framebuffer
                0x00000000c0619700                fb_validate_mode
                0x00000000c0619870                fb_firmware_edid
                0x00000000c0619880                fb_destroy_modedb
                0x00000000c0619cb0                fb_parse_edid
                0x00000000c0619f10                fb_get_mode
                0x00000000c061b220                fb_edid_to_monspecs
                0x00000000c061b980                fb_default_cmap
                0x00000000c061b9b0                fb_invert_cmaps
                0x00000000c061ba50                fb_cmap_to_user
                0x00000000c061bb30                fb_copy_cmap
                0x00000000c061bc20                fb_set_cmap
                0x00000000c061bd50                fb_dealloc_cmap
                0x00000000c061bda0                fb_alloc_cmap
                0x00000000c061be90                fb_set_user_cmap
                0x00000000c061c000                fb_bl_default_curve
                0x00000000c061c080                fb_cleanup_device
                0x00000000c061cbc0                fb_init_device
                0x00000000c061cc50                framebuffer_release
                0x00000000c061cc60                framebuffer_alloc
                0x00000000c061cd80                fb_var_to_videomode
                0x00000000c061ce60                fb_videomode_to_var
                0x00000000c061ced0                fb_mode_is_equal
                0x00000000c061cf40                fb_find_best_mode
                0x00000000c061cfe0                fb_find_nearest_mode
                0x00000000c061d080                fb_match_mode
                0x00000000c061d0c0                fb_find_best_display
                0x00000000c061d1f0                fb_destroy_modelist
                0x00000000c061d220                fb_delete_videomode
                0x00000000c061d270                fb_find_mode
                0x00000000c061d9e0                fb_add_videomode
                0x00000000c061daf0                fb_videomode_to_modelist
                0x00000000c061db30                fb_find_mode_cvt
                0x00000000c061e370                vgacon_text_force
                0x00000000c0626b90                fbcon_set_bitops
                0x00000000c06277d0                get_default_font
                0x00000000c0627880                find_font
                0x00000000c06278c0                soft_cursor
                0x00000000c0627dc0                fbcon_set_tileops
                0x00000000c0627f30                fbcon_set_rotate
                0x00000000c0628700                fbcon_rotate_cw
                0x00000000c06297e0                fbcon_rotate_ud
                0x00000000c062a890                fbcon_rotate_ccw
                0x00000000c062b8a0                backlight_force_update
                0x00000000c062b8f0                backlight_device_unregister
                0x00000000c062b960                backlight_device_register
                0x00000000c062c360                cfb_fillrect
                0x00000000c062c640                cfb_copyarea
                0x00000000c062cfe0                cfb_imageblit
                0x00000000c062da40                sys_fillrect
                0x00000000c062dd10                sys_copyarea
                0x00000000c062e710                sys_imageblit
                0x00000000c062ec40                fb_sys_write
                0x00000000c062ed30                fb_sys_read
                0x00000000c062ee10                fb_deferred_io_open
                0x00000000c062ee20                fb_deferred_io_init
                0x00000000c062ef20                fb_deferred_io_fsync
                0x00000000c062ef50                fb_deferred_io_page
                0x00000000c062efc0                fb_deferred_io_cleanup
                0x00000000c062f530                gx_frame_buffer_size
                0x00000000c062f570                gx_line_delta
                0x00000000c062f580                gx_set_hw_palette_reg
                0x00000000c062f5d0                gx_set_mode
                0x00000000c062f730                gx_set_dclk_frequency
                0x00000000c062f860                gx_configure_display
                0x00000000c062f9e0                gx_blank_display
                0x00000000c062fb00                gx_powerdown
                0x00000000c062fc30                gx_powerup
                0x00000000c06301f0                lx_framebuffer_size
                0x00000000c0630230                lx_set_palette_reg
                0x00000000c0630280                lx_blank_display
                0x00000000c0630470                lx_powerup
                0x00000000c0630830                lx_powerdown
                0x00000000c06309d0                lx_set_mode
                0x00000000c0631d7c                acpi_table_print_madt_entry
                0x00000000c0631f84                acpi_os_read_port
                0x00000000c0631fc6                acpi_os_write_port
                0x00000000c0631ff2                acpi_os_create_lock
                0x00000000c0631ffd                acpi_os_delete_lock
                0x00000000c0631ffe                acpi_os_signal
                0x00000000c0632010                acpi_os_get_timer
                0x00000000c063204d                acpi_check_resource_conflict
                0x00000000c0632168                acpi_check_mem_region
                0x00000000c06321b8                acpi_check_region
                0x00000000c0632244                acpi_os_delete_semaphore
                0x00000000c0632263                acpi_os_create_semaphore
                0x00000000c06322ed                acpi_os_invalidate_address
                0x00000000c063237c                acpi_os_validate_interface
                0x00000000c06323f7                acpi_os_release_object
                0x00000000c06323ff                acpi_os_delete_cache
                0x00000000c0632407                acpi_os_purge_cache
                0x00000000c063240f                acpi_os_create_cache
                0x00000000c063242e                acpi_os_release_lock
                0x00000000c0632433                acpi_os_acquire_lock
                0x00000000c0632438                acpi_os_signal_semaphore
                0x00000000c063245b                acpi_os_wait_semaphore
                0x00000000c063249f                acpi_os_wait_events_complete
                0x00000000c0632594                acpi_os_hotplug_execute
                0x00000000c06325a3                acpi_os_execute
                0x00000000c06325ac                acpi_os_write_pci_configuration
                0x00000000c0632617                acpi_os_read_pci_configuration
                0x00000000c06327a5                acpi_os_derive_pci_id
                0x00000000c06327ce                acpi_os_write_memory
                0x00000000c0632807                acpi_os_read_memory
                0x00000000c0632850                acpi_os_stall
                0x00000000c063287d                acpi_os_sleep
                0x00000000c0632887                acpi_os_remove_interrupt_handler
                0x00000000c06328ac                acpi_os_install_interrupt_handler
                0x00000000c0632937                acpi_os_table_override
                0x00000000c063294e                acpi_os_predefined_override
                0x00000000c06329a8                acpi_os_vprintf
                0x00000000c06329c8                acpi_os_printf
                0x00000000c06329d6                acpi_os_terminate
                0x00000000c0632a5d                acpi_os_initialize1
                0x00000000c0632aed                acpi_os_validate_address
                0x00000000c0632c48                acpi_evaluate_integer
                0x00000000c0632c98                acpi_evaluate_reference
                0x00000000c0632d94                acpi_extract_package
                0x00000000c0632fe0                acpi_reboot
                0x00000000c06330a8                acpi_enable_wakeup_device
                0x00000000c0633121                acpi_disable_wakeup_device
                0x00000000c06331d3                acpi_enable_wakeup_device_prep
                0x00000000c06335d7                acpi_pm_device_sleep_wake
                0x00000000c06336ab                acpi_pm_device_sleep_state
                0x00000000c06337d9                acpi_suspend
                0x00000000c0633b9c                acpi_bus_private_data_handler
                0x00000000c0633bb9                unregister_acpi_bus_notifier
                0x00000000c0633bc5                register_acpi_bus_notifier
                0x00000000c0633bd1                acpi_bus_receive_event
                0x00000000c0633d2e                acpi_run_osc
                0x00000000c0633ffe                acpi_bus_get_status_handle
                0x00000000c0634029                acpi_bus_get_status
                0x00000000c0634051                acpi_bus_get_private_data
                0x00000000c063407e                acpi_bus_get_device
                0x00000000c0634140                acpi_bus_can_wakeup
                0x00000000c0634163                acpi_bus_power_manageable
                0x00000000c0634185                acpi_bus_get_power
                0x00000000c063422f                acpi_bus_set_power
                0x00000000c06343b9                acpi_bus_generate_proc_event4
                0x00000000c063449b                acpi_bus_generate_proc_event
                0x00000000c0634631                acpi_get_physical_device
                0x00000000c06346e9                acpi_get_child
                0x00000000c0634767                unregister_acpi_bus_type
                0x00000000c06347b6                register_acpi_bus_type
                0x00000000c06348b2                acpi_bus_data_handler
                0x00000000c06348b3                acpi_device_hid
                0x00000000c0634c1c                acpi_bus_get_ejd
                0x00000000c0634c86                acpi_match_device_ids
                0x00000000c0635067                acpi_bus_trim
                0x00000000c0635220                acpi_bus_unregister_driver
                0x00000000c063522a                acpi_bus_register_driver
                0x00000000c0635be9                acpi_bus_start
                0x00000000c0635c14                acpi_bus_add
                0x00000000c0635ca6                acpi_ec_remove_query_handler
                0x00000000c06366c5                ec_burst_enable
                0x00000000c0636705                ec_read
                0x00000000c0636765                ec_write
                0x00000000c06367e4                ec_burst_disable
                0x00000000c0636968                ec_transaction
                0x00000000c0636b45                acpi_ec_add_query_handler
                0x00000000c0637518                is_dock_device
                0x00000000c06375b2                register_hotplug_dock_device
                0x00000000c0637660                unregister_hotplug_dock_device
                0x00000000c06376d9                unregister_dock_notifier
                0x00000000c06376ef                register_dock_notifier
                0x00000000c0637bc4                acpi_pci_register_driver
                0x00000000c0637c0f                acpi_get_pci_rootbridge_handle
                0x00000000c0637c91                acpi_pci_find_root
                0x00000000c0637d09                acpi_pci_unregister_driver
                0x00000000c0637f29                acpi_pci_osc_control_set
                0x00000000c0638054                acpi_is_root_bridge
                0x00000000c0638089                acpi_get_pci_dev
                0x00000000c06381f8                acpi_penalize_isa_irq
                0x00000000c06387a3                acpi_pci_link_free_irq
                0x00000000c0638825                acpi_pci_link_allocate_irq
                0x00000000c06389e4                acpi_unregister_gsi
                0x00000000c0638b41                acpi_pci_irq_disable
                0x00000000c0638bad                acpi_pci_irq_enable
                0x00000000c0638d9a                acpi_pci_irq_del_prt
                0x00000000c0638e03                acpi_pci_irq_add_prt
                0x00000000c063904c                acpi_pci_bind_root
                0x00000000c0639176                acpi_power_get_inferred_state
                0x00000000c0639256                acpi_device_sleep_wake
                0x00000000c0639460                acpi_disable_wakeup_device_power
                0x00000000c0639913                acpi_enable_wakeup_device_power
                0x00000000c06399c0                acpi_power_transition
                0x00000000c0639a88                acpi_os_gpe_count
                0x00000000c0639aab                acpi_os_fixed_event_count
                0x00000000c063a024                acpi_irq_stats_init
                0x00000000c063a3bd                acpi_bus_generate_netlink_event
                0x00000000c063a555                unregister_acpi_notifier
                0x00000000c063a561                register_acpi_notifier
                0x00000000c063a56d                acpi_notifier_call_chain
                0x00000000c063a5e0                acpi_unlock_battery_dir
                0x00000000c063a62e                acpi_unlock_ac_dir
                0x00000000c063a67c                acpi_lock_battery_dir
                0x00000000c063a6d6                acpi_lock_ac_dir
                0x00000000c063a730                acpi_video_get_capabilities
                0x00000000c063a7d5                acpi_video_display_switch_support
                0x00000000c063a809                acpi_video_backlight_support
                0x00000000c063a83d                acpi_is_video_device
                0x00000000c063ab63                acpi_ds_create_index_field
                0x00000000c063ac05                acpi_ds_create_bank_field
                0x00000000c063acbc                acpi_ds_create_field
                0x00000000c063ad3c                acpi_ds_init_field_objects
                0x00000000c063ae3a                acpi_ds_create_buffer_field
                0x00000000c063af40                acpi_ds_method_data_init
                0x00000000c063af9b                acpi_ds_method_data_get_node
                0x00000000c063b01f                acpi_ds_store_object_to_local
                0x00000000c063b14b                acpi_ds_method_data_init_args
                0x00000000c063b1a6                acpi_ds_method_data_get_value
                0x00000000c063b2a5                acpi_ds_method_data_delete_all
                0x00000000c063b2f4                acpi_ds_exec_end_control_op
                0x00000000c063b4d4                acpi_ds_exec_begin_control_op
                0x00000000c063b54f                acpi_ds_eval_bank_field_operands
                0x00000000c063b5cf                acpi_ds_eval_region_operands
                0x00000000c063b653                acpi_ds_eval_data_object_operands
                0x00000000c063b727                acpi_ds_eval_table_region_operands
                0x00000000c063b9e0                acpi_ds_eval_buffer_field_operands
                0x00000000c063baa1                acpi_ds_initialize_region
                0x00000000c063bbb0                acpi_ds_get_region_arguments
                0x00000000c063bc33                acpi_ds_get_package_arguments
                0x00000000c063bc71                acpi_ds_get_buffer_arguments
                0x00000000c063bcaf                acpi_ds_get_bank_field_arguments
                0x00000000c063bce4                acpi_ds_get_buffer_field_arguments
                0x00000000c063bd1c                acpi_ds_exec_begin_op
                0x00000000c063bde8                acpi_ds_get_predicate_value
                0x00000000c063bf3a                acpi_ds_exec_end_op
                0x00000000c063c284                acpi_ds_scope_stack_pop
                0x00000000c063c2a9                acpi_ds_scope_stack_clear
                0x00000000c063c2c7                acpi_ds_scope_stack_push
                0x00000000c063c385                acpi_ds_terminate_control_method
                0x00000000c063c438                acpi_ds_restart_control_method
                0x00000000c063c491                acpi_ds_begin_method_execution
                0x00000000c063c5d2                acpi_ds_method_error
                0x00000000c063c62e                acpi_ds_call_control_method
                0x00000000c063c7b8                acpi_ds_init_object_from_op
                0x00000000c063cad1                acpi_ds_create_node
                0x00000000c063cb4d                acpi_ds_build_internal_package_obj
                0x00000000c063ccd5                acpi_ds_build_internal_buffer_obj
                0x00000000c063cdb8                acpi_ds_resolve_operands
                0x00000000c063cde0                acpi_ds_clear_operands
                0x00000000c063ce0f                acpi_ds_clear_implicit_return
                0x00000000c063ce36                acpi_ds_create_operand
                0x00000000c063cff8                acpi_ds_evaluate_name_path
                0x00000000c063d0d3                acpi_ds_create_operands
                0x00000000c063d176                acpi_ds_do_implicit_return
                0x00000000c063d1be                acpi_ds_is_result_used
                0x00000000c063d2a8                acpi_ds_delete_result_if_not_used
                0x00000000c063d2f8                acpi_ds_init_callbacks
                0x00000000c063d364                acpi_ds_load2_end_op
                0x00000000c063d629                acpi_ds_load2_begin_op
                0x00000000c063d880                acpi_ds_load1_end_op
                0x00000000c063d9c0                acpi_ds_load1_begin_op
                0x00000000c063dbc0                acpi_ds_get_current_walk_state
                0x00000000c063dbcc                acpi_ds_push_walk_state
                0x00000000c063dbd5                acpi_ds_pop_walk_state
                0x00000000c063dbe4                acpi_ds_obj_stack_pop
                0x00000000c063dc2d                acpi_ds_obj_stack_push
                0x00000000c063dc6c                acpi_ds_delete_walk_state
                0x00000000c063dd12                acpi_ds_init_aml_walk
                0x00000000c063ddfe                acpi_ds_obj_stack_pop_and_delete
                0x00000000c063de3b                acpi_ds_result_push
                0x00000000c063df39                acpi_ds_result_pop
                0x00000000c063dff5                acpi_ds_create_walk_state
                0x00000000c063e0c4                acpi_ds_initialize_objects
                0x00000000c063e1d4                acpi_ev_fixed_event_detect
                0x00000000c063e271                acpi_ev_install_xrupt_handlers
                0x00000000c063e2bf                acpi_ev_install_fadt_gpes
                0x00000000c063e2fe                acpi_ev_initialize_events
                0x00000000c063e378                acpi_ev_execute_reg_methods
                0x00000000c063e39c                acpi_ev_install_space_handler
                0x00000000c063e57c                acpi_ev_attach_region
                0x00000000c063e59d                acpi_ev_initialize_op_regions
                0x00000000c063e5f7                acpi_ev_install_region_handlers
                0x00000000c063e657                acpi_ev_address_space_dispatch
                0x00000000c063e7c2                acpi_ev_execute_reg_method
                0x00000000c063e95a                acpi_ev_detach_region
                0x00000000c063eaf0                acpi_ev_remove_sci_handler
                0x00000000c063eb18                acpi_ev_gpe_xrupt_handler
                0x00000000c063eb1d                acpi_ev_install_sci_handler
                0x00000000c063eb60                acpi_enable_all_runtime_gpes
                0x00000000c063eb86                acpi_disable_all_gpes
                0x00000000c063ebac                acpi_get_gpe_device
                0x00000000c063ec03                acpi_remove_gpe_block
                0x00000000c063ec69                acpi_install_gpe_block
                0x00000000c063ed56                acpi_get_gpe_status
                0x00000000c063edbe                acpi_get_event_status
                0x00000000c063ee23                acpi_clear_gpe
                0x00000000c063ee76                acpi_clear_event
                0x00000000c063ee95                acpi_disable_event
                0x00000000c063eefd                acpi_enable_event
                0x00000000c063ef68                acpi_disable_gpe
                0x00000000c063efac                acpi_enable_gpe
                0x00000000c063eff5                acpi_set_gpe_type
                0x00000000c063f024                acpi_disable
                0x00000000c063f062                acpi_enable
                0x00000000c063f0a4                acpi_ev_is_notify_object
                0x00000000c063f0bb                acpi_ev_terminate
                0x00000000c063f1d2                acpi_ev_release_global_lock
                0x00000000c063f26b                acpi_ev_acquire_global_lock
                0x00000000c063f30f                acpi_ev_init_global_lock_handler
                0x00000000c063f34e                acpi_ev_queue_notify_request
                0x00000000c063f44c                acpi_ev_io_space_region_setup
                0x00000000c063f45b                acpi_ev_pci_bar_region_setup
                0x00000000c063f45e                acpi_ev_cmos_region_setup
                0x00000000c063f461                acpi_ev_default_region_setup
                0x00000000c063f470                acpi_ev_initialize_region
                0x00000000c063f5b3                acpi_ev_pci_config_region_setup
                0x00000000c063f7cf                acpi_ev_system_memory_region_setup
                0x00000000c063f828                acpi_release_global_lock
                0x00000000c063f847                acpi_acquire_global_lock
                0x00000000c063f88b                acpi_remove_gpe_handler
                0x00000000c063f95e                acpi_remove_notify_handler
                0x00000000c063fb46                acpi_install_notify_handler
                0x00000000c063fd03                acpi_remove_fixed_event_handler
                0x00000000c063fd6d                acpi_install_fixed_event_handler
                0x00000000c063fe0c                acpi_install_gpe_handler
                0x00000000c063ff68                acpi_remove_address_space_handler
                0x00000000c0640029                acpi_install_address_space_handler
                0x00000000c0640098                acpi_ev_update_gpe_enable_masks
                0x00000000c0640121                acpi_ev_enable_gpe
                0x00000000c0640184                acpi_ev_get_gpe_event_info
                0x00000000c06401df                acpi_ev_disable_gpe
                0x00000000c0640223                acpi_ev_gpe_dispatch
                0x00000000c0640326                acpi_ev_gpe_detect
                0x00000000c06403ed                acpi_ev_set_gpe_type
                0x00000000c0640564                acpi_ev_valid_gpe_event
                0x00000000c064059b                acpi_ev_initialize_gpe_block
                0x00000000c06406c6                acpi_ev_delete_gpe_handlers
                0x00000000c064073e                acpi_ev_walk_gpe_list
                0x00000000c06407a5                acpi_ev_create_gpe_block
                0x00000000c0640a8a                acpi_ev_gpe_initialize
                0x00000000c0640c62                acpi_ev_delete_gpe_block
                0x00000000c0640d6c                acpi_ex_unload_table
                0x00000000c0640e8a                acpi_ex_load_op
                0x00000000c06410a6                acpi_ex_load_table_op
                0x00000000c0641270                acpi_ex_write_data_to_field
                0x00000000c0641411                acpi_ex_read_data_from_field
                0x00000000c06416ae                acpi_ex_get_name_string
                0x00000000c06418ec                acpi_ex_opcode_6A_0T_1R
                0x00000000c0641ab8                acpi_ex_resolve_multiple
                0x00000000c0641c98                acpi_ex_resolve_to_value
                0x00000000c0641e54                acpi_ex_store_string_to_string
                0x00000000c0641f02                acpi_ex_store_buffer_to_buffer
                0x00000000c06420c5                acpi_ex_convert_to_string
                0x00000000c0642230                acpi_ex_convert_to_buffer
                0x00000000c06422b8                acpi_ex_convert_to_integer
                0x00000000c0642398                acpi_ex_convert_to_target_type
                0x00000000c0642468                acpi_ex_access_region
                0x00000000c06427c9                acpi_ex_extract_from_field
                0x00000000c06429c6                acpi_ex_write_with_update_rule
                0x00000000c0642aae                acpi_ex_insert_into_field
                0x00000000c0642d94                acpi_ex_opcode_1A_0T_1R
                0x00000000c0643258                acpi_ex_opcode_1A_1T_1R
                0x00000000c064377c                acpi_ex_opcode_1A_1T_0R
                0x00000000c06437ba                acpi_ex_opcode_1A_0T_0R
                0x00000000c0643842                acpi_ex_opcode_0A_0T_1R
                0x00000000c06438cc                acpi_ex_prep_common_field_object
                0x00000000c064397d                acpi_ex_prep_field_value
                0x00000000c0643bb5                acpi_ex_resolve_operands
                0x00000000c0643fac                acpi_ex_system_reset_event
                0x00000000c0643fdb                acpi_ex_system_signal_event
                0x00000000c0643fed                acpi_ex_system_do_suspend
                0x00000000c0644013                acpi_ex_system_do_stall
                0x00000000c0644040                acpi_ex_system_wait_mutex
                0x00000000c0644083                acpi_ex_system_wait_semaphore
                0x00000000c06440c6                acpi_ex_system_wait_event
                0x00000000c06440dc                acpi_ex_create_method
                0x00000000c064416e                acpi_ex_create_power_resource
                0x00000000c06441d0                acpi_ex_create_processor
                0x00000000c0644239                acpi_ex_create_alias
                0x00000000c06442a2                acpi_ex_create_region
                0x00000000c0644365                acpi_ex_create_mutex
                0x00000000c06443d4                acpi_ex_create_event
                0x00000000c0644430                acpi_ex_do_math_op
                0x00000000c0644574                acpi_ex_do_logical_numeric_op
                0x00000000c06445b2                acpi_ex_do_logical_op
                0x00000000c0644702                acpi_ex_do_concatenate
                0x00000000c06448cc                acpi_ex_concat_template
                0x00000000c06449a6                acpi_ex_get_object_reference
                0x00000000c0644a4c                acpi_ex_opcode_2A_0T_1R
                0x00000000c0644b7e                acpi_ex_opcode_2A_1T_1R
                0x00000000c0644ece                acpi_ex_opcode_2A_2T_1R
                0x00000000c0644fd2                acpi_ex_opcode_2A_0T_0R
                0x00000000c064504c                acpi_ex_cmos_space_handler
                0x00000000c064504f                acpi_ex_pci_bar_space_handler
                0x00000000c0645052                acpi_ex_data_table_space_handler
                0x00000000c064507d                acpi_ex_pci_config_space_handler
                0x00000000c06450d4                acpi_ex_system_io_space_handler
                0x00000000c0645117                acpi_ex_system_memory_space_handler
                0x00000000c0645310                acpi_ex_store_object_to_node
                0x00000000c0645479                acpi_ex_store
                0x00000000c0645664                acpi_ex_truncate_for32bit_table
                0x00000000c0645685                acpi_ex_integer_to_string
                0x00000000c064570e                acpi_ex_eisa_id_to_string
                0x00000000c06457aa                acpi_ex_release_global_lock
                0x00000000c06457d5                acpi_ex_acquire_global_lock
                0x00000000c064580d                acpi_ex_exit_interpreter
                0x00000000c0645830                acpi_ex_relinquish_interpreter
                0x00000000c064583f                acpi_ex_enter_interpreter
                0x00000000c064585f                acpi_ex_reacquire_interpreter
                0x00000000c0645870                acpi_ex_unlink_mutex
                0x00000000c06458a2                acpi_ex_release_all_mutexes
                0x00000000c06458fd                acpi_ex_release_mutex_object
                0x00000000c0645977                acpi_ex_release_mutex
                0x00000000c0645a9e                acpi_ex_acquire_mutex_object
                0x00000000c0645af4                acpi_ex_acquire_mutex
                0x00000000c0645bfd                acpi_ex_opcode_3A_1T_1R
                0x00000000c0645d68                acpi_ex_opcode_3A_0T_0R
                0x00000000c0645e48                acpi_ex_resolve_node_to_value
                0x00000000c0646008                acpi_ex_store_object_to_object
                0x00000000c0646102                acpi_ex_resolve_object
                0x00000000c06461b8                acpi_hw_get_mode
                0x00000000c06461ea                acpi_hw_set_mode
                0x00000000c06462b0                acpi_hw_enable_all_wakeup_gpes
                0x00000000c06462bc                acpi_hw_enable_all_runtime_gpes
                0x00000000c06462c8                acpi_hw_disable_all_gpes
                0x00000000c064630f                acpi_hw_enable_runtime_gpe_block
                0x00000000c064633e                acpi_hw_clear_gpe_block
                0x00000000c0646365                acpi_hw_disable_gpe_block
                0x00000000c064638c                acpi_hw_clear_gpe
                0x00000000c06463a8                acpi_hw_write_gpe_enable_reg
                0x00000000c06463be                acpi_hw_get_gpe_status
                0x00000000c0646424                acpi_hw_low_disable_gpe
                0x00000000c0646470                acpi_hw_get_bit_register_info
                0x00000000c0646499                acpi_hw_validate_register
                0x00000000c0646535                acpi_hw_write
                0x00000000c064659b                acpi_hw_write_pm1_control
                0x00000000c06465c9                acpi_hw_read
                0x00000000c0646663                acpi_hw_register_write
                0x00000000c0646741                acpi_hw_clear_acpi_status
                0x00000000c0646783                acpi_hw_register_read
                0x00000000c0646834                acpi_set_firmware_waking_vector
                0x00000000c064685f                acpi_leave_sleep_state
                0x00000000c06469ab                acpi_enter_sleep_state_prep
                0x00000000c0646a99                acpi_leave_sleep_state_prep
                0x00000000c0646b8f                acpi_enter_sleep_state_s4bios
                0x00000000c0646c09                acpi_enter_sleep_state
                0x00000000c0646dd8                acpi_read_bit_register
                0x00000000c0646e12                acpi_write_bit_register
                0x00000000c0646ea3                acpi_write
                0x00000000c0646f24                acpi_read
                0x00000000c0646ff5                acpi_reset
                0x00000000c0647040                acpi_get_sleep_type_data
                0x00000000c06472bb                acpi_hw_write_port
                0x00000000c0647325                acpi_hw_read_port
                0x00000000c0647398                acpi_ns_lookup
                0x00000000c0647695                acpi_ns_root_initialize
                0x00000000c06478d0                acpi_ns_load_table
                0x00000000c0647948                acpi_ns_search_one_scope
                0x00000000c064797f                acpi_ns_search_and_enter
                0x00000000c0647ad0                acpi_get_data
                0x00000000c0647b28                acpi_detach_data
                0x00000000c0647b76                acpi_attach_data
                0x00000000c0647bce                acpi_get_devices
                0x00000000c0647d50                acpi_walk_namespace
                0x00000000c0647def                acpi_evaluate_object
                0x00000000c0647fb2                acpi_evaluate_object_typed
                0x00000000c0648054                acpi_ns_install_node
                0x00000000c064808d                acpi_ns_delete_node
                0x00000000c06480c5                acpi_ns_delete_children
                0x00000000c0648116                acpi_ns_delete_namespace_subtree
                0x00000000c0648162                acpi_ns_remove_node
                0x00000000c06481ad                acpi_ns_delete_namespace_by_owner
                0x00000000c064826c                acpi_ns_create_node
                0x00000000c06482a8                acpi_ns_evaluate
                0x00000000c0648416                acpi_ns_exec_module_code_list
                0x00000000c0648560                acpi_ns_get_pathname_length
                0x00000000c06485aa                acpi_ns_build_external_path
                0x00000000c0648617                acpi_ns_handle_to_pathname
                0x00000000c0648657                acpi_ns_get_external_pathname
                0x00000000c06486cc                acpi_ns_valid_root_prefix
                0x00000000c06486d2                acpi_ns_get_internal_name_length
                0x00000000c0648735                acpi_ns_build_internal_name
                0x00000000c06487fe                acpi_ns_map_handle_to_node
                0x00000000c0648818                acpi_ns_convert_entry_to_handle
                0x00000000c0648819                acpi_ns_get_parent_node
                0x00000000c064882d                acpi_ns_get_next_valid_node
                0x00000000c064883b                acpi_ns_opens_scope
                0x00000000c064886f                acpi_ns_local
                0x00000000c06488a3                acpi_ns_get_type
                0x00000000c06488c6                acpi_ns_terminate
                0x00000000c064890e                acpi_ns_externalize_name
                0x00000000c0648a8f                acpi_ns_internalize_name
                0x00000000c0648af0                acpi_ns_get_node
                0x00000000c0648b71                acpi_ns_print_node_pathname
                0x00000000c0648bcf                acpi_ns_report_method_error
                0x00000000c0648c38                acpi_ns_report_error
                0x00000000c0648cf3                acpi_get_object_info
                0x00000000c0648fa8                acpi_get_name
                0x00000000c064903b                acpi_get_handle
                0x00000000c06490c4                acpi_install_method
                0x00000000c064936c                acpi_ns_initialize_objects
                0x00000000c0649497                acpi_ns_initialize_devices
                0x00000000c06495d8                acpi_ns_get_secondary_object
                0x00000000c06495f1                acpi_ns_get_attached_data
                0x00000000c064960f                acpi_ns_detach_data
                0x00000000c0649647                acpi_ns_attach_data
                0x00000000c06496ac                acpi_ns_get_attached_object
                0x00000000c06496e4                acpi_ns_detach_object
                0x00000000c0649735                acpi_ns_attach_object
                0x00000000c0649808                acpi_ns_get_next_node
                0x00000000c064981c                acpi_ns_walk_namespace
                0x00000000c0649925                acpi_ns_get_next_node_typed
                0x00000000c0649958                acpi_get_next_object
                0x00000000c06499e3                acpi_get_type
                0x00000000c0649a3e                acpi_get_id
                0x00000000c0649a87                acpi_get_parent
                0x00000000c0649aec                acpi_ns_one_complete_parse
                0x00000000c0649bf4                acpi_ns_parse_table
                0x00000000c0649c1c                acpi_ns_check_for_predefined_name
                0x00000000c0649c47                acpi_ns_check_parameter_count
                0x00000000c064a0af                acpi_ns_check_predefined_names
                0x00000000c064a488                acpi_ns_repair_package_list
                0x00000000c064a4d3                acpi_ns_repair_object
                0x00000000c064a5e0                acpi_ps_get_next_package_end
                0x00000000c064a61d                acpi_ps_get_next_namestring
                0x00000000c064a66c                acpi_ps_get_next_simple_arg
                0x00000000c064a745                acpi_ps_get_next_namepath
                0x00000000c064a8de                acpi_ps_get_next_arg
                0x00000000c064aba4                acpi_ps_get_opcode_size
                0x00000000c064abaf                acpi_ps_peek_opcode
                0x00000000c064abc3                acpi_ps_parse_aml
                0x00000000c064ae34                acpi_ps_next_parse_state
                0x00000000c064af02                acpi_ps_complete_this_op
                0x00000000c064b255                acpi_ps_parse_loop
                0x00000000c064ba9c                acpi_ps_get_arg
                0x00000000c064bacf                acpi_ps_append_arg
                0x00000000c064bb38                acpi_ps_delete_parse_tree
                0x00000000c064bb7c                acpi_ps_get_opcode_info
                0x00000000c064bbb7                acpi_ps_get_opcode_name
                0x00000000c064bbbd                acpi_ps_get_argument_count
                0x00000000c064bbd0                acpi_ps_get_parent_scope
                0x00000000c064bbd7                acpi_ps_has_completed_scope
                0x00000000c064bbf1                acpi_ps_cleanup_scope
                0x00000000c064bc13                acpi_ps_pop_scope
                0x00000000c064bc67                acpi_ps_init_scope
                0x00000000c064bca2                acpi_ps_push_scope
                0x00000000c064bd00                acpi_ps_init_op
                0x00000000c064bd09                acpi_ps_is_leading_char
                0x00000000c064bd1e                acpi_ps_is_prefix_char
                0x00000000c064bd30                acpi_ps_set_name
                0x00000000c064bd3a                acpi_ps_free_op
                0x00000000c064bd53                acpi_ps_alloc_op
                0x00000000c064bddf                acpi_ps_create_scope_op
                0x00000000c064bdf8                acpi_debug_trace
                0x00000000c064be47                acpi_ps_execute_method
                0x00000000c064c09c                acpi_rs_set_address_common
                0x00000000c064c0d9                acpi_rs_get_address_common
                0x00000000c064c128                acpi_rs_create_aml_resources
                0x00000000c064c164                acpi_rs_create_pci_routing_table
                0x00000000c064c3b1                acpi_rs_create_resource_list
                0x00000000c064c408                acpi_rs_convert_resources_to_aml
                0x00000000c064c4a2                acpi_rs_convert_aml_to_resources
                0x00000000c064c518                acpi_rs_convert_resource_to_aml
                0x00000000c064c6e3                acpi_rs_convert_aml_to_resource
                0x00000000c064c998                acpi_resource_to_address64
                0x00000000c064cac3                acpi_walk_resources
                0x00000000c064cb54                acpi_get_vendor_resource
                0x00000000c064cc4d                acpi_set_current_resources
                0x00000000c064cc83                acpi_get_current_resources
                0x00000000c064cca3                acpi_get_irq_routing_table
                0x00000000c064ccc4                acpi_rs_get_aml_length
                0x00000000c064cda2                acpi_rs_get_pci_routing_table_length
                0x00000000c064ce58                acpi_rs_get_list_length
                0x00000000c064cfa0                acpi_rs_decode_bitmask
                0x00000000c064cfc2                acpi_rs_encode_bitmask
                0x00000000c064cfea                acpi_rs_move_data
                0x00000000c064d055                acpi_rs_get_method_data
                0x00000000c064d08c                acpi_rs_get_crs_method_data
                0x00000000c064d0c8                acpi_rs_get_prt_method_data
                0x00000000c064d104                acpi_rs_set_resource_source
                0x00000000c064d12e                acpi_rs_get_resource_source
                0x00000000c064d1cd                acpi_rs_set_resource_length
                0x00000000c064d1f6                acpi_rs_set_resource_header
                0x00000000c064d205                acpi_rs_set_srs_method_data
                0x00000000c064d334                acpi_remove_table_handler
                0x00000000c064d374                acpi_install_table_handler
                0x00000000c064d3bf                acpi_get_table_by_index
                0x00000000c064d425                acpi_get_table_with_size
                0x00000000c064d4bd                acpi_get_table
                0x00000000c064d4ce                acpi_load_tables
                0x00000000c064d5dd                acpi_unload_table_id
                0x00000000c064d635                acpi_get_table_header
                0x00000000c064d6c9                acpi_load_table
                0x00000000c064d719                acpi_reallocate_root_table
                0x00000000c064d798                acpi_allocate_root_table
                0x00000000c064d7ac                acpi_tb_set_table_loaded_flag
                0x00000000c064d7f2                acpi_tb_is_table_loaded
                0x00000000c064d828                acpi_tb_get_owner_id
                0x00000000c064d867                acpi_tb_release_owner_id
                0x00000000c064d8a5                acpi_tb_allocate_owner_id
                0x00000000c064d8e2                acpi_tb_delete_namespace_by_owner
                0x00000000c064d95b                acpi_tb_delete_table
                0x00000000c064d990                acpi_tb_terminate
                0x00000000c064d9ef                acpi_tb_resize_root_table_list
                0x00000000c064dab7                acpi_tb_store_table
                0x00000000c064db60                acpi_tb_verify_table
                0x00000000c064dba6                acpi_tb_add_table
                0x00000000c064dcec                acpi_tb_tables_loaded
                0x00000000c064dcf7                acpi_tb_checksum
                0x00000000c064dd08                acpi_tb_verify_checksum
                0x00000000c064dd48                acpi_tb_print_table_header
                0x00000000c064deed                acpi_tb_install_table
                0x00000000c064e00f                acpi_tb_initialize_facs
                0x00000000c064e020                acpi_tb_find_table
                0x00000000c064e158                acpi_tb_create_local_fadt
                0x00000000c064e574                acpi_tb_parse_fadt
                0x00000000c064e626                acpi_find_root_pointer
                0x00000000c064e740                acpi_ut_validate_buffer
                0x00000000c064e77d                acpi_ut_initialize_buffer
                0x00000000c064e7df                acpi_ut_delete_caches
                0x00000000c064e846                acpi_ut_create_caches
                0x00000000c064e8dc                acpi_ut_dump_buffer2
                0x00000000c064ea31                acpi_ut_dump_buffer
                0x00000000c064ea50                acpi_osi_invalidate
                0x00000000c064ea7f                acpi_ut_osi_implementation
                0x00000000c064eb14                acpi_ut_evaluate_object
                0x00000000c064eca0                acpi_ut_execute_power_methods
                0x00000000c064ed05                acpi_ut_execute_STA
                0x00000000c064ed4a                acpi_ut_evaluate_numeric_object
                0x00000000c064ed88                acpi_ut_subsystem_shutdown
                0x00000000c064ede0                acpi_ut_validate_exception
                0x00000000c064ee54                acpi_ut_is_aml_table
                0x00000000c064ee73                acpi_ut_strupr
                0x00000000c064ee95                acpi_ut_dword_byte_swap
                0x00000000c064eeb8                acpi_ut_set_integer_width
                0x00000000c064eee8                acpi_ut_valid_acpi_char
                0x00000000c064ef0f                acpi_ut_valid_acpi_name
                0x00000000c064ef4d                acpi_ut_repair_name
                0x00000000c064ef96                acpi_ut_print_string
                0x00000000c064f099                acpi_ut_predefined_warning
                0x00000000c064f0d6                acpi_info
                0x00000000c064f0fa                acpi_warning
                0x00000000c064f12c                acpi_error
                0x00000000c064f15e                acpi_exception
                0x00000000c064f19a                acpi_ut_walk_package_tree
                0x00000000c064f28f                acpi_ut_create_update_state_and_push
                0x00000000c064f2b8                acpi_ut_strtoul64
                0x00000000c064f4b3                acpi_ut_release_owner_id
                0x00000000c064f539                acpi_ut_allocate_owner_id
                0x00000000c064f617                acpi_ut_is_pci_root_bridge
                0x00000000c064f640                acpi_purge_cached_objects
                0x00000000c064f66b                acpi_terminate
                0x00000000c064f6ae                acpi_initialize_objects
                0x00000000c064f6fb                acpi_enable_subsystem
                0x00000000c064fa46                acpi_ut_copy_iobject_to_eobject
                0x00000000c064fb55                acpi_ut_copy_iobject_to_iobject
                0x00000000c064fbfe                acpi_ut_copy_eobject_to_iobject
                0x00000000c064ff9a                acpi_ut_update_object_reference
                0x00000000c06500a5                acpi_ut_remove_reference
                0x00000000c06500ca                acpi_ut_add_reference
                0x00000000c06500e2                acpi_ut_delete_internal_object_list
                0x00000000c0650104                acpi_ut_hex_to_ascii_char
                0x00000000c065011a                acpi_ut_get_region_name
                0x00000000c065013a                acpi_ut_get_event_name
                0x00000000c065014e                acpi_ut_get_type_name
                0x00000000c0650162                acpi_ut_get_object_type_name
                0x00000000c0650183                acpi_ut_get_descriptor_name
                0x00000000c06501a6                acpi_ut_get_reference_name
                0x00000000c06501df                acpi_ut_valid_object_type
                0x00000000c06501e6                acpi_ut_init_globals
                0x00000000c065038e                acpi_ut_get_node_name
                0x00000000c06503d5                acpi_format_exception
                0x00000000c0650408                acpi_ut_divide
                0x00000000c0650546                acpi_ut_short_divide
                0x00000000c0650598                acpi_ut_valid_internal_object
                0x00000000c0650697                acpi_ut_get_object_size
                0x00000000c065072d                acpi_ut_delete_object_desc
                0x00000000c0650763                acpi_ut_allocate_object_desc_dbg
                0x00000000c06507c1                acpi_ut_create_internal_object_dbg
                0x00000000c065084e                acpi_ut_create_string_object
                0x00000000c06508a9                acpi_ut_create_buffer_object
                0x00000000c065090d                acpi_ut_create_package_object
                0x00000000c0650954                acpi_ut_push_generic_state
                0x00000000c065095b                acpi_ut_pop_generic_state
                0x00000000c0650968                acpi_ut_delete_generic_state
                0x00000000c0650979                acpi_ut_create_generic_state
                0x00000000c06509bc                acpi_ut_create_control_state
                0x00000000c06509d0                acpi_ut_create_pkg_state
                0x00000000c06509fb                acpi_ut_create_pkg_state_and_push
                0x00000000c0650a1d                acpi_ut_create_update_state
                0x00000000c0650a3a                acpi_ut_create_thread_state
                0x00000000c0650a7c                acpi_ut_release_mutex
                0x00000000c0650acf                acpi_ut_acquire_mutex
                0x00000000c0650b3a                acpi_ut_mutex_terminate
                0x00000000c0650b83                acpi_ut_mutex_initialize
                0x00000000c0650be8                acpi_ut_validate_resource
                0x00000000c0650c83                acpi_ut_walk_aml_resources
                0x00000000c0650d38                acpi_ut_get_resource_type
                0x00000000c0650d45                acpi_ut_get_resource_length
                0x00000000c0650d56                acpi_ut_get_resource_header_length
                0x00000000c0650d60                acpi_ut_get_descriptor_length
                0x00000000c0650d7c                acpi_ut_get_resource_end_tag
                0x00000000c0650d98                acpi_ut_release_write_lock
                0x00000000c0650da4                acpi_ut_acquire_write_lock
                0x00000000c0650db5                acpi_ut_release_read_lock
                0x00000000c0650dfa                acpi_ut_acquire_read_lock
                0x00000000c0650e45                acpi_ut_delete_rw_lock
                0x00000000c0650e6d                acpi_ut_create_rw_lock
                0x00000000c0650ec5                acpi_ut_execute_CID
                0x00000000c0650fd5                acpi_ut_execute_HID
                0x00000000c0651063                acpi_ut_execute_UID
                0x00000000c065148d                acpi_lid_open
                0x00000000c06516ae                acpi_lid_notifier_unregister
                0x00000000c06516ba                acpi_lid_notifier_register
                0x00000000c0652b94                acpi_processor_set_throttling
                0x00000000c0652f8b                acpi_processor_tstate_has_changed
                0x00000000c0652fe6                acpi_processor_throttling_init
                0x00000000c0653233                acpi_processor_get_throttling_info
                0x00000000c0653728                acpi_processor_power_exit
                0x00000000c06540e9                acpi_processor_resume
                0x00000000c0654126                acpi_processor_suspend
                0x00000000c06545f7                acpi_processor_cst_has_changed
                0x00000000c06546b2                acpi_processor_get_limit_info
                0x00000000c0654a6b                acpi_processor_set_thermal_limit
                0x00000000c0654b87                acpi_thermal_cpufreq_exit
                0x00000000c0654baa                acpi_thermal_cpufreq_init
                0x00000000c0654c8d                acpi_processor_unregister_performance
                0x00000000c0654d74                acpi_processor_preregister_performance
                0x00000000c06551a6                acpi_processor_notify_smm
                0x00000000c06552b7                acpi_processor_ppc_exit
                0x00000000c06552d7                acpi_processor_ppc_init
                0x00000000c06552fe                acpi_processor_ppc_has_changed
                0x00000000c0655322                acpi_processor_register_performance
                0x00000000c0657368                acpi_battery_present
                0x00000000c0657375                acpi_battery_units
                0x00000000c0658090                sfi_acpi_table_parse
                0x00000000c0658130                sfi_unmap_table
                0x00000000c0658180                sfi_put_table
                0x00000000c0658190                sfi_map_table
                0x00000000c06582c0                sfi_get_table
                0x00000000c0658320                sfi_table_parse
                0x00000000c0658380                __pnp_remove_device
                0x00000000c06583c0                pnp_unregister_protocol
                0x00000000c06583f0                __pnp_add_device
                0x00000000c0658450                pnp_add_device
                0x00000000c0658530                pnp_register_protocol
                0x00000000c06585f0                pnp_free_resource
                0x00000000c0658600                pnp_free_resources
                0x00000000c0658670                pnp_alloc_dev
                0x00000000c06587d0                pnp_alloc
                0x00000000c0658850                pnp_unregister_card_driver
                0x00000000c0658910                pnp_release_card_device
                0x00000000c0658a80                pnp_register_card_driver
                0x00000000c0658b30                pnp_request_card_device
                0x00000000c0658c10                pnp_remove_card_device
                0x00000000c0658c40                pnp_add_card_device
                0x00000000c0658cc0                pnp_remove_card
                0x00000000c0658d20                pnp_add_card
                0x00000000c0658ec0                pnp_alloc_card
                0x00000000c0659200                pnp_unregister_driver
                0x00000000c0659210                pnp_register_driver
                0x00000000c0659230                pnp_device_detach
                0x00000000c0659290                pnp_device_attach
                0x00000000c06592d0                compare_pnp_id
                0x00000000c06594a0                pnp_add_id
                0x00000000c06595f0                pnp_resource_type
                0x00000000c0659600                pnp_get_resource
                0x00000000c0659650                pnp_range_reserved
                0x00000000c0659700                pnp_possible_config
                0x00000000c0659800                pnp_check_dma
                0x00000000c0659a20                pnp_check_irq
                0x00000000c0659cc0                pnp_check_mem
                0x00000000c0659f50                pnp_check_port
                0x00000000c065a1e0                pnp_free_options
                0x00000000c065a2d0                pnp_add_mem_resource
                0x00000000c065a380                pnp_add_io_resource
                0x00000000c065a430                pnp_add_dma_resource
                0x00000000c065a4b0                pnp_add_irq_resource
                0x00000000c065a530                pnp_build_option
                0x00000000c065a5f0                pnp_register_mem_resource
                0x00000000c065a680                pnp_register_port_resource
                0x00000000c065a710                pnp_register_dma_resource
                0x00000000c065a760                pnp_register_irq_resource
                0x00000000c065a800                pnp_stop_dev
                0x00000000c065a890                pnp_disable_dev
                0x00000000c065a920                pnp_start_dev
                0x00000000c065b160                pnp_auto_config_dev
                0x00000000c065b200                pnp_activate_dev
                0x00000000c065b250                pnp_init_resources
                0x00000000c065b260                pnp_option_priority_name
                0x00000000c065b280                pnp_eisa_id_to_string
                0x00000000c065b300                dbg_pnp_show_option
                0x00000000c065b680                pnp_resource_type_name
                0x00000000c065b6d0                dbg_pnp_show_resources
                0x00000000c065b820                pnp_is_active
                0x00000000c065c650                pnp_fixup_device
                0x00000000c065d340                pnpacpi_encode_resources
                0x00000000c065d880                pnpacpi_parse_allocated_resource
                0x00000000c065e000                pnpacpi_build_resource_template
                0x00000000c065e130                isapnp_present
                0x00000000c065e180                isapnp_write_byte
                0x00000000c065e210                isapnp_read_byte
                0x00000000c065e300                isapnp_cfg_end
                0x00000000c065e320                isapnp_cfg_begin
                0x00000000c065e750                pnp_find_dev
                0x00000000c065e880                pnp_find_card
                0x00000000c065ed90                gnttab_grant_foreign_access_ref
                0x00000000c065edf0                gnttab_query_foreign_access
                0x00000000c065ee00                gnttab_grant_foreign_transfer_ref
                0x00000000c065ee50                gnttab_empty_grant_references
                0x00000000c065ee60                gnttab_end_foreign_access_ref
                0x00000000c065eec0                gnttab_end_foreign_transfer_ref
                0x00000000c065ef30                gnttab_suspend
                0x00000000c065ef50                gnttab_cancel_free_callback
                0x00000000c065efb0                gnttab_request_free_callback
                0x00000000c065f060                gnttab_release_grant_reference
                0x00000000c065f0a0                gnttab_claim_grant_reference
                0x00000000c065f180                gnttab_free_grant_reference
                0x00000000c065f190                gnttab_end_foreign_transfer
                0x00000000c065f1c0                gnttab_end_foreign_access
                0x00000000c065f330                gnttab_resume
                0x00000000c065f3b0                gnttab_free_grant_references
                0x00000000c065f760                gnttab_alloc_grant_references
                0x00000000c065f780                gnttab_grant_foreign_transfer
                0x00000000c065f7e0                gnttab_grant_foreign_access
                0x00000000c065f850                xen_setup_features
                0x00000000c065f8a0                irq_from_evtchn
                0x00000000c065f8d0                xen_clear_irq_pending
                0x00000000c065f8f0                xen_set_irq_pending
                0x00000000c065f910                xen_poll_irq
                0x00000000c065fb40                resend_irq_on_evtchn
                0x00000000c065fc00                xen_test_irq_pending
                0x00000000c065fc30                rebind_evtchn_irq
                0x00000000c065fcd0                xen_evtchn_do_upcall
                0x00000000c065fe50                xen_debug_interrupt
                0x00000000c0660130                bind_evtchn_to_irq
                0x00000000c06601d0                xen_irq_resume
                0x00000000c06605e0                notify_remote_via_irq
                0x00000000c0660670                xen_send_IPI_one
                0x00000000c0660810                unbind_from_irqhandler
                0x00000000c0660820                bind_evtchn_to_irqhandler
                0x00000000c0660880                bind_virq_to_irqhandler
                0x00000000c0660a00                bind_ipi_to_irqhandler
                0x00000000c0660fe0                xenbus_strstate
                0x00000000c0661000                xenbus_read_driver_state
                0x00000000c06611d0                xenbus_dev_error
                0x00000000c06611f0                xenbus_unmap_ring
                0x00000000c0661270                xenbus_unmap_ring_vfree
                0x00000000c0661360                xenbus_dev_fatal
                0x00000000c0661390                xenbus_switch_state
                0x00000000c0661440                xenbus_frontend_closed
                0x00000000c0661460                xenbus_map_ring
                0x00000000c0661500                xenbus_map_ring_valloc
                0x00000000c06615e0                xenbus_alloc_evtchn
                0x00000000c06616a0                xenbus_grant_ring
                0x00000000c06616f0                xenbus_watch_path
                0x00000000c0661760                xenbus_watch_pathfmt
                0x00000000c06617d0                xenbus_free_evtchn
                0x00000000c0661880                xenbus_bind_evtchn
                0x00000000c0661950                xb_data_to_read
                0x00000000c0661970                xb_init_comms
                0x00000000c0661a90                xb_wait_for_data_to_read
                0x00000000c0661b30                xb_read
                0x00000000c0661cd0                xb_write
                0x00000000c0661ed0                xs_init
                0x00000000c0662250                xs_suspend_cancel
                0x00000000c0662480                xs_resume
                0x00000000c0662580                xs_suspend
                0x00000000c06625b0                unregister_xenbus_watch
                0x00000000c0662740                register_xenbus_watch
                0x00000000c0662810                xenbus_transaction_start
                0x00000000c0662870                xenbus_dev_request_and_reply
                0x00000000c0662910                xenbus_transaction_end
                0x00000000c06629f0                xenbus_rm
                0x00000000c0662a40                xenbus_mkdir
                0x00000000c0662a90                xenbus_write
                0x00000000c0662b20                xenbus_read
                0x00000000c0662b70                xenbus_gather
                0x00000000c0662c00                xenbus_scanf
                0x00000000c0662c60                xenbus_printf
                0x00000000c0663050                xenbus_directory
                0x00000000c06630b0                xenbus_exists
                0x00000000c0663620                xenbus_dev_remove
                0x00000000c0663950                xenbus_device_find
                0x00000000c0663980                unregister_xenstore_notifier
                0x00000000c0663990                register_xenstore_notifier
                0x00000000c06639c0                xenbus_probe_devices
                0x00000000c0663ab0                xenbus_probe
                0x00000000c0663b90                xenbus_match
                0x00000000c0663be0                xenbus_unregister_driver
                0x00000000c0663bf0                xenbus_register_driver_common
                0x00000000c0663c10                __xenbus_register_frontend
                0x00000000c0663c50                xenbus_dev_probe
                0x00000000c0663df0                read_otherend_details
                0x00000000c0663ee0                xenbus_probe_node
                0x00000000c0664150                xenbus_dev_changed
                0x00000000c06656b0                regulator_count_voltages
                0x00000000c06656d0                regulator_mode_to_status
                0x00000000c06656f0                regulator_has_full_constraints
                0x00000000c0665700                rdev_get_drvdata
                0x00000000c0665710                regulator_get_drvdata
                0x00000000c0665720                regulator_set_drvdata
                0x00000000c0665730                rdev_get_id
                0x00000000c0665740                rdev_get_dev
                0x00000000c0665750                regulator_get_init_drvdata
                0x00000000c06660b0                regulator_suspend_prepare
                0x00000000c06662a0                regulator_get_mode
                0x00000000c0666330                regulator_get_current_limit
                0x00000000c06663b0                regulator_set_optimum_mode
                0x00000000c06665a0                regulator_set_mode
                0x00000000c0666610                regulator_get_voltage
                0x00000000c0666650                regulator_list_voltage
                0x00000000c06666d0                regulator_is_supported_voltage
                0x00000000c0666730                regulator_is_enabled
                0x00000000c0666770                regulator_enable
                0x00000000c0666880                regulator_set_current_limit
                0x00000000c0666970                regulator_unregister
                0x00000000c0666a90                regulator_notifier_call_chain
                0x00000000c0666aa0                regulator_set_voltage
                0x00000000c0666ba0                regulator_unregister_notifier
                0x00000000c0666bb0                regulator_register_notifier
                0x00000000c0666cd0                regulator_force_disable
                0x00000000c0666d70                regulator_disable
                0x00000000c0666db0                regulator_bulk_disable
                0x00000000c0666e20                regulator_bulk_enable
                0x00000000c0666e90                regulator_put
                0x00000000c0666f10                regulator_bulk_free
                0x00000000c0667350                regulator_get_exclusive
                0x00000000c0667360                regulator_get
                0x00000000c0667370                regulator_bulk_get
                0x00000000c0667430                regulator_register
                0x00000000c0669310                secure_ipv6_port_ephemeral
                0x00000000c06694c0                secure_tcpv6_sequence_number
                0x00000000c0669700                add_disk_randomness
                0x00000000c0669730                add_input_randomness
                0x00000000c0669b80                get_random_bytes
                0x00000000c0669c00                generate_random_uuid
                0x00000000c066a140                get_random_int
                0x00000000c066a1c0                randomize_range
                0x00000000c066a210                secure_dccp_sequence_number
                0x00000000c066a2a0                secure_ipv4_port_ephemeral
                0x00000000c066a2e0                secure_tcp_sequence_number
                0x00000000c066a360                secure_ip_id
                0x00000000c066a3a0                add_interrupt_randomness
                0x00000000c066a3d0                rand_initialize_irq
                0x00000000c066a700                rand_initialize_disk
                0x00000000c066a810                tty_hung_up_p
                0x00000000c066a820                tty_pair_get_tty
                0x00000000c066a840                tty_pair_get_pty
                0x00000000c066a860                tty_put_char
                0x00000000c066a890                tty_set_operations
                0x00000000c066a8a0                tty_devnum
                0x00000000c066a8c0                tty_default_fops
                0x00000000c066a940                tty_get_pgrp
                0x00000000c066a980                get_current_tty
                0x00000000c066aa70                tty_paranoia_check
                0x00000000c066ac90                tty_free_termios
                0x00000000c066acc0                tty_shutdown
                0x00000000c066add0                tty_unregister_driver
                0x00000000c066ae10                tty_driver_kref_put
                0x00000000c066ae20                put_tty_driver
                0x00000000c066ae30                tty_kref_put
                0x00000000c066af70                proc_clear_tty
                0x00000000c066b030                tty_unregister_device
                0x00000000c066b0f0                tty_register_device
                0x00000000c066b220                initialize_tty_struct
                0x00000000c066b700                tty_vhangup
                0x00000000c066b710                tty_vhangup_self
                0x00000000c066b740                do_SAK
                0x00000000c066b7c0                tty_hangup
                0x00000000c066b7d0                __do_SAK
                0x00000000c066b9c0                tty_do_resize
                0x00000000c066ba80                disassociate_ctty
                0x00000000c066bc50                no_tty
                0x00000000c066bc90                tty_write_unlock
                0x00000000c066bcd0                stop_tty
                0x00000000c066bd90                tty_write_message
                0x00000000c066be00                tty_write_lock
                0x00000000c066c080                redirected_tty_write
                0x00000000c066c1d0                tty_wakeup
                0x00000000c066c240                start_tty
                0x00000000c066c300                tty_check_change
                0x00000000c066c3e0                tty_ioctl
                0x00000000c066cc00                tty_find_polling_driver
                0x00000000c066cd30                tty_name
                0x00000000c066cd60                tty_release_dev
                0x00000000c066d270                free_tty_struct
                0x00000000c066d340                tty_init_termios
                0x00000000c066d3e0                tty_register_driver
                0x00000000c066d590                alloc_tty_driver
                0x00000000c066d640                alloc_tty_struct
                0x00000000c066d6c0                tty_init_dev
                0x00000000c066de10                is_ignored
                0x00000000c0670b00                tty_chars_in_buffer
                0x00000000c0670b20                tty_write_room
                0x00000000c0670b40                tty_driver_flush_buffer
                0x00000000c0670b50                tty_termios_baud_rate
                0x00000000c0670ba0                tty_termios_input_baud_rate
                0x00000000c0670c00                tty_termios_encode_baud_rate
                0x00000000c0670d70                tty_encode_baud_rate
                0x00000000c0670d80                tty_termios_copy_hw
                0x00000000c0670db0                tty_termios_hw_change
                0x00000000c0670e80                tty_perform_flush
                0x00000000c0671050                tty_unthrottle
                0x00000000c06710a0                tty_throttle
                0x00000000c06711b0                tty_get_baud_rate
                0x00000000c0671210                tty_wait_until_sent
                0x00000000c0671870                tty_mode_ioctl
                0x00000000c0671cc0                n_tty_ioctl_helper
                0x00000000c0671f10                tty_ldisc_ref
                0x00000000c0671f20                tty_unregister_ldisc
                0x00000000c0671f90                tty_register_ldisc
                0x00000000c0671fe0                tty_ldisc_begin
                0x00000000c0672320                tty_ldisc_release
                0x00000000c0672390                tty_ldisc_deref
                0x00000000c06723a0                tty_ldisc_enable
                0x00000000c06723e0                tty_ldisc_setup
                0x00000000c0672460                tty_ldisc_ref_wait
                0x00000000c06724f0                tty_ldisc_flush
                0x00000000c0672630                tty_ldisc_init
                0x00000000c06726c0                tty_ldisc_hangup
                0x00000000c0672990                tty_set_ldisc
                0x00000000c0672cf0                tty_buffer_init
                0x00000000c0672d60                tty_schedule_flip
                0x00000000c0672fc0                tty_flip_buffer_push
                0x00000000c0673030                tty_buffer_free_all
                0x00000000c06730a0                tty_flush_to_ldisc
                0x00000000c06730b0                tty_buffer_flush
                0x00000000c0673190                tty_buffer_request_room
                0x00000000c06732e0                tty_prepare_flip_string_flags
                0x00000000c0673330                tty_prepare_flip_string
                0x00000000c0673380                tty_insert_flip_string_flags
                0x00000000c0673430                tty_insert_flip_string
                0x00000000c06734e0                tty_port_carrier_raised
                0x00000000c0673500                tty_port_raise_dtr_rts
                0x00000000c0673520                tty_port_lower_dtr_rts
                0x00000000c0673530                tty_port_close_end
                0x00000000c0673610                tty_port_close_start
                0x00000000c06737a0                tty_port_block_til_ready
                0x00000000c06739f0                tty_port_hangup
                0x00000000c0673aa0                tty_port_tty_set
                0x00000000c0673b00                tty_port_close
                0x00000000c0673b70                tty_port_tty_get
                0x00000000c0673bc0                tty_port_free_xmit_buf
                0x00000000c0673c00                tty_port_alloc_xmit_buf
                0x00000000c0673c50                tty_port_init
                0x00000000c0674190                pty_resize
                0x00000000c06746c0                misc_deregister
                0x00000000c0674750                misc_register
                0x00000000c0674b90                pm_set_vt_switch
                0x00000000c0674bb0                reset_vc
                0x00000000c0674c50                vc_SAK
                0x00000000c0674d50                vt_waitactive
                0x00000000c0674da0                vt_move_to_console
                0x00000000c0674e70                vt_event_post
                0x00000000c0675000                change_console
                0x00000000c0675120                vt_ioctl
                0x00000000c0676ab0                vcs_make_sysfs
                0x00000000c06774e0                vcs_remove_sysfs
                0x00000000c0677510                paste_selection
                0x00000000c0677670                sel_loadlut
                0x00000000c0677690                clear_selection
                0x00000000c06776e0                set_selection
                0x00000000c0677d90                getledstate
                0x00000000c0677fa0                kbd_rate
                0x00000000c06780f0                compute_shiftstate
                0x00000000c0678280                setledstate
                0x00000000c06784c0                kd_mksound
                0x00000000c0678580                setkeycode
                0x00000000c06785e0                getkeycode
                0x00000000c0678640                unregister_keyboard_notifier
                0x00000000c0678650                register_keyboard_notifier
                0x00000000c06799b0                set_translate
                0x00000000c06799d0                inverse_translate
                0x00000000c0679a40                con_get_unimap
                0x00000000c0679b40                con_protect_unimap
                0x00000000c0679b60                conv_8bit_to_uni
                0x00000000c0679b80                conv_uni_to_8bit
                0x00000000c0679bd0                conv_uni_to_pc
                0x00000000c0679d30                con_free_unimap
                0x00000000c0679d70                con_copy_unimap
                0x00000000c067a040                con_get_trans_new
                0x00000000c067a090                con_get_trans_old
                0x00000000c067a3d0                con_set_trans_new
                0x00000000c067a430                con_set_trans_old
                0x00000000c067a490                con_clear_unimap
                0x00000000c067a5d0                con_set_default_unimap
                0x00000000c067a720                con_set_unimap
                0x00000000c067ae90                vc_cons_allocated
                0x00000000c067b0a0                mouse_reporting
                0x00000000c067b140                con_is_bound
                0x00000000c067b170                getconsxy
                0x00000000c067b180                vcs_scr_readw
                0x00000000c067b1a0                vcs_scr_writew
                0x00000000c067b2c0                putconsxy
                0x00000000c067b6c0                schedule_console_callback
                0x00000000c067b6d0                set_console
                0x00000000c067b720                scrollfront
                0x00000000c067b740                scrollback
                0x00000000c067bc40                reset_palette
                0x00000000c067bc80                update_region
                0x00000000c067bd70                register_con_driver
                0x00000000c067c150                con_get_cmap
                0x00000000c067c170                con_set_cmap
                0x00000000c067c190                con_font_op
                0x00000000c067c5d0                unregister_con_driver
                0x00000000c067c690                give_up_console
                0x00000000c067c830                mouse_report
                0x00000000c067c8e0                vc_deallocate
                0x00000000c067c9a0                unregister_vt_notifier
                0x00000000c067c9b0                register_vt_notifier
                0x00000000c067c9c0                invert_screen
                0x00000000c067cdf0                screen_glyph
                0x00000000c067ce20                screen_pos
                0x00000000c067ce50                complement_pos
                0x00000000c067d3f0                vc_allocate
                0x00000000c067d600                redraw_screen
                0x00000000c067db70                take_over_console
                0x00000000c067dbc0                unbind_con_driver
                0x00000000c067dfc0                do_unblank_screen
                0x00000000c067e130                unblank_screen
                0x00000000c067e140                poke_blanked_console
                0x00000000c0680440                vc_resize
                0x00000000c0680460                do_blank_screen
                0x00000000c0680770                tioclinux
                0x00000000c0680970                tty_audit_fork
                0x00000000c0680b70                tty_audit_push
                0x00000000c0680c60                tty_audit_push_task
                0x00000000c0680d50                tty_audit_tiocsti
                0x00000000c0680e80                tty_audit_exit
                0x00000000c0680f00                tty_audit_add_data
                0x00000000c06812a0                sysrq_on
                0x00000000c0681310                __sysrq_get_key_op
                0x00000000c0681400                unregister_sysrq_key
                0x00000000c0681410                register_sysrq_key
                0x00000000c0681420                __handle_sysrq
                0x00000000c06815d0                handle_sysrq
                0x00000000c06819f0                hvc_remove
                0x00000000c0681aa0                hvc_kick
                0x00000000c0681e70                hvc_instantiate
                0x00000000c0681f80                __hvc_resize
                0x00000000c0681f90                hvc_poll
                0x00000000c0682300                notifier_del_irq
                0x00000000c0682320                notifier_hangup_irq
                0x00000000c0682330                notifier_add_irq
                0x00000000c0682740                xen_raw_console_write
                0x00000000c0682780                xen_raw_printk
                0x00000000c06827b0                xen_console_resume
                0x00000000c0683770                hpet_alloc
                0x00000000c0683d30                __nvram_write_byte
                0x00000000c0683d40                nvram_write_byte
                0x00000000c0683d90                __nvram_read_byte
                0x00000000c0683e70                __nvram_check_checksum
                0x00000000c0683ff0                nvram_check_checksum
                0x00000000c06844b0                nvram_read_byte
                0x00000000c06844f0                hwrng_unregister
                0x00000000c0684900                hwrng_register
                0x00000000c0684a20                agp_backend_acquire
                0x00000000c0684a50                agp_backend_release
                0x00000000c0684b00                agp_remove_bridge
                0x00000000c0684b40                agp_put_bridge
                0x00000000c0684b70                agp_add_bridge
                0x00000000c0685010                agp_alloc_bridge
                0x00000000c06850c0                agp_find_mem_by_key
                0x00000000c0685100                agp_find_private
                0x00000000c0685140                agp_find_client_by_pid
                0x00000000c06851a0                agpioc_protect_wrap
                0x00000000c06851b0                agp_frontend_cleanup
                0x00000000c06851f0                agp_remove_client
                0x00000000c06852a0                agpioc_release_wrap
                0x00000000c06854e0                agp_frontend_initialize
                0x00000000c0685540                agpioc_chipset_flush_wrap
                0x00000000c0685550                agpioc_setup_wrap
                0x00000000c0685580                agp_allocate_memory_wrap
                0x00000000c06855b0                agp_free_memory_wrap
                0x00000000c06857f0                agpioc_deallocate_wrap
                0x00000000c0685830                agpioc_acquire_wrap
                0x00000000c06859e0                agp_create_segment
                0x00000000c0685b20                agp_create_client
                0x00000000c06861e0                agp_flush_chipset
                0x00000000c06861f0                agp_num_entries
                0x00000000c0686230                agp_copy_info
                0x00000000c0686300                agp_generic_insert_memory
                0x00000000c0686490                agp_generic_remove_memory
                0x00000000c0686540                agp_generic_alloc_by_type
                0x00000000c0686550                agp_enable
                0x00000000c0686560                agp_generic_find_bridge
                0x00000000c0686590                agp_generic_mask_memory
                0x00000000c06865a0                agp_generic_type_to_mask_type
                0x00000000c06865c0                get_agp_version
                0x00000000c0686610                agp3_generic_cleanup
                0x00000000c0686660                agp3_generic_tlbflush
                0x00000000c06866d0                agp3_generic_configure
                0x00000000c06867a0                agp3_generic_fetch_size
                0x00000000c0686830                global_cache_flush
                0x00000000c0686860                agp_generic_destroy_page
                0x00000000c06868b0                agp_generic_destroy_pages
                0x00000000c0686910                agp_generic_alloc_page
                0x00000000c0686970                agp_generic_alloc_pages
                0x00000000c0686a10                agp_free_key
                0x00000000c0686a30                agp_generic_free_gatt_table
                0x00000000c0686b30                agp_generic_create_gatt_table
                0x00000000c0686d10                agp_device_command
                0x00000000c0686dc0                agp_collect_device_status
                0x00000000c0687330                agp_generic_enable
                0x00000000c0687490                agp_rebind_memory
                0x00000000c0687500                agp_unbind_memory
                0x00000000c0687580                agp_bind_memory
                0x00000000c0687650                agp_free_page_array
                0x00000000c0687670                agp_generic_free_by_type
                0x00000000c06876a0                agp_free_memory
                0x00000000c06877d0                agp_alloc_page_array
                0x00000000c0687830                agp_create_memory
                0x00000000c0687950                agp_generic_alloc_user
                0x00000000c0687aa0                agp_allocate_memory
                0x00000000c0687b90                agp_3_5_enable
                0x00000000c068f6f0                ipmi_validate_addr
                0x00000000c068f730                ipmi_addr_length
                0x00000000c068f760                ipmi_get_version
                0x00000000c068f780                ipmi_set_my_address
                0x00000000c068f7a0                ipmi_get_my_address
                0x00000000c068f7c0                ipmi_set_my_LUN
                0x00000000c068f7e0                ipmi_get_my_LUN
                0x00000000c068f800                ipmi_poll_interface
                0x00000000c068f820                ipmi_smi_watchdog_pretimeout
                0x00000000c068faf0                ipmi_set_maintenance_mode
                0x00000000c068fbc0                ipmi_get_maintenance_mode
                0x00000000c068fe70                ipmi_free_recv_msg
                0x00000000c068ffc0                ipmi_set_gets_events
                0x00000000c06901a0                ipmi_smi_watcher_unregister
                0x00000000c06902b0                ipmi_unregister_for_cmd
                0x00000000c0690450                ipmi_unregister_smi
                0x00000000c0690d60                ipmi_destroy_user
                0x00000000c0690f20                ipmi_smi_watcher_register
                0x00000000c0691100                ipmi_alloc_smi_msg
                0x00000000c06911a0                ipmi_register_for_cmd
                0x00000000c0691d10                ipmi_request_supply_msgs
                0x00000000c0691dc0                ipmi_request_settime
                0x00000000c0692a90                ipmi_smi_msg_received
                0x00000000c0693150                ipmi_smi_add_proc_entry
                0x00000000c0693280                ipmi_register_smi
                0x00000000c0693ef0                ipmi_create_user
                0x00000000c0698930                tpm_calc_ordinal_duration
                0x00000000c0698980                tpm_dev_vendor_release
                0x00000000c06989b0                tpm_open
                0x00000000c0698c50                tpm_dev_release
                0x00000000c0698c90                tpm_pm_resume
                0x00000000c0698ca0                tpm_store_cancel
                0x00000000c0698ed0                tpm_pm_suspend
                0x00000000c0698fe0                __tpm_pcr_read
                0x00000000c0699070                tpm_gen_interrupt
                0x00000000c06990f0                tpm_getcap
                0x00000000c06991f0                tpm_continue_selftest
                0x00000000c0699260                tpm_remove_hardware
                0x00000000c0699300                tpm_release
                0x00000000c0699350                tpm_read
                0x00000000c06993e0                tpm_write
                0x00000000c0699480                tpm_show_caps_1_2
                0x00000000c0699540                tpm_show_caps
                0x00000000c0699600                tpm_show_pubek
                0x00000000c06997f0                tpm_show_pcrs
                0x00000000c06998f0                tpm_show_temp_deactivated
                0x00000000c0699940                tpm_show_owned
                0x00000000c0699990                tpm_show_active
                0x00000000c06999e0                tpm_show_enabled
                0x00000000c0699a30                tpm_pcr_extend
                0x00000000c0699b10                tpm_pcr_read
                0x00000000c0699b70                tpm_get_timeouts
                0x00000000c0699d10                tpm_register_hardware
                0x00000000c069a160                tpm_bios_log_teardown
                0x00000000c069a710                tpm_bios_log_setup
                0x00000000c069b9e0                vga_default_device
                0x00000000c069ba20                vga_client_register
                0x00000000c069bc00                vga_put
                0x00000000c069bf00                __vga_set_legacy_decoding
                0x00000000c069c0c0                vga_set_legacy_decoding
                0x00000000c069c7d0                vga_tryget
                0x00000000c069c980                vga_get
                0x00000000c069cff0                cn_cb_equal
                0x00000000c069d010                cn_queue_free_dev
                0x00000000c069d140                cn_queue_del_callback
                0x00000000c069d210                cn_queue_wrapper
                0x00000000c069d240                queue_cn_work
                0x00000000c069d290                cn_queue_alloc_dev
                0x00000000c069d390                cn_queue_add_callback
                0x00000000c069d5b0                cn_del_callback
                0x00000000c069d5c0                cn_add_callback
                0x00000000c069d5f0                cn_netlink_send
                0x00000000c069daa0                proc_exit_connector
                0x00000000c069dbb0                proc_sid_connector
                0x00000000c069dca0                proc_id_connector
                0x00000000c069ddd0                proc_exec_connector
                0x00000000c069dec0                proc_fork_connector
                0x00000000c069dfd0                uart_update_timeout
                0x00000000c069e030                uart_get_divisor
                0x00000000c069e100                uart_console_write
                0x00000000c069e160                uart_set_options
                0x00000000c069e350                uart_console_device
                0x00000000c069e360                uart_match_port
                0x00000000c069e420                uart_remove_one_port
                0x00000000c069e7c0                uart_add_one_port
                0x00000000c069eb70                uart_unregister_driver
                0x00000000c069f720                uart_suspend_port
                0x00000000c069f910                uart_parse_options
                0x00000000c069fa40                uart_get_baud_rate
                0x00000000c069fb20                uart_write_wakeup
                0x00000000c069fb50                uart_register_driver
                0x00000000c06a0cb0                uart_resume_port
                0x00000000c06a2420                serial8250_suspend_port
                0x00000000c06a2440                serial8250_unregister_port
                0x00000000c06a24c0                serial8250_register_port
                0x00000000c06a26d0                serial8250_find_port
                0x00000000c06a2720                serial8250_resume_port
                0x00000000c06a5020                pciserial_resume_ports
                0x00000000c06a50c0                pciserial_suspend_ports
                0x00000000c06a5130                pciserial_remove_ports
                0x00000000c06a56d0                pciserial_init_ports
                0x00000000c06a5860                serial8250_find_port_for_earlycon
                0x00000000c06a5b20                dev_driver_string
                0x00000000c06a5bf0                put_device
                0x00000000c06a5c20                device_shutdown
                0x00000000c06a5d70                get_device
                0x00000000c06a5fe0                device_move
                0x00000000c06a61f0                device_rename
                0x00000000c06a6360                dev_set_name
                0x00000000c06a6440                device_find_child
                0x00000000c06a64a0                device_for_each_child
                0x00000000c06a64f0                device_get_devnode
                0x00000000c06a69f0                device_initialize
                0x00000000c06a6a60                device_schedule_callback_owner
                0x00000000c06a6a80                device_remove_bin_file
                0x00000000c06a6aa0                device_create_bin_file
                0x00000000c06a6ac0                device_remove_file
                0x00000000c06a6b40                device_del
                0x00000000c06a6cc0                device_unregister
                0x00000000c06a6d20                device_destroy
                0x00000000c06a6d60                root_device_unregister
                0x00000000c06a6d90                device_create_file
                0x00000000c06a6ef0                device_private_init
                0x00000000c06a6fa0                device_add
                0x00000000c06a7590                device_register
                0x00000000c06a75a0                __root_device_register
                0x00000000c06a7690                device_create_vargs
                0x00000000c06a77c0                device_create
                0x00000000c06a78d0                sysdev_show_int
                0x00000000c06a7900                sysdev_show_ulong
                0x00000000c06a7930                sysdev_store_int
                0x00000000c06a7970                sysdev_store_ulong
                0x00000000c06a7a80                sysdev_resume
                0x00000000c06a7be0                sysdev_suspend
                0x00000000c06a8050                sysdev_shutdown
                0x00000000c06a81f0                sysdev_unregister
                0x00000000c06a8250                sysdev_driver_unregister
                0x00000000c06a82d0                sysdev_register
                0x00000000c06a8420                sysdev_driver_register
                0x00000000c06a8530                sysdev_class_unregister
                0x00000000c06a8580                sysdev_class_register
                0x00000000c06a8620                sysdev_class_remove_file
                0x00000000c06a8630                sysdev_remove_file
                0x00000000c06a8640                sysdev_class_create_file
                0x00000000c06a8650                sysdev_create_file
                0x00000000c06a8770                bus_get_kset
                0x00000000c06a8780                bus_get_device_klist
                0x00000000c06a8790                bus_sort_breadthfirst
                0x00000000c06a88a0                bus_unregister_notifier
                0x00000000c06a88b0                bus_register_notifier
                0x00000000c06a8a40                device_reprobe
                0x00000000c06a8aa0                bus_remove_driver
                0x00000000c06a8bb0                bus_remove_device
                0x00000000c06a8c90                bus_probe_device
                0x00000000c06a8cd0                bus_add_device
                0x00000000c06a8e90                bus_for_each_drv
                0x00000000c06a8f10                bus_find_device
                0x00000000c06a8f80                bus_find_device_by_name
                0x00000000c06a9150                bus_for_each_dev
                0x00000000c06a91d0                bus_rescan_devices
                0x00000000c06a9200                bus_remove_file
                0x00000000c06a9270                bus_unregister
                0x00000000c06a9330                bus_create_file
                0x00000000c06a9380                bus_add_driver
                0x00000000c06a96a0                bus_register
                0x00000000c06a9980                dev_get_drvdata
                0x00000000c06a99a0                dev_set_drvdata
                0x00000000c06a9ac0                driver_detach
                0x00000000c06a9b50                device_release_driver
                0x00000000c06a9b80                driver_attach
                0x00000000c06a9ba0                driver_probe_done
                0x00000000c06a9d20                driver_probe_device
                0x00000000c06aa080                device_bind_driver
                0x00000000c06aa0b0                device_attach
                0x00000000c06aa140                wait_for_device_probe
                0x00000000c06aa1b0                driver_find
                0x00000000c06aa1d0                driver_unregister
                0x00000000c06aa240                put_driver
                0x00000000c06aa250                driver_register
                0x00000000c06aa360                get_driver
                0x00000000c06aa380                driver_add_kobj
                0x00000000c06aa3f0                driver_remove_file
                0x00000000c06aa410                driver_create_file
                0x00000000c06aa430                driver_find_device
                0x00000000c06aa4a0                driver_for_each_device
                0x00000000c06aa590                class_compat_remove_link
                0x00000000c06aa5d0                class_compat_create_link
                0x00000000c06aa650                class_compat_unregister
                0x00000000c06aa680                class_dev_iter_exit
                0x00000000c06aa690                class_dev_iter_next
                0x00000000c06aa6c0                class_dev_iter_init
                0x00000000c06aa700                class_interface_unregister
                0x00000000c06aa790                class_interface_register
                0x00000000c06aa850                class_find_device
                0x00000000c06aa8e0                class_for_each_device
                0x00000000c06aaa80                class_remove_file
                0x00000000c06aaaa0                class_unregister
                0x00000000c06aab20                class_destroy
                0x00000000c06aab40                class_create_file
                0x00000000c06aab60                __class_register
                0x00000000c06aada0                class_compat_register
                0x00000000c06aae60                __class_create
                0x00000000c06aaf40                platform_get_resource
                0x00000000c06aaf90                platform_get_irq
                0x00000000c06ab330                platform_pm_runtime_suspend
                0x00000000c06ab340                platform_pm_runtime_resume
                0x00000000c06ab350                platform_pm_runtime_idle
                0x00000000c06ab360                dma_get_required_mask
                0x00000000c06ab4a0                platform_get_resource_byname
                0x00000000c06ab500                platform_get_irq_byname
                0x00000000c06ab520                platform_driver_unregister
                0x00000000c06ab530                platform_driver_register
                0x00000000c06ab570                platform_driver_probe
                0x00000000c06ab5f0                platform_device_del
                0x00000000c06ab660                platform_device_add
                0x00000000c06ab840                platform_device_register
                0x00000000c06ab860                platform_device_add_data
                0x00000000c06ab890                platform_device_add_resources
                0x00000000c06ab920                platform_device_put
                0x00000000c06ab940                platform_device_unregister
                0x00000000c06ab950                platform_add_devices
                0x00000000c06ab9b0                platform_device_alloc
                0x00000000c06aba20                platform_device_register_data
                0x00000000c06aba90                platform_device_register_simple
                0x00000000c06abb00                get_cpu_sysdev
                0x00000000c06abd80                unregister_cpu
                0x00000000c06abdd0                kobj_lookup
                0x00000000c06abf90                kobj_unmap
                0x00000000c06ac080                kobj_map
                0x00000000c06ac1d0                kobj_map_init
                0x00000000c06ac350                devres_alloc
                0x00000000c06ac3b0                devres_remove
                0x00000000c06ac460                devres_find
                0x00000000c06ac510                devres_remove_group
                0x00000000c06ac5e0                devres_free
                0x00000000c06ac600                devres_destroy
                0x00000000c06ac630                devm_kfree
                0x00000000c06ac7f0                devres_release_group
                0x00000000c06ac8a0                devres_release_all
                0x00000000c06ac910                devres_close_group
                0x00000000c06ac9c0                devres_get
                0x00000000c06aca90                devres_add
                0x00000000c06acae0                devres_open_group
                0x00000000c06acbf0                devm_kzalloc
                0x00000000c06acc60                attribute_container_classdev_to_container
                0x00000000c06acc70                attribute_container_find_class_device
                0x00000000c06accd0                attribute_container_remove_attrs
                0x00000000c06acd30                attribute_container_class_device_del
                0x00000000c06acd40                attribute_container_add_attrs
                0x00000000c06acdb0                attribute_container_add_class_device
                0x00000000c06acdd0                attribute_container_add_class_device_adapter
                0x00000000c06acde0                attribute_container_trigger
                0x00000000c06ace40                attribute_container_device_trigger
                0x00000000c06acf00                attribute_container_remove_device
                0x00000000c06ad020                attribute_container_unregister
                0x00000000c06ad080                attribute_container_register
                0x00000000c06ad0d0                attribute_container_add_device
                0x00000000c06ad2a0                transport_destroy_device
                0x00000000c06ad2d0                transport_remove_device
                0x00000000c06ad2e0                transport_configure_device
                0x00000000c06ad2f0                transport_add_device
                0x00000000c06ad3b0                transport_setup_device
                0x00000000c06ad3c0                anon_transport_class_unregister
                0x00000000c06ad3e0                anon_transport_class_register
                0x00000000c06ad410                transport_class_unregister
                0x00000000c06ad420                transport_class_register
                0x00000000c06ad450                devtmpfs_mount
                0x00000000c06ad4f0                devtmpfs_delete_node
                0x00000000c06ad9c0                devtmpfs_create_node
                0x00000000c06adb60                dpm_sysfs_remove
                0x00000000c06adc40                dpm_sysfs_add
                0x00000000c06adc50                __suspend_report_result
                0x00000000c06ae010                device_pm_lock
                0x00000000c06ae020                device_pm_unlock
                0x00000000c06ae120                device_pm_move_last
                0x00000000c06ae190                device_pm_move_before
                0x00000000c06ae240                dpm_suspend_start
                0x00000000c06ae740                dpm_resume_end
                0x00000000c06aeb40                device_pm_move_after
                0x00000000c06aebf0                dpm_resume_noirq
                0x00000000c06aec90                dpm_suspend_noirq
                0x00000000c06aed60                device_pm_remove
                0x00000000c06aede0                device_pm_add
                0x00000000c06aeee0                device_pm_init
                0x00000000c06aeef0                pm_runtime_init
                0x00000000c06af070                pm_request_idle
                0x00000000c06af240                pm_request_resume
                0x00000000c06af450                pm_runtime_idle
                0x00000000c06af480                __pm_runtime_put
                0x00000000c06af4b0                pm_runtime_enable
                0x00000000c06af8f0                pm_runtime_resume
                0x00000000c06af920                __pm_runtime_get
                0x00000000c06af950                __pm_runtime_suspend
                0x00000000c06afd70                pm_runtime_suspend
                0x00000000c06afe30                __pm_runtime_set_status
                0x00000000c06b0130                __pm_runtime_disable
                0x00000000c06b0220                pm_runtime_remove
                0x00000000c06b0250                pm_runtime_barrier
                0x00000000c06b0300                pm_schedule_suspend
                0x00000000c06b0440                dmam_release_declared_memory
                0x00000000c06b04d0                dmam_declare_coherent_memory
                0x00000000c06b0570                dmam_free_coherent
                0x00000000c06b0630                dmam_alloc_noncoherent
                0x00000000c06b0740                dmam_alloc_coherent
                0x00000000c06b0850                dmam_free_noncoherent
                0x00000000c06b0a50                dma_release_from_coherent
                0x00000000c06b0ab0                dma_alloc_from_coherent
                0x00000000c06b0b50                dma_mark_declared_memory_occupied
                0x00000000c06b0bd0                dma_release_declared_memory
                0x00000000c06b0c20                dma_declare_coherent_memory
                0x00000000c06b0e10                isa_unregister_driver
                0x00000000c06b0e40                isa_register_driver
                0x00000000c06b1190                release_firmware
                0x00000000c06b1730                request_firmware_nowait
                0x00000000c06b1eb0                request_firmware
                0x00000000c06b2260                find_memory_block
                0x00000000c06b22d0                remove_memory_block
                0x00000000c06b2370                unregister_memory_section
                0x00000000c06b2390                memory_notify
                0x00000000c06b23a0                unregister_memory_notifier
                0x00000000c06b23b0                register_memory_notifier
                0x00000000c06b2510                register_new_memory
                0x00000000c06b26a0                register_iommu
                0x00000000c06b26c0                iommu_found
                0x00000000c06b26d0                iommu_attach_device
                0x00000000c06b26e0                iommu_detach_device
                0x00000000c06b26f0                iommu_map_range
                0x00000000c06b2730                iommu_unmap_range
                0x00000000c06b2740                iommu_iova_to_phys
                0x00000000c06b2750                iommu_domain_has_cap
                0x00000000c06b2760                iommu_domain_free
                0x00000000c06b2780                iommu_domain_alloc
                0x00000000c06b2890                module_remove_driver
                0x00000000c06b2910                module_add_driver
                0x00000000c06b3240                loop_register_transfer
                0x00000000c06b3310                loop_unregister_transfer
                0x00000000c06b68a0                mac_hid_mouse_emulate_buttons
                0x00000000c06b6930                scsi_device_type
                0x00000000c06b6960                __scsi_device_lookup_by_target
                0x00000000c06b69b0                __scsi_device_lookup
                0x00000000c06b6a00                __starget_for_each_device
                0x00000000c06b6a80                scsi_device_put
                0x00000000c06b6ad0                scsi_device_get
                0x00000000c06b6b80                scsi_device_lookup
                0x00000000c06b6c00                scsi_device_lookup_by_target
                0x00000000c06b6ca0                __scsi_iterate_devices
                0x00000000c06b6d10                starget_for_each_device
                0x00000000c06b6e50                scsi_adjust_queue_depth
                0x00000000c06b6f70                scsi_track_queue_full
                0x00000000c06b7010                scsi_finish_command
                0x00000000c06b7120                scsi_log_send
                0x00000000c06b7250                scsi_dispatch_cmd
                0x00000000c06b74a0                scsi_log_completion
                0x00000000c06b7750                scsi_destroy_command_freelist
                0x00000000c06b7870                scsi_free_command
                0x00000000c06b7910                scsi_allocate_command
                0x00000000c06b79a0                __scsi_get_command
                0x00000000c06b7a30                scsi_setup_command_freelist
                0x00000000c06b7ac0                __scsi_put_command
                0x00000000c06b7b40                scsi_put_command
                0x00000000c06b7bb0                scsi_get_command
                0x00000000c06b7c40                scsi_get_vpd_page
                0x00000000c06b7d90                scsi_is_host_device
                0x00000000c06b7da0                scsi_flush_work
                0x00000000c06b7de0                scsi_queue_work
                0x00000000c06b7ed0                scsi_host_put
                0x00000000c06b7ee0                scsi_exit_hosts
                0x00000000c06b7ef0                scsi_init_hosts
                0x00000000c06b7f00                scsi_host_get
                0x00000000c06b7f30                scsi_host_lookup
                0x00000000c06b7f90                scsi_unregister
                0x00000000c06b7fb0                scsi_host_set_state
                0x00000000c06b80e0                scsi_add_host_with_dma
                0x00000000c06b82e0                scsi_remove_host
                0x00000000c06b83b0                scsi_host_alloc
                0x00000000c06b8630                scsi_register
                0x00000000c06b8690                scsi_nonblockable_ioctl
                0x00000000c06b8910                scsi_set_medium_removal
                0x00000000c06b89a0                scsi_ioctl
                0x00000000c06b8cc0                scsi_sense_key_string
                0x00000000c06b8ce0                scsi_extd_sense_format
                0x00000000c06b8d60                scsi_show_result
                0x00000000c06b8db0                scsi_print_result
                0x00000000c06b8e40                scsi_show_sense_hdr
                0x00000000c06b8ed0                scsi_print_status
                0x00000000c06b9180                scsi_print_command
                0x00000000c06b9260                __scsi_print_command
                0x00000000c06b95e0                scsi_show_extd_sense
                0x00000000c06b96d0                scsi_print_sense
                0x00000000c06b97f0                __scsi_print_sense
                0x00000000c06b9870                scsi_cmd_print_sense_hdr
                0x00000000c06b99a0                scsi_print_sense_hdr
                0x00000000c06b99f0                scsi_partsize
                0x00000000c06b9b10                scsi_bios_ptable
                0x00000000c06b9bf0                scsicam_bios_param
                0x00000000c06b9dd0                scsi_eh_restore_cmnd
                0x00000000c06b9e30                scsi_noretry_cmd
                0x00000000c06b9eb0                scsi_report_bus_reset
                0x00000000c06b9ef0                scsi_report_device_reset
                0x00000000c06b9f40                scsi_normalize_sense
                0x00000000c06ba040                scsi_command_normalize_sense
                0x00000000c06ba1f0                scsi_sense_desc_find
                0x00000000c06ba280                scsi_get_sense_info_fld
                0x00000000c06ba380                scsi_build_sense_buffer
                0x00000000c06ba660                scsi_reset_provider
                0x00000000c06ba800                scsi_decide_disposition
                0x00000000c06ba9d0                scsi_eh_flush_done_q
                0x00000000c06baae0                scsi_eh_finish_cmd
                0x00000000c06bab10                scsi_eh_prep_cmnd
                0x00000000c06bb030                scsi_eh_ready_devs
                0x00000000c06bb7e0                scsi_eh_get_sense
                0x00000000c06bb9a0                scsi_error_handler
                0x00000000c06bbf00                scsi_block_when_processing_errors
                0x00000000c06bbfe0                scsi_eh_wakeup
                0x00000000c06bc020                scsi_eh_scmd_add
                0x00000000c06bc0c0                scsi_times_out
                0x00000000c06bc130                scsi_schedule_eh
                0x00000000c06bc210                scsi_calculate_bounce_limit
                0x00000000c06bc270                scsi_block_requests
                0x00000000c06bc280                scsi_kunmap_atomic_sg
                0x00000000c06bc290                scsi_kmap_atomic_sg
                0x00000000c06bc430                scsi_target_resume
                0x00000000c06bc440                scsi_target_quiesce
                0x00000000c06bc450                scsi_target_unblock
                0x00000000c06bc480                scsi_target_block
                0x00000000c06bc4b0                scsi_internal_device_unblock
                0x00000000c06bc830                scsi_prep_state_check
                0x00000000c06bc8d0                sdev_evt_send
                0x00000000c06bc930                scsi_evt_thread
                0x00000000c06bca10                scsi_device_set_state
                0x00000000c06bcb70                scsi_internal_device_block
                0x00000000c06bcbd0                scsi_device_resume
                0x00000000c06bcc10                scsi_device_quiesce
                0x00000000c06bcc60                scsi_exit_queue
                0x00000000c06bcca0                scsi_free_queue
                0x00000000c06bd250                __scsi_alloc_queue
                0x00000000c06bd360                scsi_alloc_queue
                0x00000000c06bd420                scsi_next_command
                0x00000000c06bd690                scsi_release_buffers
                0x00000000c06bd6a0                scsi_prep_return
                0x00000000c06bd720                scsi_init_io
                0x00000000c06bd870                scsi_setup_fs_cmnd
                0x00000000c06bd940                scsi_setup_blk_pc_cmnd
                0x00000000c06bda60                scsi_prep_fn
                0x00000000c06bdab0                scsi_run_host_queues
                0x00000000c06bdae0                scsi_unblock_requests
                0x00000000c06bdaf0                scsi_device_unbusy
                0x00000000c06bdca0                scsi_io_completion
                0x00000000c06be180                scsi_queue_insert
                0x00000000c06be2d0                scsi_execute
                0x00000000c06be430                sdev_evt_alloc
                0x00000000c06be4f0                sdev_evt_send_simple
                0x00000000c06be570                scsi_execute_req
                0x00000000c06be6e0                scsi_test_unit_ready
                0x00000000c06be880                scsi_mode_sense
                0x00000000c06beb70                scsi_mode_select
                0x00000000c06bed70                scsi_dma_unmap
                0x00000000c06bedd0                scsi_dma_map
                0x00000000c06bee70                scsi_is_target_device
                0x00000000c06bee80                scsilun_to_int
                0x00000000c06beeb0                int_to_scsilun
                0x00000000c06beef0                scsi_free_host_dev
                0x00000000c06bef10                scsi_forget_host
                0x00000000c06befa0                scsi_rescan_device
                0x00000000c06bf080                scsi_complete_async_scans
                0x00000000c06bf260                scsi_target_reap
                0x00000000c06c03b0                __scsi_add_device
                0x00000000c06c0490                scsi_add_device
                0x00000000c06c0c20                scsi_scan_host_selected
                0x00000000c06c0f30                scsi_scan_host
                0x00000000c06c1150                scsi_scan_target
                0x00000000c06c1200                scsi_get_host_dev
                0x00000000c06c12a0                scsi_device_state_name
                0x00000000c06c12d0                scsi_host_state_name
                0x00000000c06c1330                scsi_is_sdev_device
                0x00000000c06c2060                scsi_sysfs_device_initialize
                0x00000000c06c2160                scsi_sysfs_add_host
                0x00000000c06c21e0                scsi_register_interface
                0x00000000c06c21f0                scsi_register_driver
                0x00000000c06c2200                __scsi_remove_device
                0x00000000c06c22a0                scsi_remove_device
                0x00000000c06c23a0                scsi_remove_target
                0x00000000c06c2420                scsi_sysfs_add_sdev
                0x00000000c06c2680                scsi_sysfs_unregister
                0x00000000c06c26a0                scsi_sysfs_register
                0x00000000c06c27d0                scsi_dev_info_remove_list
                0x00000000c06c2850                scsi_exit_devinfo
                0x00000000c06c2870                scsi_get_device_flags_keyed
                0x00000000c06c2a30                scsi_get_device_flags
                0x00000000c06c2af0                scsi_dev_info_add_list
                0x00000000c06c2ce0                scsi_dev_info_list_add_keyed
                0x00000000c06c3420                scsi_nl_add_transport
                0x00000000c06c34f0                scsi_netlink_init
                0x00000000c06c35c0                scsi_nl_remove_transport
                0x00000000c06c36a0                scsi_netlink_exit
                0x00000000c06c36d0                scsi_nl_remove_driver
                0x00000000c06c37f0                scsi_nl_send_vendor_msg
                0x00000000c06c3980                scsi_nl_add_driver
                0x00000000c06c3ad0                scsi_nl_send_transport_msg
                0x00000000c06c3c70                scsi_exit_sysctl
                0x00000000c06c3cd0                scsi_exit_procfs
                0x00000000c06c4200                scsi_proc_host_rm
                0x00000000c06c4270                scsi_proc_host_add
                0x00000000c06c4330                scsi_proc_hostdir_rm
                0x00000000c06c4390                scsi_proc_hostdir_add
                0x00000000c06c44d0                scsi_dh_handler_exist
                0x00000000c06c4740                scsi_dh_detach
                0x00000000c06c47e0                scsi_dh_attach
                0x00000000c06c4880                scsi_dh_set_params
                0x00000000c06c4930                scsi_dh_activate
                0x00000000c06c4a40                scsi_unregister_device_handler
                0x00000000c06c4b00                scsi_register_device_handler
                0x00000000c06c4e60                ata_dev_phys_link
                0x00000000c06c4e90                atapi_cmd_type
                0x00000000c06c4f20                ata_tf_to_fis
                0x00000000c06c4fb0                ata_tf_from_fis
                0x00000000c06c50a0                ata_pack_xfermask
                0x00000000c06c50c0                ata_unpack_xfermask
                0x00000000c06c5110                ata_xfer_mask2mode
                0x00000000c06c5160                ata_xfer_mode2mask
                0x00000000c06c51c0                ata_xfer_mode2shift
                0x00000000c06c5200                ata_mode_string
                0x00000000c06c5220                ata_dev_classify
                0x00000000c06c5260                ata_tf_to_lba48
                0x00000000c06c52b0                ata_tf_to_lba
                0x00000000c06c5310                ata_id_xfermask
                0x00000000c06c5400                ata_pio_need_iordy
                0x00000000c06c5470                ata_cable_40wire
                0x00000000c06c5480                ata_cable_80wire
                0x00000000c06c5490                ata_cable_unknown
                0x00000000c06c54a0                ata_cable_ignore
                0x00000000c06c54b0                ata_cable_sata
                0x00000000c06c54c0                ata_port_probe
                0x00000000c06c54d0                ata_dev_pair
                0x00000000c06c5520                ata_port_disable
                0x00000000c06c5540                ata_timing_merge
                0x00000000c06c5610                ata_timing_find_mode
                0x00000000c06c5640                ata_timing_compute
                0x00000000c06c5950                ata_timing_cycle2mode
                0x00000000c06c5a40                ata_std_qc_defer
                0x00000000c06c5a80                ata_noop_qc_prep
                0x00000000c06c5a90                ata_sg_init
                0x00000000c06c5aa0                swap_buf_le16
                0x00000000c06c5ab0                sata_scr_valid
                0x00000000c06c5ad0                ata_host_init
                0x00000000c06c5b10                ata_lpm_schedule
                0x00000000c06c5b30                ata_tf_read_block
                0x00000000c06c5c70                ata_force_cbl
                0x00000000c06c5ce0                ata_qc_new_init
                0x00000000c06c5e60                atapi_check_dma
                0x00000000c06c5e90                ata_id_string
                0x00000000c06c5ed0                ata_build_rw_tf
                0x00000000c06c61d0                ata_dev_next
                0x00000000c06c62d0                ata_link_next
                0x00000000c06c63a0                ata_wait_register
                0x00000000c06c6420                ata_ratelimit
                0x00000000c06c6460                ata_dev_init
                0x00000000c06c64e0                ata_link_init
                0x00000000c06c6580                ata_pci_device_do_resume
                0x00000000c06c65f0                ata_pci_device_do_suspend
                0x00000000c06c6640                pci_test_config_bits
                0x00000000c06c6880                ata_host_resume
                0x00000000c06c68e0                ata_pci_device_resume
                0x00000000c06c6920                ata_qc_free
                0x00000000c06c6970                ata_sg_clean
                0x00000000c06c6a10                __ata_qc_complete
                0x00000000c06c6b20                ata_host_detach
                0x00000000c06c6bb0                ata_pci_remove_one
                0x00000000c06c6bc0                ata_port_flush_task
                0x00000000c06c6cb0                ata_host_start
                0x00000000c06c6ec0                ata_port_start
                0x00000000c06c6ef0                sata_scr_write_flush
                0x00000000c06c6f80                sata_scr_write
                0x00000000c06c6fe0                sata_scr_read
                0x00000000c06c7040                sata_link_init_spd
                0x00000000c06c7250                ata_host_register
                0x00000000c06c7440                ata_host_activate
                0x00000000c06c7560                ata_phys_link_offline
                0x00000000c06c7590                ata_link_offline
                0x00000000c06c75f0                ata_phys_link_online
                0x00000000c06c7620                ata_link_online
                0x00000000c06c7680                ata_wait_ready
                0x00000000c06c7820                ata_wait_after_reset
                0x00000000c06c7860                ata_std_postreset
                0x00000000c06c7a30                sata_link_debounce
                0x00000000c06c7b20                sata_link_resume
                0x00000000c06c7d00                ata_std_prereset
                0x00000000c06c7de0                sata_set_spd
                0x00000000c06c7e90                sata_link_hardreset
                0x00000000c06c8120                sata_std_hardreset
                0x00000000c06c8160                sata_down_spd_limit
                0x00000000c06c82f0                ata_qc_complete
                0x00000000c06c84e0                ata_qc_issue
                0x00000000c06c87c0                ata_qc_complete_multiple
                0x00000000c06c8880                ata_down_xfermask_limit
                0x00000000c06c8ac0                ata_exec_internal_sg
                0x00000000c06c8fa0                ata_exec_internal
                0x00000000c06c91c0                ata_host_suspend
                0x00000000c06c92c0                ata_pci_device_suspend
                0x00000000c06c9310                ata_dev_enable_pm
                0x00000000c06c9380                ata_do_dev_read_id
                0x00000000c06c93b0                ata_dev_read_id
                0x00000000c06c9850                ata_do_simple_cmd
                0x00000000c06c98f0                ata_pio_queue_task
                0x00000000c06c9920                ata_id_c_string
                0x00000000c06c9af0                ata_dev_reread_id
                0x00000000c06c9d80                ata_port_alloc
                0x00000000c06c9f50                ata_host_alloc
                0x00000000c06c9ff0                ata_host_alloc_pinfo
                0x00000000c06ca080                ata_slave_link_init
                0x00000000c06ca8c0                ata_dev_configure
                0x00000000c06cb9d0                ata_dev_revalidate
                0x00000000c06cbbe0                ata_do_set_mode
                0x00000000c06cc580                ata_bus_probe
                0x00000000c06cc9b0                ata_std_bios_param
                0x00000000c06ccf40                ata_sas_port_start
                0x00000000c06ccf50                ata_sas_port_stop
                0x00000000c06ce120                ata_scsi_change_queue_depth
                0x00000000c06ce270                ata_sas_port_destroy
                0x00000000c06ce290                ata_scsi_slave_destroy
                0x00000000c06ce330                ata_sas_port_init
                0x00000000c06ce360                ata_sas_port_alloc
                0x00000000c06ce3b0                ata_scsi_dev_rescan
                0x00000000c06ce470                ata_scsi_offline_dev
                0x00000000c06ce5d0                ata_scsi_media_change_notify
                0x00000000c06ce5f0                ata_scsi_scan_host
                0x00000000c06ce780                ata_scsi_hotplug
                0x00000000c06ce960                ata_scsi_add_hosts
                0x00000000c06cfb20                ata_scsi_simulate
                0x00000000c06cff00                ata_sas_slave_configure
                0x00000000c06cff20                ata_scsi_slave_config
                0x00000000c06cffe0                ata_cmd_ioctl
                0x00000000c06d0250                ata_task_ioctl
                0x00000000c06d0460                ata_sas_scsi_ioctl
                0x00000000c06d06f0                ata_scsi_ioctl
                0x00000000c06d0710                ata_scsi_queuecmd
                0x00000000c06d0940                ata_sas_queuecmd
                0x00000000c06d0ba0                ata_ehi_clear_desc
                0x00000000c06d0bb0                ata_internal_cmd_timeout
                0x00000000c06d0c10                ata_internal_cmd_timed_out
                0x00000000c06d0d50                ata_get_cmd_descript
                0x00000000c06d0ed0                ata_eh_done
                0x00000000c06d0f30                ata_eh_about_to_do
                0x00000000c06d0fa0                ata_eh_thaw_port
                0x00000000c06d1000                ata_eh_freeze_port
                0x00000000c06d1050                ata_scsi_timed_out
                0x00000000c06d14a0                ata_eh_analyze_ncq_error
                0x00000000c06d1790                ata_set_mode
                0x00000000c06d2050                ata_eh_autopsy
                0x00000000c06d2110                ata_eh_reset
                0x00000000c06d2e90                ata_eh_report
                0x00000000c06d3ad0                ata_dev_disable
                0x00000000c06d3b60                ata_eh_detach_dev
                0x00000000c06d3cf0                ata_eh_recover
                0x00000000c06d4ac0                ata_eh_qc_retry
                0x00000000c06d4ae0                ata_eh_qc_complete
                0x00000000c06d4af0                ata_eh_finish
                0x00000000c06d4ba0                ata_do_eh
                0x00000000c06d4c50                ata_std_error_handler
                0x00000000c06d4d60                ata_port_schedule_eh
                0x00000000c06d4da0                sata_async_notification
                0x00000000c06d4f90                ata_port_abort
                0x00000000c06d4fa0                ata_port_freeze
                0x00000000c06d4fd0                ata_eh_fastdrain_timerfn
                0x00000000c06d50f0                ata_link_abort
                0x00000000c06d5100                ata_qc_schedule_eh
                0x00000000c06d5180                ata_port_wait_eh
                0x00000000c06d5230                ata_scsi_error
                0x00000000c06d5920                __ata_ehi_push_desc
                0x00000000c06d5960                ata_port_desc
                0x00000000c06d59e0                ata_port_pbar_desc
                0x00000000c06d5b00                ata_ehi_push_desc
                0x00000000c06d5b90                ata_sff_qc_fill_rtf
                0x00000000c06d5bb0                ata_sff_thaw
                0x00000000c06d5be0                ata_sff_std_ports
                0x00000000c06d5c20                ata_bmdma_mode_filter
                0x00000000c06d5c40                ata_pci_bmdma_clear_simplex
                0x00000000c06d5c70                ata_pci_sff_activate_host
                0x00000000c06d5eb0                ata_pci_sff_init_host
                0x00000000c06d60b0                ata_pci_bmdma_init
                0x00000000c06d6220                ata_pci_sff_prepare_host
                0x00000000c06d62f0                ata_pci_sff_init_one
                0x00000000c06d63f0                ata_bmdma_status
                0x00000000c06d6460                ata_sff_dma_pause
                0x00000000c06d6480                ata_sff_check_status
                0x00000000c06d6520                ata_bmdma_stop
                0x00000000c06d6560                ata_bmdma_start
                0x00000000c06d6580                ata_sff_freeze
                0x00000000c06d65c0                ata_sff_irq_clear
                0x00000000c06d65f0                ata_sff_pause
                0x00000000c06d6600                ata_sff_exec_command
                0x00000000c06d6620                ata_sff_dev_select
                0x00000000c06d6640                ata_bmdma_setup
                0x00000000c06d66b0                ata_sff_port_start32
                0x00000000c06d66d0                ata_sff_port_start
                0x00000000c06d66f0                ata_sff_post_internal_cmd
                0x00000000c06d6740                ata_sff_error_handler
                0x00000000c06d6920                ata_sff_drain_fifo
                0x00000000c06d6990                ata_sff_postreset
                0x00000000c06d69f0                ata_sff_dev_classify
                0x00000000c06d6ae0                sata_sff_hardreset
                0x00000000c06d6b50                ata_sff_tf_read
                0x00000000c06d6e30                ata_sff_dumb_qc_prep
                0x00000000c06d6f50                ata_sff_qc_prep
                0x00000000c06d7140                ata_sff_data_xfer
                0x00000000c06d71e0                ata_sff_data_xfer_noirq
                0x00000000c06d7230                ata_sff_data_xfer32
                0x00000000c06d7350                ata_sff_wait_ready
                0x00000000c06d7360                ata_sff_wait_after_reset
                0x00000000c06d7530                ata_bus_reset
                0x00000000c06d7700                ata_sff_softreset
                0x00000000c06d7860                ata_sff_prereset
                0x00000000c06d7930                ata_sff_irq_on
                0x00000000c06d79a0                ata_sff_busy_sleep
                0x00000000c06d7b20                ata_sff_tf_load
                0x00000000c06d7c80                ata_dev_select
                0x00000000c06d7d70                ata_sff_qc_issue
                0x00000000c06d7fe0                ata_sff_hsm_move
                0x00000000c06d8770                ata_sff_host_intr
                0x00000000c06d88e0                ata_sff_lost_interrupt
                0x00000000c06d8990                ata_sff_interrupt
                0x00000000c06d8a50                ata_pio_task
                0x00000000c06d8e70                sata_pmp_scr_write
                0x00000000c06d9080                sata_pmp_scr_read
                0x00000000c06d9230                sata_pmp_error_handler
                0x00000000c06d9dc0                sata_pmp_qc_defer_cmd_switch
                0x00000000c06d9e10                sata_pmp_attach
                0x00000000c06da280                ata_acpi_on_suspend
                0x00000000c06da290                ata_acpi_on_disable
                0x00000000c06da550                ata_acpi_stm
                0x00000000c06da630                ata_acpi_dissociate
                0x00000000c06da670                ata_acpi_gtm
                0x00000000c06dab40                ata_acpi_on_devcfg
                0x00000000c06dae30                ata_acpi_set_state
                0x00000000c06daec0                ata_acpi_on_resume
                0x00000000c06dafc0                ata_acpi_gtm_xfermask
                0x00000000c06db040                ata_acpi_cbl_80wire
                0x00000000c06db2e0                ata_acpi_associate_sata_port
                0x00000000c06db390                ata_acpi_associate
                0x00000000c06db530                default_mtd_writev
                0x00000000c06db700                put_mtd_device
                0x00000000c06db750                get_mtd_device_nm
                0x00000000c06db860                unregister_mtd_user
                0x00000000c06db8b0                del_mtd_device
                0x00000000c06db9d0                add_mtd_device
                0x00000000c06dbea0                register_mtd_user
                0x00000000c06dbef0                get_mtd_device
                0x00000000c06dc060                kill_mtd_super
                0x00000000c06dc130                get_sb_mtd
                0x00000000c06dc830                mtd_erase_callback
                0x00000000c06dcb80                parse_mtd_partitions
                0x00000000c06dce20                deregister_mtd_parser
                0x00000000c06dce40                register_mtd_parser
                0x00000000c06dce70                del_mtd_partitions
                0x00000000c06dcee0                add_mtd_partitions
                0x00000000c06dddb0                map_destroy
                0x00000000c06dded0                do_map_probe
                0x00000000c06ddf50                unregister_mtd_chip_driver
                0x00000000c06ddf70                register_mtd_chip_driver
                0x00000000c06de070                simple_map_init
                0x00000000c06de120                phy_clear_interrupt
                0x00000000c06de140                phy_config_interrupt
                0x00000000c06de160                phy_sanitize_settings
                0x00000000c06de220                phy_ethtool_gset
                0x00000000c06de270                phy_enable_interrupts
                0x00000000c06de2a0                phy_start
                0x00000000c06de310                phy_stop
                0x00000000c06de3b0                phy_disable_interrupts
                0x00000000c06de3f0                phy_start_aneg
                0x00000000c06de490                phy_ethtool_sset
                0x00000000c06de530                phy_stop_interrupts
                0x00000000c06de5b0                phy_print_status
                0x00000000c06de630                phy_start_interrupts
                0x00000000c06de700                phy_stop_machine
                0x00000000c06de840                phy_start_machine
                0x00000000c06ded80                phy_mii_ioctl
                0x00000000c06def00                get_phy_id
                0x00000000c06def60                phy_prepare_link
                0x00000000c06df010                genphy_update_link
                0x00000000c06df070                genphy_read_status
                0x00000000c06df260                phy_driver_unregister
                0x00000000c06df270                phy_driver_register
                0x00000000c06df3f0                genphy_resume
                0x00000000c06df440                genphy_suspend
                0x00000000c06df490                genphy_restart_aneg
                0x00000000c06df4d0                genphy_setup_forced
                0x00000000c06df540                genphy_config_advert
                0x00000000c06df670                genphy_config_aneg
                0x00000000c06df700                phy_detach
                0x00000000c06df720                phy_disconnect
                0x00000000c06df750                phy_scan_fixups
                0x00000000c06df800                phy_attach_direct
                0x00000000c06df8d0                phy_attach
                0x00000000c06df950                phy_connect_direct
                0x00000000c06df9c0                phy_connect
                0x00000000c06dfa40                phy_device_register
                0x00000000c06dfac0                phy_device_free
                0x00000000c06dfae0                phy_device_create
                0x00000000c06dfc70                get_phy_device
                0x00000000c06dfcc0                phy_register_fixup
                0x00000000c06dfdb0                phy_register_fixup_for_id
                0x00000000c06dfdd0                phy_register_fixup_for_uid
                0x00000000c06dfed0                mdio_bus_exit
                0x00000000c06dff10                mdiobus_write
                0x00000000c06dff80                mdiobus_read
                0x00000000c06dffe0                mdiobus_scan
                0x00000000c06e0020                mdiobus_free
                0x00000000c06e0050                mdiobus_unregister
                0x00000000c06e00a0                mdiobus_register
                0x00000000c06e0200                mdiobus_alloc
                0x00000000c06e02a0                fixed_phy_set_link_update
                0x00000000c06e0510                fixed_phy_add
                0x00000000c06e0d40                pcmcia_suspend_card
                0x00000000c06e0dc0                pcmcia_reset_card
                0x00000000c06e0e80                pccard_register_pcmcia
                0x00000000c06e1060                pcmcia_eject_card
                0x00000000c06e10d0                pcmcia_parse_events
                0x00000000c06e1140                pcmcia_get_socket_by_nr
                0x00000000c06e1240                pcmcia_socket_dev_resume
                0x00000000c06e1250                pcmcia_socket_dev_late_resume
                0x00000000c06e1260                pcmcia_socket_dev_early_resume
                0x00000000c06e1270                pcmcia_socket_dev_suspend
                0x00000000c06e1280                pcmcia_unregister_socket
                0x00000000c06e12e0                pcmcia_register_socket
                0x00000000c06e1560                pcmcia_put_socket
                0x00000000c06e16e0                pcmcia_insert_card
                0x00000000c06e1800                pcmcia_resume_card
                0x00000000c06e1ad0                pcmcia_get_socket
                0x00000000c06e1d50                pcmcia_parse_tuple
                0x00000000c06e2c10                destroy_cis_cache
                0x00000000c06e2da0                pcmcia_write_cis_mem
                0x00000000c06e2f10                pcmcia_read_cis_mem
                0x00000000c06e30a0                release_cis_mem
                0x00000000c06e32c0                pccard_get_tuple_data
                0x00000000c06e3360                pccard_get_next_tuple
                0x00000000c06e3770                pccard_get_first_tuple
                0x00000000c06e38a0                pccard_read_tuple
                0x00000000c06e39f0                verify_cis_cache
                0x00000000c06e3b80                pccard_validate_cis
                0x00000000c06e3e70                pcmcia_replace_cis
                0x00000000c06e3f40                pcmcia_validate_mem
                0x00000000c06e3f60                pcmcia_adjust_io_region
                0x00000000c06e3fa0                pcmcia_find_io_region
                0x00000000c06e3fe0                pcmcia_find_mem_region
                0x00000000c06e4030                release_resource_db
                0x00000000c06e4090                pccard_sysfs_remove_socket
                0x00000000c06e4660                pccard_sysfs_add_socket
                0x00000000c06e4a10                cb_free
                0x00000000c06e4b00                read_cb_mem
                0x00000000c06e4d90                pcmcia_error_func
                0x00000000c06e4dd0                pcmcia_error_ret
                0x00000000c06e5590                pcmcia_get_dev
                0x00000000c06e55b0                pcmcia_put_dev
                0x00000000c06e56d0                pcmcia_dev_present
                0x00000000c06e5a90                pcmcia_unregister_driver
                0x00000000c06e5ae0                pcmcia_register_driver
                0x00000000c06e65a0                pcmcia_device_add
                0x00000000c06e6bb0                pcmcia_get_window
                0x00000000c06e6cc0                pcmcia_get_mem_page
                0x00000000c06e6cf0                pcmcia_map_mem_page
                0x00000000c06e6d30                pcmcia_release_configuration
                0x00000000c06e6ee0                pcmcia_release_window
                0x00000000c06e6f90                pcmcia_disable_device
                0x00000000c06e70b0                pcmcia_request_window
                0x00000000c06e7310                pcmcia_request_irq
                0x00000000c06e7800                pcmcia_request_io
                0x00000000c06e78f0                pcmcia_request_configuration
                0x00000000c06e7cb0                pcmcia_modify_configuration
                0x00000000c06e7e90                pcmcia_access_configuration_register
                0x00000000c06e7f40                pcmcia_loop_config
                0x00000000c06e8570                handle_event
                0x00000000c06e9540                otg_set_transceiver
                0x00000000c06e9570                otg_put_transceiver
                0x00000000c06e9590                otg_get_transceiver
                0x00000000c06e95b0                usb_ifnum_to_if
                0x00000000c06e9600                usb_altnum_to_altsetting
                0x00000000c06e9680                usb_disabled
                0x00000000c06e9700                __usb_get_extra_descriptor
                0x00000000c06e98d0                usb_buffer_unmap_sg
                0x00000000c06e9930                usb_buffer_map_sg
                0x00000000c06e9a00                usb_buffer_free
                0x00000000c06e9a40                usb_buffer_alloc
                0x00000000c06e9a60                usb_get_current_frame_number
                0x00000000c06e9a70                usb_lock_device_for_reset
                0x00000000c06e9b30                usb_put_intf
                0x00000000c06e9b50                usb_put_dev
                0x00000000c06e9b70                usb_get_intf
                0x00000000c06e9b90                usb_get_dev
                0x00000000c06e9d20                usb_find_device
                0x00000000c06e9db0                usb_find_interface
                0x00000000c06e9df0                usb_alloc_dev
                0x00000000c06ea1f0                usb_queue_reset_device
                0x00000000c06ea200                usb_root_hub_lost_power
                0x00000000c06ea400                usb_device_is_owned
                0x00000000c06ea4a0                usb_hub_release_all_ports
                0x00000000c06ea4f0                usb_hub_release_port
                0x00000000c06ea520                usb_hub_claim_port
                0x00000000c06ea860                usb_set_device_state
                0x00000000c06ead20                usb_port_suspend
                0x00000000c06eb070                usb_kick_khubd
                0x00000000c06eb090                usb_hub_cleanup
                0x00000000c06eba80                usb_hub_init
                0x00000000c06ebbb0                usb_ep0_reinit
                0x00000000c06ec650                usb_authorize_device
                0x00000000c06ec830                usb_deauthorize_device
                0x00000000c06ec8e0                usb_new_device
                0x00000000c06ecaf0                usb_disconnect
                0x00000000c06ecf50                usb_hub_clear_tt_buffer
                0x00000000c06ed780                usb_reset_device
                0x00000000c06ef010                usb_port_resume
                0x00000000c06f06d0                usb_hcd_reset_endpoint
                0x00000000c06f0740                usb_hcd_get_frame_number
                0x00000000c06f0770                usb_mon_register
                0x00000000c06f07a0                usb_mon_deregister
                0x00000000c06f07d0                usb_hcd_check_bandwidth
                0x00000000c06f09c0                usb_hcd_platform_shutdown
                0x00000000c06f09e0                usb_hcd_check_unlink_urb
                0x00000000c06f0a70                usb_calc_bus_time
                0x00000000c06f0c60                usb_hcd_synchronize_unlinks
                0x00000000c06f0db0                usb_remove_hcd
                0x00000000c06f0ee0                hcd_bus_suspend
                0x00000000c06f1040                usb_put_hcd
                0x00000000c06f1070                usb_get_hcd
                0x00000000c06f10e0                usb_hc_died
                0x00000000c06f1150                usb_hcd_irq
                0x00000000c06f11c0                usb_hcd_resume_root_hub
                0x00000000c06f1210                hcd_bus_resume
                0x00000000c06f13a0                usb_hcd_disable_endpoint
                0x00000000c06f13e0                usb_hcd_unlink_urb_from_ep
                0x00000000c06f1410                usb_hcd_link_urb_to_ep
                0x00000000c06f1670                usb_hcd_giveback_urb
                0x00000000c06f1810                usb_hcd_flush_endpoint
                0x00000000c06f19a0                usb_hcd_unlink_urb
                0x00000000c06f1b10                usb_hcd_poll_rh_status
                0x00000000c06f1c40                usb_add_hcd
                0x00000000c06f2510                usb_hcd_submit_urb
                0x00000000c06f2ed0                usb_create_hcd
                0x00000000c06f3020                usb_unpoison_urb
                0x00000000c06f3030                usb_anchor_empty
                0x00000000c06f3040                usb_unpoison_anchored_urbs
                0x00000000c06f3090                usb_wait_anchor_empty_timeout
                0x00000000c06f3110                usb_unlink_urb
                0x00000000c06f3140                usb_poison_urb
                0x00000000c06f31d0                usb_kill_urb
                0x00000000c06f3270                usb_submit_urb
                0x00000000c06f3550                usb_get_urb
                0x00000000c06f3560                usb_anchor_urb
                0x00000000c06f35c0                usb_free_urb
                0x00000000c06f3640                usb_scuttle_anchored_urbs
                0x00000000c06f3680                usb_get_from_anchor
                0x00000000c06f36e0                usb_unanchor_urb
                0x00000000c06f3750                usb_unlink_anchored_urbs
                0x00000000c06f3780                usb_poison_anchored_urbs
                0x00000000c06f37e0                usb_kill_anchored_urbs
                0x00000000c06f3860                usb_init_urb
                0x00000000c06f38a0                usb_alloc_urb
                0x00000000c06f3ab0                __usb_queue_reset_device
                0x00000000c06f3b80                usb_enable_endpoint
                0x00000000c06f3c20                usb_enable_interface
                0x00000000c06f3c70                usb_reset_endpoint
                0x00000000c06f3ca0                usb_disable_endpoint
                0x00000000c06f3d30                usb_disable_device
                0x00000000c06f3f10                usb_disable_interface
                0x00000000c06f3f60                usb_sg_cancel
                0x00000000c06f4270                usb_sg_wait
                0x00000000c06f4420                usb_sg_init
                0x00000000c06f49b0                usb_bulk_msg
                0x00000000c06f4b00                usb_interrupt_msg
                0x00000000c06f4b10                usb_driver_set_configuration
                0x00000000c06f4c10                usb_control_msg
                0x00000000c06f4d60                usb_reset_configuration
                0x00000000c06f4e90                usb_clear_halt
                0x00000000c06f4f00                usb_set_interface
                0x00000000c06f5340                usb_string
                0x00000000c06f5620                usb_get_descriptor
                0x00000000c06f56e0                usb_get_device_descriptor
                0x00000000c06f57b0                usb_get_status
                0x00000000c06f58c0                usb_cache_string
                0x00000000c06f59c0                usb_set_configuration
                0x00000000c06f61b0                usb_match_device
                0x00000000c06f6260                usb_match_one_id
                0x00000000c06f6310                usb_match_id
                0x00000000c06f6a00                usb_autopm_put_interface_async
                0x00000000c06f6a70                usb_autopm_get_interface_async
                0x00000000c06f6bd0                usb_autoresume_device
                0x00000000c06f6be0                usb_try_autosuspend_device
                0x00000000c06f6bf0                usb_autosuspend_device
                0x00000000c06f70e0                usb_autopm_set_interface
                0x00000000c06f70f0                usb_autopm_get_interface
                0x00000000c06f7100                usb_autopm_put_interface
                0x00000000c06f7110                usb_autoresume_work
                0x00000000c06f7140                usb_autosuspend_work
                0x00000000c06f7150                usb_deregister_device_driver
                0x00000000c06f7190                usb_deregister
                0x00000000c06f7220                usb_register_device_driver
                0x00000000c06f72e0                usb_register_driver
                0x00000000c06f7760                usb_driver_release_interface
                0x00000000c06f77f0                usb_rebind_intf
                0x00000000c06f78a0                usb_forced_unbind_intf
                0x00000000c06f7990                usb_external_resume_device
                0x00000000c06f7a00                usb_resume
                0x00000000c06f7a20                usb_external_suspend_device
                0x00000000c06f7a70                usb_suspend
                0x00000000c06f7af0                usb_driver_claim_interface
                0x00000000c06f7b90                usb_store_new_id
                0x00000000c06f7cf0                usb_release_interface_cache
                0x00000000c06f7d30                usb_destroy_configuration
                0x00000000c06f7e40                usb_get_configuration
                0x00000000c06f9d20                usb_deregister_dev
                0x00000000c06f9e60                usb_major_cleanup
                0x00000000c06f9e80                usb_major_init
                0x00000000c06f9ed0                usb_register_dev
                0x00000000c06fa3c0                hcd_buffer_free
                0x00000000c06fa4d0                hcd_buffer_alloc
                0x00000000c06fa5f0                hcd_buffer_destroy
                0x00000000c06fa620                hcd_buffer_create
                0x00000000c06fb140                usb_remove_sysfs_intf_files
                0x00000000c06fb170                usb_create_sysfs_intf_files
                0x00000000c06fb2f0                usb_remove_sysfs_dev_files
                0x00000000c06fb6d0                usb_create_sysfs_dev_files
                0x00000000c06fb7d0                usb_remove_ep_devs
                0x00000000c06fba60                usb_create_ep_devs
                0x00000000c06fe900                usb_devio_cleanup
                0x00000000c06feb90                usb_notify_remove_bus
                0x00000000c06febb0                usb_notify_add_bus
                0x00000000c06febd0                usb_notify_add_device
                0x00000000c06febf0                usb_notify_remove_device
                0x00000000c06fec20                usb_unregister_notify
                0x00000000c06fec30                usb_register_notify
                0x00000000c06fecc0                usb_choose_configuration
                0x00000000c06fef90                usb_detect_quirks
                0x00000000c06ffcf0                usbfs_conn_disc_event
                0x00000000c0700060                usb_hcd_pci_shutdown
                0x00000000c0700260                usb_hcd_pci_remove
                0x00000000c0700340                usb_hcd_pci_probe
                0x00000000c0700840                usbfs_cleanup
                0x00000000c0700ea0                usbfs_update_special
                0x00000000c07015c0                mon_bus_lookup
                0x00000000c07017d0                mon_reader_del
                0x00000000c07018a0                mon_reader_add
                0x00000000c0701ca0                mon_text_exit
                0x00000000c0701cb0                mon_text_del
                0x00000000c0701f00                mon_text_add
                0x00000000c0702c70                mon_bin_exit
                0x00000000c0703880                mon_bin_del
                0x00000000c07038a0                mon_bin_add
                0x00000000c0704180                uhci_reset_hc
                0x00000000c0704210                uhci_check_and_reset_hc
                0x00000000c07151d0                dbgp_reset_prep
                0x00000000c0715620                dbgp_external_startup
                0x00000000c0715ee0                serio_close
                0x00000000c0715f10                serio_open
                0x00000000c07161f0                serio_unregister_child_port
                0x00000000c0716220                serio_unregister_port
                0x00000000c07168c0                serio_unregister_driver
                0x00000000c0716b60                serio_reconnect
                0x00000000c0716b70                serio_rescan
                0x00000000c0716b80                serio_interrupt
                0x00000000c0716c00                __serio_register_driver
                0x00000000c0716ca0                __serio_register_port
                0x00000000c0716d80                i8042_check_port_owner
                0x00000000c0717290                i8042_command
                0x00000000c0717b70                i8042_unlock_chip
                0x00000000c0717b80                i8042_lock_chip
                0x00000000c0718390                ps2_cmd_aborted
                0x00000000c07183d0                ps2_handle_response
                0x00000000c0718460                ps2_handle_ack
                0x00000000c0718560                ps2_init
                0x00000000c07185a0                ps2_sendbyte
                0x00000000c0718690                ps2_is_keyboard_id
                0x00000000c07186b0                __ps2_command
                0x00000000c0718a40                ps2_end_command
                0x00000000c0718a60                ps2_begin_command
                0x00000000c0718a90                ps2_command
                0x00000000c0718ad0                ps2_drain
                0x00000000c0718ca0                input_get_keycode
                0x00000000c0719030                input_flush_device
                0x00000000c0719ba0                input_unregister_handle
                0x00000000c0719c80                input_release_device
                0x00000000c0719cc0                input_close_device
                0x00000000c0719d30                input_open_device
                0x00000000c0719dd0                input_grab_device
                0x00000000c0719e40                input_register_handle
                0x00000000c071a1f0                input_register_device
                0x00000000c071a3c0                input_set_keycode
                0x00000000c071a4b0                input_set_capability
                0x00000000c071a570                input_free_device
                0x00000000c071aef0                input_allocate_device
                0x00000000c071afe0                input_unregister_handler
                0x00000000c071b0a0                input_unregister_device
                0x00000000c071b250                input_inject_event
                0x00000000c071b2f0                input_event
                0x00000000c071b380                input_register_handler
                0x00000000c071b6f0                input_ff_effect_from_user
                0x00000000c071b720                input_event_from_user
                0x00000000c071b740                input_event_to_user
                0x00000000c071b760                input_ff_event
                0x00000000c071b7f0                input_ff_destroy
                0x00000000c071b9a0                input_ff_erase
                0x00000000c071ba00                input_ff_upload
                0x00000000c071bd30                input_ff_create
                0x00000000c071c3c0                input_ff_create_memless
                0x00000000c07217d0                psmouse_set_resolution
                0x00000000c0721840                psmouse_reset
                0x00000000c0721880                psmouse_sliced_command
                0x00000000c0722100                psmouse_attr_show_helper
                0x00000000c0722180                psmouse_set_state
                0x00000000c0722320                psmouse_attr_set_helper
                0x00000000c0722ae0                psmouse_queue_work
                0x00000000c0723720                synaptics_reset
                0x00000000c0723750                synaptics_detect
                0x00000000c07241b0                synaptics_init
                0x00000000c0724770                alps_detect
                0x00000000c0724b50                alps_init
                0x00000000c0725ca0                elantech_detect
                0x00000000c0726530                elantech_init
                0x00000000c0726970                hgpk_detect
                0x00000000c07271f0                hgpk_init
                0x00000000c0727550                ps2pp_init
                0x00000000c0728100                lifebook_detect
                0x00000000c0728170                lifebook_init
                0x00000000c0728790                fsp_detect
                0x00000000c07295f0                fsp_init
                0x00000000c0729cf0                trackpoint_detect
                0x00000000c072a510                rtc_tm_to_time
                0x00000000c072a560                rtc_month_days
                0x00000000c072a5d0                rtc_time_to_tm
                0x00000000c072a720                rtc_valid_tm
                0x00000000c072a780                rtc_year_days
                0x00000000c072a980                rtc_device_unregister
                0x00000000c072aa20                rtc_device_register
                0x00000000c072ac80                rtc_irq_set_freq
                0x00000000c072ad30                rtc_irq_set_state
                0x00000000c072add0                rtc_irq_unregister
                0x00000000c072ae20                rtc_class_close
                0x00000000c072ae40                rtc_class_open
                0x00000000c072af20                rtc_update_irq
                0x00000000c072afd0                rtc_update_irq_enable
                0x00000000c072b040                rtc_alarm_irq_enable
                0x00000000c072b0b0                rtc_read_time
                0x00000000c072b140                rtc_set_alarm
                0x00000000c072b1c0                rtc_set_time
                0x00000000c072b270                rtc_set_mmss
                0x00000000c072b340                rtc_read_alarm
                0x00000000c072b710                rtc_irq_register
                0x00000000c072b7e0                rtc_dev_del_device
                0x00000000c072b800                rtc_dev_add_device
                0x00000000c072b8a0                rtc_dev_prepare
                0x00000000c072bfe0                rtc_proc_del_device
                0x00000000c072c000                rtc_proc_add_device
                0x00000000c072c4e0                rtc_sysfs_del_device
                0x00000000c072c620                rtc_sysfs_add_device
                0x00000000c072dbd0                power_supply_set_battery_charged
                0x00000000c072dbf0                power_supply_unregister
                0x00000000c072dc10                power_supply_is_system_supplied
                0x00000000c072dc30                power_supply_am_i_supplied
                0x00000000c072de70                power_supply_get_by_name
                0x00000000c072dea0                power_supply_changed
                0x00000000c072df10                power_supply_register
                0x00000000c072e130                power_supply_remove_attrs
                0x00000000c072e180                power_supply_create_attrs
                0x00000000c072e260                power_supply_uevent
                0x00000000c072e630                power_supply_remove_triggers
                0x00000000c072e690                power_supply_create_triggers
                0x00000000c072e790                power_supply_update_leds
                0x00000000c072eef0                olpc_battery_trigger_uevent
                0x00000000c072ef30                hwmon_device_unregister
                0x00000000c072efc0                hwmon_device_register
                0x00000000c072f8a0                thermal_zone_device_unregister
                0x00000000c072fad0                thermal_cooling_device_unregister
                0x00000000c072fc80                thermal_zone_device_update
                0x00000000c072fef0                thermal_zone_unbind_cooling_device
                0x00000000c072ffa0                thermal_zone_bind_cooling_device
                0x00000000c0730460                thermal_cooling_device_register
                0x00000000c0730700                thermal_zone_device_register
                0x00000000c0730ea0                mddev_congested
                0x00000000c0730fb0                md_check_no_bitmap
                0x00000000c0731090                unregister_md_personality
                0x00000000c0732550                md_new_event
                0x00000000c0732580                md_wakeup_thread
                0x00000000c07326c0                md_done_sync
                0x00000000c07340e0                md_error
                0x00000000c0734550                md_set_array_sectors
                0x00000000c0735280                md_write_start
                0x00000000c0735630                register_md_personality
                0x00000000c0735780                md_wait_for_blocked_rdev
                0x00000000c0735960                md_do_sync
                0x00000000c0736800                md_write_end
                0x00000000c0736850                md_unregister_thread
                0x00000000c0736f30                md_integrity_add_rdev
                0x00000000c0736fb0                md_integrity_register
                0x00000000c07370c0                md_super_wait
                0x00000000c0737180                sync_page_io
                0x00000000c0737240                md_super_write
                0x00000000c0737830                md_allow_write
                0x00000000c07388c0                md_autodetect_dev
                0x00000000c073afa0                md_register_thread
                0x00000000c073d390                md_check_recovery
                0x00000000c073d8b0                bitmap_write_all
                0x00000000c073d8f0                bitmap_print_sb
                0x00000000c073e4a0                bitmap_end_sync
                0x00000000c073e5a0                bitmap_close_sync
                0x00000000c073e610                bitmap_endwrite
                0x00000000c073e900                bitmap_dirty_bits
                0x00000000c073e960                bitmap_start_sync
                0x00000000c073ea70                bitmap_destroy
                0x00000000c073eae0                bitmap_cond_end_sync
                0x00000000c073ec90                bitmap_startwrite
                0x00000000c073f400                bitmap_update_sb
                0x00000000c073f4c0                bitmap_daemon_work
                0x00000000c073f8d0                bitmap_flush
                0x00000000c073f930                bitmap_unplug
                0x00000000c073fab0                bitmap_create
                0x00000000c0740520                edac_handler_set
                0x00000000c0740540                edac_atomic_assert_error
                0x00000000c07405a0                cpufreq_cpu_put
                0x00000000c0740600                cpufreq_register_governor
                0x00000000c0740660                cpufreq_unregister_notifier
                0x00000000c0740690                cpufreq_register_notifier
                0x00000000c07409c0                cpufreq_debug_printk
                0x00000000c0740b10                cpufreq_unregister_driver
                0x00000000c0740ba0                cpufreq_register_driver
                0x00000000c0740d60                __cpufreq_driver_target
                0x00000000c0740e20                cpufreq_notify_transition
                0x00000000c0741090                cpufreq_cpu_get
                0x00000000c0741310                cpufreq_get_policy
                0x00000000c0741350                __cpufreq_driver_getavg
                0x00000000c07413c0                cpufreq_quick_get
                0x00000000c07413e0                unlock_policy_rwsem_write
                0x00000000c0741410                unlock_policy_rwsem_read
                0x00000000c0741440                lock_policy_rwsem_write
                0x00000000c07414b0                cpufreq_driver_target
                0x00000000c0741590                lock_policy_rwsem_read
                0x00000000c0741600                cpufreq_get
                0x00000000c07416c0                cpufreq_unregister_governor
                0x00000000c0741850                cpufreq_add_dev_symlink
                0x00000000c0741920                cpufreq_add_dev_policy
                0x00000000c0742130                cpufreq_add_dev_interface
                0x00000000c0742300                cpufreq_update_policy
                0x00000000c0742f40                cpufreq_frequency_get_table
                0x00000000c0742fd0                cpufreq_frequency_table_put_attr
                0x00000000c0743010                cpufreq_frequency_table_get_attr
                0x00000000c0743060                cpufreq_frequency_table_target
                0x00000000c0743210                cpufreq_frequency_table_verify
                0x00000000c07433a0                cpufreq_frequency_table_cpuinfo
                0x00000000c07434b0                cpuidle_install_idle_handler
                0x00000000c0743510                cpuidle_resume_and_unlock
                0x00000000c0743740                cpuidle_disable_device
                0x00000000c0743790                cpuidle_enable_device
                0x00000000c0743880                cpuidle_register_device
                0x00000000c07438f0                cpuidle_uninstall_idle_handler
                0x00000000c0743920                cpuidle_pause_and_lock
                0x00000000c0743930                cpuidle_unregister_device
                0x00000000c0743ab0                cpuidle_unregister_driver
                0x00000000c0743ad0                cpuidle_register_driver
                0x00000000c0743b10                cpuidle_switch_governor
                0x00000000c0743c60                cpuidle_unregister_governor
                0x00000000c0743d30                cpuidle_register_governor
                0x00000000c0743e00                cpuidle_remove_sysfs
                0x00000000c0743e20                cpuidle_add_sysfs
                0x00000000c07440e0                cpuidle_remove_class_sysfs
                0x00000000c0744140                cpuidle_add_class_sysfs
                0x00000000c0744300                cpuidle_add_state_sysfs
                0x00000000c0744470                cpuidle_remove_state_sysfs
                0x00000000c0744aa0                led_classdev_suspend
                0x00000000c0744ab0                led_classdev_resume
                0x00000000c0744b00                led_classdev_unregister
                0x00000000c0744cb0                led_classdev_register
                0x00000000c0744de0                led_trigger_event
                0x00000000c0744e40                led_trigger_set
                0x00000000c0744f00                led_trigger_unregister
                0x00000000c0744f80                led_trigger_unregister_simple
                0x00000000c0744fa0                led_trigger_register
                0x00000000c07450a0                led_trigger_set_default
                0x00000000c0745120                led_trigger_remove
                0x00000000c0745150                led_trigger_show
                0x00000000c0745250                led_trigger_store
                0x00000000c0745360                led_trigger_register_simple
                0x00000000c07454d0                dmi_get_system_info
                0x00000000c07454e0                dmi_match
                0x00000000c0745510                dmi_find_device
                0x00000000c0745560                dmi_walk
                0x00000000c07455e0                dmi_get_date
                0x00000000c0745720                dmi_name_in_vendors
                0x00000000c0745760                dmi_name_in_serial
                0x00000000c0745820                dmi_first_match
                0x00000000c0745860                dmi_check_system
                0x00000000c0746900                firmware_map_add
                0x00000000c0746a00                acpi_pm_read_verified
                0x00000000c0746a70                dma_find_channel
                0x00000000c0746a90                dma_async_tx_descriptor_init
                0x00000000c0746c50                dma_run_dependencies
                0x00000000c0746cc0                dma_sync_wait
                0x00000000c0746d30                dma_wait_for_async_tx
                0x00000000c0746e50                dma_release_channel
                0x00000000c0746ed0                dma_async_memcpy_pg_to_pg
                0x00000000c0747030                dmaengine_put
                0x00000000c07471b0                dma_issue_pending_all
                0x00000000c07473d0                dma_async_device_unregister
                0x00000000c07474a0                dma_async_memcpy_buf_to_pg
                0x00000000c0747610                dma_async_memcpy_buf_to_buf
                0x00000000c0747980                dmaengine_get
                0x00000000c0747a70                __dma_request_channel
                0x00000000c0747df0                dma_async_device_register
                0x00000000c07483a0                dma_memcpy_pg_to_iovec
                0x00000000c0748520                dma_memcpy_to_iovec
                0x00000000c0748680                dma_unpin_iovec_pages
                0x00000000c07486f0                dma_pin_iovec_pages
                0x00000000c07488e0                hid_check_keys_pressed
                0x00000000c0749460                hid_unregister_driver
                0x00000000c0749570                __hid_register_driver
                0x00000000c07495d0                hid_destroy_device
                0x00000000c0749620                hid_add_device
                0x00000000c07497e0                hid_disconnect
                0x00000000c0749880                hid_connect
                0x00000000c0749c50                hid_set_field
                0x00000000c0749f00                hid_output_report
                0x00000000c074a1f0                hid_parse_report
                0x00000000c074a510                hid_report_raw_event
                0x00000000c074ab20                hid_input_report
                0x00000000c074ae60                hid_allocate_device
                0x00000000c074b7a0                hidinput_find_field
                0x00000000c074b860                hidinput_disconnect
                0x00000000c074b9f0                hidinput_report_event
                0x00000000c074ba40                hidinput_hid_event
                0x00000000c074bea0                hidinput_connect
                0x00000000c074e250                hid_debug_exit
                0x00000000c074e260                hid_debug_init
                0x00000000c074e280                hid_debug_unregister
                0x00000000c074e2d0                hid_debug_register
                0x00000000c074e580                hid_resolv_event
                0x00000000c074e5e0                hid_debug_event
                0x00000000c074e6a0                hid_resolv_usage
                0x00000000c074e980                hid_dump_input_mapping
                0x00000000c074ea90                hid_dump_input
                0x00000000c074eb20                hid_dump_field
                0x00000000c074f140                hid_dump_device
                0x00000000c074f4f0                hidraw_exit
                0x00000000c074fa30                hidraw_disconnect
                0x00000000c074fac0                hidraw_report_event
                0x00000000c074fd30                hidraw_connect
                0x00000000c0755480                usbhid_get_power
                0x00000000c07554c0                usbhid_put_power
                0x00000000c07556f0                usbhid_close
                0x00000000c0755780                usbhid_open
                0x00000000c0755810                usbhid_wait_io
                0x00000000c07562a0                usbhid_submit_report
                0x00000000c07566f0                usbhid_set_leds
                0x00000000c07567d0                usbhid_init_reports
                0x00000000c0756ed0                usbhid_lookup_quirk
                0x00000000c0757000                usbhid_quirks_exit
                0x00000000c0757060                usbhid_quirks_init
                0x00000000c0757390                hiddev_exit
                0x00000000c07573a0                hiddev_disconnect
                0x00000000c0757a50                hiddev_report_event
                0x00000000c0757ac0                hiddev_hid_event
                0x00000000c07587b0                hiddev_connect
                0x00000000c0759ad0                hid_pidff_init
 .text          0x00000000c075a950     0x2f5c arch/x86/pci/built-in.o
                0x00000000c075a950                pcibios_align_resource
                0x00000000c075a9a0                x86_pci_root_bus_res_quirks
                0x00000000c075a9b0                pci_mmap_page_range
                0x00000000c075aa70                pcibios_set_master
                0x00000000c075ab20                pcibios_set_irq_routing
                0x00000000c075ad20                pcibios_get_irq_routing_table
                0x00000000c075be60                pcibios_penalize_isa_irq
                0x00000000c075bea0                eisa_set_level_irq
                0x00000000c075d060                raw_pci_read
                0x00000000c075d0f0                raw_pci_write
                0x00000000c075d200                pcibios_assign_all_busses
                0x00000000c075d210                pcibios_disable_device
                0x00000000c075d230                pci_ext_cfg_avail
                0x00000000c075d240                pcibios_enable_device
                0x00000000c075d2f0                early_pci_allowed
                0x00000000c075d310                write_pci_config_16
                0x00000000c075d3e0                write_pci_config_byte
                0x00000000c075d4b0                write_pci_config
                0x00000000c075d550                read_pci_config_16
                0x00000000c075d5e0                read_pci_config_byte
                0x00000000c075d670                read_pci_config
                0x00000000c075d700                early_dump_pci_device
                0x00000000c075d7b0                early_dump_pci_devices
 *fill*         0x00000000c075d8ac        0x4 9090
 .text          0x00000000c075d8b0      0x650 arch/x86/power/built-in.o
                0x00000000c075d8b0                restore_processor_state
                0x00000000c075da90                save_processor_state
                0x00000000c075dbc0                pfn_is_nosave
                0x00000000c075dbf0                swsusp_arch_resume
                0x00000000c075de50                swsusp_arch_suspend
                0x00000000c075de7c                restore_image
 .text          0x00000000c075df00       0x23 arch/x86/video/built-in.o
                0x00000000c075df00                fb_is_primary_device
 *fill*         0x00000000c075df23        0xd 9090
 .text          0x00000000c075df30    0x9a523 net/built-in.o
                0x00000000c075df70                kernel_bind
                0x00000000c075df80                kernel_listen
                0x00000000c075df90                kernel_connect
                0x00000000c075dfc0                kernel_getsockname
                0x00000000c075dfe0                kernel_getpeername
                0x00000000c075e000                kernel_sock_ioctl
                0x00000000c075e040                kernel_sock_shutdown
                0x00000000c075f2f0                kernel_sendpage
                0x00000000c075f3a0                kernel_setsockopt
                0x00000000c075f410                kernel_getsockopt
                0x00000000c075f550                socket_seq_show
                0x00000000c075f5c0                sock_unregister
                0x00000000c075f610                sock_register
                0x00000000c075f6b0                dlci_ioctl_set
                0x00000000c075f6d0                vlan_ioctl_set
                0x00000000c075f6f0                brioctl_set
                0x00000000c075fb50                sock_map_fd
                0x00000000c075fbf0                sock_wake_async
                0x00000000c075fc70                sock_release
                0x00000000c075fee0                sock_create_kern
                0x00000000c075ff10                sock_create
                0x00000000c075ff60                sys_socketpair
                0x00000000c0760160                sys_socket
                0x00000000c07601e0                sock_create_lite
                0x00000000c0760280                sockfd_lookup
                0x00000000c07602d0                move_addr_to_kernel
                0x00000000c0760330                move_addr_to_user
                0x00000000c0760590                sock_tx_timestamp
                0x00000000c07605c0                __sock_recv_timestamp
                0x00000000c0760790                sys_listen
                0x00000000c0760810                sys_shutdown
                0x00000000c0760880                sys_getsockopt
                0x00000000c0760940                sys_connect
                0x00000000c0760a40                sys_bind
                0x00000000c0760b30                sys_getsockname
                0x00000000c0760c20                sock_sendmsg
                0x00000000c0760d40                kernel_sendmsg
                0x00000000c0760d90                sys_sendto
                0x00000000c0760ef0                sys_send
                0x00000000c0760f30                sock_recvmsg
                0x00000000c0761070                kernel_recvmsg
                0x00000000c07610c0                sys_recvfrom
                0x00000000c0761220                sys_recv
                0x00000000c0761260                sys_setsockopt
                0x00000000c0761330                sys_recvmsg
                0x00000000c0761540                sys_sendmsg
                0x00000000c07617a0                sys_accept4
                0x00000000c0761a50                sys_accept
                0x00000000c0761a80                sys_getpeername
                0x00000000c0761b90                sys_socketcall
                0x00000000c0761e30                kernel_accept
                0x00000000c0762260                sock_rfree
                0x00000000c0762290                __sk_mem_schedule
                0x00000000c0762430                __sk_mem_reclaim
                0x00000000c0762470                sock_no_bind
                0x00000000c0762480                sock_no_connect
                0x00000000c0762490                sock_no_socketpair
                0x00000000c07624a0                sock_no_accept
                0x00000000c07624b0                sock_no_getname
                0x00000000c07624c0                sock_no_poll
                0x00000000c07624d0                sock_no_ioctl
                0x00000000c07624e0                sock_no_listen
                0x00000000c07624f0                sock_no_shutdown
                0x00000000c0762500                sock_no_setsockopt
                0x00000000c0762510                sock_no_getsockopt
                0x00000000c0762520                sock_no_sendmsg
                0x00000000c0762530                sock_no_recvmsg
                0x00000000c0762540                sock_no_mmap
                0x00000000c0762550                sock_common_getsockopt
                0x00000000c0762580                sock_common_recvmsg
                0x00000000c07625f0                sock_common_setsockopt
                0x00000000c0762620                sock_prot_inuse_add
                0x00000000c07626f0                sock_i_ino
                0x00000000c0762720                sock_i_uid
                0x00000000c0762780                sock_kfree_s
                0x00000000c07627b0                proto_unregister
                0x00000000c0762860                sock_kmalloc
                0x00000000c07628b0                sock_prot_inuse_get
                0x00000000c0762cd0                release_sock
                0x00000000c0762d60                lock_sock_nested
                0x00000000c0762df0                sock_init_data
                0x00000000c0763110                sk_stop_timer
                0x00000000c0763130                sk_reset_timer
                0x00000000c0763150                sk_send_sigurg
                0x00000000c07631a0                sock_no_sendpage
                0x00000000c0763230                sk_wait_data
                0x00000000c07632f0                sock_rmalloc
                0x00000000c0763380                sock_wmalloc
                0x00000000c0763400                sock_alloc_send_pskb
                0x00000000c0763680                sock_alloc_send_skb
                0x00000000c07636a0                sk_setup_caps
                0x00000000c0763770                sk_dst_check
                0x00000000c07637e0                __sk_dst_check
                0x00000000c07638a0                sock_getsockopt
                0x00000000c0763f40                sock_queue_rcv_skb
                0x00000000c0764030                sock_enable_timestamp
                0x00000000c0764070                sock_get_timestampns
                0x00000000c0764100                sock_get_timestamp
                0x00000000c07642c0                sock_wfree
                0x00000000c0764310                sk_free
                0x00000000c0764330                sk_common_release
                0x00000000c07643d0                sk_release_kernel
                0x00000000c0764420                sk_receive_skb
                0x00000000c07644c0                sock_setsockopt
                0x00000000c0764b20                proto_register
                0x00000000c0764e60                sk_alloc
                0x00000000c0764ee0                sk_clone
                0x00000000c0765120                __reqsk_queue_destroy
                0x00000000c0765150                reqsk_queue_destroy
                0x00000000c0765200                reqsk_queue_alloc
                0x00000000c07652f0                skb_add_rx_frag
                0x00000000c0765620                skb_prepare_seq_read
                0x00000000c0765650                skb_find_text
                0x00000000c07656f0                __skb_warn_lro_forwarding
                0x00000000c0765720                skb_under_panic
                0x00000000c0765780                skb_over_panic
                0x00000000c07657e0                skb_partial_csum_set
                0x00000000c07658a0                skb_pull
                0x00000000c0765b00                skb_to_sgvec
                0x00000000c0765b30                skb_trim
                0x00000000c0765b60                skb_pull_rcsum
                0x00000000c0765be0                skb_append_datato_frags
                0x00000000c0765d30                __netdev_alloc_page
                0x00000000c0765d70                skb_insert
                0x00000000c0765dc0                skb_append
                0x00000000c0765e10                skb_unlink
                0x00000000c0765e60                skb_queue_tail
                0x00000000c0765eb0                skb_queue_head
                0x00000000c0765f00                skb_dequeue_tail
                0x00000000c0765f70                skb_dequeue
                0x00000000c0765fe0                skb_push
                0x00000000c0766020                skb_put
                0x00000000c0766060                skb_split
                0x00000000c07662b0                skb_clone
                0x00000000c0766310                __kfree_skb
                0x00000000c0766390                consume_skb
                0x00000000c07663c0                kfree_skb
                0x00000000c0766440                skb_tstamp_tx
                0x00000000c0766620                skb_recycle_check
                0x00000000c0766700                skb_queue_purge
                0x00000000c07667c0                pskb_expand_head
                0x00000000c0766970                skb_shift
                0x00000000c0766d20                skb_morph
                0x00000000c0766d50                ___pskb_trim
                0x00000000c0766fb0                __alloc_skb
                0x00000000c07670d0                skb_gro_receive
                0x00000000c07674a0                pskb_copy
                0x00000000c0767610                skb_realloc_headroom
                0x00000000c0767680                dev_alloc_skb
                0x00000000c07676b0                __netdev_alloc_skb
                0x00000000c07676f0                skb_seq_read
                0x00000000c07678d0                skb_copy_and_csum_bits
                0x00000000c0767b90                skb_checksum
                0x00000000c0767e00                skb_store_bits
                0x00000000c0768000                skb_abort_seq_read
                0x00000000c0768030                skb_copy_and_csum_dev
                0x00000000c0768110                skb_copy_bits
                0x00000000c0768340                __pskb_pull_tail
                0x00000000c0768610                skb_pad
                0x00000000c0768730                skb_copy_expand
                0x00000000c07687d0                skb_copy
                0x00000000c0768850                skb_cow_data
                0x00000000c0768f60                skb_splice_bits
                0x00000000c0769070                skb_segment
                0x00000000c0769600                memcpy_fromiovecend
                0x00000000c0769670                memcpy_fromiovec
                0x00000000c07696c0                csum_partial_copy_fromiovecend
                0x00000000c07698c0                memcpy_toiovecend
                0x00000000c0769920                memcpy_toiovec
                0x00000000c0769970                verify_iovec
                0x00000000c0769a20                datagram_poll
                0x00000000c0769b00                __skb_checksum_complete_head
                0x00000000c0769b70                __skb_checksum_complete
                0x00000000c0769b80                skb_copy_datagram_from_iovec
                0x00000000c0769d70                skb_copy_datagram_const_iovec
                0x00000000c0769f60                skb_copy_datagram_iovec
                0x00000000c076a170                skb_kill_datagram
                0x00000000c076a220                skb_free_datagram
                0x00000000c076a250                skb_free_datagram_locked
                0x00000000c076a280                __skb_recv_datagram
                0x00000000c076a4a0                skb_recv_datagram
                0x00000000c076a870                skb_copy_and_csum_datagram_iovec
                0x00000000c076a970                sk_stream_kill_queues
                0x00000000c076aa60                sk_stream_error
                0x00000000c076aab0                sk_stream_wait_memory
                0x00000000c076acb0                sk_stream_wait_close
                0x00000000c076ad70                sk_stream_wait_connect
                0x00000000c076aec0                sk_stream_write_space
                0x00000000c076af50                put_cmsg
                0x00000000c076b000                __scm_destroy
                0x00000000c076b0b0                scm_detach_fds
                0x00000000c076b220                __scm_send
                0x00000000c076b510                scm_fp_dup
                0x00000000c076b5f0                gnet_stats_finish_copy
                0x00000000c076b660                gnet_stats_copy_app
                0x00000000c076b6b0                gnet_stats_copy_queue
                0x00000000c076b710                gnet_stats_copy_rate_est
                0x00000000c076b760                gnet_stats_copy_basic
                0x00000000c076b800                gnet_stats_start_copy_compat
                0x00000000c076b8a0                gnet_stats_start_copy
                0x00000000c076b8d0                gen_estimator_active
                0x00000000c076b950                gen_kill_estimator
                0x00000000c076bb70                gen_new_estimator
                0x00000000c076bda0                gen_replace_estimator
                0x00000000c076bef0                unregister_pernet_gen_device
                0x00000000c076bf50                unregister_pernet_device
                0x00000000c076bf90                unregister_pernet_gen_subsys
                0x00000000c076bfd0                unregister_pernet_subsys
                0x00000000c076c0c0                register_pernet_gen_device
                0x00000000c076c160                register_pernet_device
                0x00000000c076c1c0                register_pernet_gen_subsys
                0x00000000c076c240                register_pernet_subsys
                0x00000000c076c270                get_net_ns_by_pid
                0x00000000c076c2a0                __put_net
                0x00000000c076c380                net_assign_generic
                0x00000000c076c460                copy_net_ns
                0x00000000c076c660                skb_dma_unmap
                0x00000000c076c720                skb_dma_map
                0x00000000c076c970                __dev_get_by_index
                0x00000000c076c9b0                net_enable_timestamp
                0x00000000c076c9c0                net_disable_timestamp
                0x00000000c076c9d0                netif_device_detach
                0x00000000c076ca10                netif_nit_deliver
                0x00000000c076cab0                register_gifconf
                0x00000000c076cad0                dev_seq_next
                0x00000000c076cb10                dev_seq_stop
                0x00000000c076cd40                dev_get_flags
                0x00000000c076cdb0                init_dummy_netdev
                0x00000000c076cdf0                dev_get_stats
                0x00000000c076cea0                netdev_increment_features
                0x00000000c076cf10                napi_reuse_skb
                0x00000000c076cf70                skb_tx_hash
                0x00000000c076d070                __netif_schedule
                0x00000000c076d0c0                dev_kfree_skb_irq
                0x00000000c076d120                netdev_fix_features
                0x00000000c076d600                dev_disable_lro
                0x00000000c076d660                __napi_schedule
                0x00000000c076d6c0                netif_napi_add
                0x00000000c076d840                netdev_drivername
                0x00000000c076d870                __dev_getfirstbyhwtype
                0x00000000c076d8f0                dev_getfirstbyhwtype
                0x00000000c076d930                __napi_complete
                0x00000000c076dae0                __dev_remove_pack
                0x00000000c076db70                dev_add_pack
                0x00000000c076dbf0                synchronize_net
                0x00000000c076dc00                netdev_set_master
                0x00000000c076dcc0                dev_remove_pack
                0x00000000c076deb0                __dev_addr_delete
                0x00000000c076df50                __dev_addr_unsync
                0x00000000c076dfd0                dev_getbyhwaddr
                0x00000000c076e0e0                netif_napi_del
                0x00000000c076e140                free_netdev
                0x00000000c076e240                dev_seq_start
                0x00000000c076e2f0                dev_get_by_flags
                0x00000000c076e370                dev_get_by_index
                0x00000000c076e570                __dev_set_rx_mode
                0x00000000c076e610                dev_unicast_unsync
                0x00000000c076e710                dev_unicast_sync
                0x00000000c076e840                dev_unicast_add
                0x00000000c076e8d0                dev_unicast_delete
                0x00000000c076e960                dev_set_rx_mode
                0x00000000c076e9a0                dev_set_allmulti
                0x00000000c076ea80                dev_set_promiscuity
                0x00000000c076ead0                napi_get_frags
                0x00000000c076eb20                skb_gro_reset_offset
                0x00000000c076ebd0                napi_frags_skb
                0x00000000c076ec90                netif_receive_skb
                0x00000000c076f260                napi_frags_finish
                0x00000000c076f2f0                napi_skb_finish
                0x00000000c076f3c0                dev_gro_receive
                0x00000000c076f6d0                napi_gro_frags
                0x00000000c076f720                napi_gro_receive
                0x00000000c076f750                napi_gro_flush
                0x00000000c076f790                napi_complete
                0x00000000c076f990                netdev_rx_csum_fault
                0x00000000c076f9d0                skb_gso_segment
                0x00000000c076fc40                dev_hard_start_xmit
                0x00000000c076ff90                skb_checksum_help
                0x00000000c07700b0                netif_device_attach
                0x00000000c0770140                dev_kfree_skb_any
                0x00000000c0770170                call_netdevice_notifiers
                0x00000000c0770180                netdev_run_todo
                0x00000000c0770360                dev_set_mac_address
                0x00000000c07703d0                dev_set_mtu
                0x00000000c0770430                dev_change_flags
                0x00000000c07705d0                dev_addr_del_multiple
                0x00000000c07706a0                dev_addr_add_multiple
                0x00000000c0770810                dev_addr_del
                0x00000000c07708c0                dev_addr_add
                0x00000000c0770950                netdev_bonding_change
                0x00000000c0770960                netdev_state_change
                0x00000000c0770990                netdev_features_change
                0x00000000c07709a0                unregister_netdevice_notifier
                0x00000000c07709c0                register_netdevice_notifier
                0x00000000c0770b70                dev_close
                0x00000000c0770d30                unregister_netdevice
                0x00000000c0770d90                unregister_netdev
                0x00000000c0770db0                dev_open
                0x00000000c0770ea0                dev_set_alias
                0x00000000c0770f60                dev_valid_name
                0x00000000c0770fd0                netdev_boot_setup_check
                0x00000000c0771200                __dev_get_by_name
                0x00000000c0771400                dev_alloc_name
                0x00000000c0771470                dev_get_by_name
                0x00000000c07714b0                dev_load
                0x00000000c0771520                dev_change_net_namespace
                0x00000000c07718d0                dev_change_name
                0x00000000c0771db0                dev_ioctl
                0x00000000c0772470                netdev_boot_base
                0x00000000c0772500                __dev_addr_add
                0x00000000c0772640                __dev_addr_sync
                0x00000000c0772700                dev_queue_xmit
                0x00000000c0772b80                netif_rx
                0x00000000c0772de0                netif_rx_ni
                0x00000000c0772e10                register_netdevice
                0x00000000c0773160                register_netdev
                0x00000000c07731a0                alloc_netdev_mq
                0x00000000c0773390                ethtool_op_get_link
                0x00000000c07733a0                ethtool_op_get_rx_csum
                0x00000000c07733b0                ethtool_op_get_tx_csum
                0x00000000c07733c0                ethtool_op_set_tx_csum
                0x00000000c07733e0                ethtool_op_set_tx_hw_csum
                0x00000000c0773400                ethtool_op_set_tx_ipv6_csum
                0x00000000c0773420                ethtool_op_get_sg
                0x00000000c0773430                ethtool_op_set_sg
                0x00000000c0773450                ethtool_op_get_tso
                0x00000000c0773460                ethtool_op_set_tso
                0x00000000c0773480                ethtool_op_get_ufo
                0x00000000c0773490                ethtool_op_set_ufo
                0x00000000c07734b0                ethtool_op_get_flags
                0x00000000c07734c0                ethtool_op_set_flags
                0x00000000c0773680                dev_ethtool
                0x00000000c0774a50                dev_mc_unsync
                0x00000000c0774ac0                dev_mc_sync
                0x00000000c0774b30                dev_mc_add
                0x00000000c0774ba0                dev_mc_delete
                0x00000000c0774c10                dst_release
                0x00000000c0774c40                dst_destroy
                0x00000000c0774ec0                __dst_free
                0x00000000c0774f70                dst_alloc
                0x00000000c0774fe0                dst_discard
                0x00000000c07751f0                call_netevent_notifiers
                0x00000000c0775200                unregister_netevent_notifier
                0x00000000c0775210                register_netevent_notifier
                0x00000000c0775770                neigh_seq_start
                0x00000000c0775900                neigh_seq_next
                0x00000000c07759e0                neigh_seq_stop
                0x00000000c07759f0                neigh_for_each
                0x00000000c0775d40                neigh_sysctl_unregister
                0x00000000c0775da0                neigh_sysctl_register
                0x00000000c0776050                neigh_connected_output
                0x00000000c07763f0                __neigh_event_send
                0x00000000c0776570                neigh_parms_release
                0x00000000c0776610                neigh_rand_reach_time
                0x00000000c0776630                neigh_parms_alloc
                0x00000000c0776710                pneigh_enqueue
                0x00000000c0776800                neigh_compat_output
                0x00000000c07768b0                pneigh_delete
                0x00000000c07769a0                __pneigh_lookup
                0x00000000c0776a20                neigh_lookup_nodev
                0x00000000c0776af0                neigh_lookup
                0x00000000c0776c40                pneigh_lookup
                0x00000000c0776e10                neigh_resolve_output
                0x00000000c0777180                neigh_destroy
                0x00000000c0777760                __neigh_for_each_release
                0x00000000c07779f0                neigh_ifdown
                0x00000000c0777aa0                neigh_table_clear
                0x00000000c0777bc0                neigh_changeaddr
                0x00000000c0777c20                neigh_update
                0x00000000c0778b00                neigh_create
                0x00000000c07791f0                neigh_event_ns
                0x00000000c07792a0                neigh_table_init_no_netlink
                0x00000000c07794d0                neigh_table_init
                0x00000000c0779550                rtnl_is_locked
                0x00000000c0779660                rtnl_unregister
                0x00000000c07796b0                __rtnl_register
                0x00000000c0779740                rtnl_register
                0x00000000c0779790                rtnl_unregister_all
                0x00000000c0779840                __rta_fill
                0x00000000c07798d0                rtnetlink_put_metrics
                0x00000000c0779f70                rtnl_create_link
                0x00000000c077a0f0                rtnl_put_cacheinfo
                0x00000000c077a1a0                rtnl_set_sk_err
                0x00000000c077a1c0                rtnl_notify
                0x00000000c077a220                rtnl_unicast
                0x00000000c077a250                rtnetlink_send
                0x00000000c077a2e0                __rtnl_link_unregister
                0x00000000c077a350                __rtnl_link_register
                0x00000000c077a380                rtnl_trylock
                0x00000000c077a390                rtnl_unlock
                0x00000000c077a3a0                __rtnl_unlock
                0x00000000c077a3b0                rtnl_lock
                0x00000000c077a5d0                rtnl_link_unregister
                0x00000000c077a5f0                rtnl_kill_links
                0x00000000c077a650                rtnl_link_register
                0x00000000c077b330                rtmsg_ifinfo
                0x00000000c077b500                inet_proto_csum_replace4
                0x00000000c077b5f0                in4_pton
                0x00000000c077b740                in6_pton
                0x00000000c077bb20                in_aton
                0x00000000c077bb80                net_ratelimit
                0x00000000c077bc50                linkwatch_fire_event
                0x00000000c077bee0                linkwatch_run_queue
                0x00000000c077bef0                sk_chk_filter
                0x00000000c077bff0                sk_detach_filter
                0x00000000c077c050                sk_attach_filter
                0x00000000c077c170                sk_run_filter
                0x00000000c077c8e0                sk_filter
                0x00000000c077cb70                flow_cache_flush
                0x00000000c077cc20                flow_cache_lookup
                0x00000000c077cfb0                netdev_kobject_init
                0x00000000c077d8a0                netdev_initialize_kobject
                0x00000000c077d8b0                netdev_class_remove_file
                0x00000000c077d8c0                netdev_class_create_file
                0x00000000c077d8d0                netdev_register_kobject
                0x00000000c077de10                netdev_unregister_kobject
                0x00000000c077de40                netpoll_trap
                0x00000000c077de50                netpoll_set_trap
                0x00000000c077de70                netpoll_cleanup
                0x00000000c077df30                netpoll_print_options
                0x00000000c077e160                netpoll_parse_options
                0x00000000c077e3f0                netpoll_setup
                0x00000000c077e7a0                netpoll_poll
                0x00000000c077ee40                netpoll_send_udp
                0x00000000c077f020                __netpoll_rx
                0x00000000c077f340                dma_skb_copy_datagram_iovec
                0x00000000c077f590                fib_rules_lookup
                0x00000000c077ff00                fib_rules_cleanup_ops
                0x00000000c077ff70                fib_rules_unregister
                0x00000000c077ffc0                fib_rules_register
                0x00000000c07805e0                fib_default_rule_add
                0x00000000c0781470                eth_header_parse
                0x00000000c0781490                eth_header_cache
                0x00000000c07814f0                eth_header_cache_update
                0x00000000c0781500                eth_mac_addr
                0x00000000c0781560                eth_change_mtu
                0x00000000c0781580                eth_validate_addr
                0x00000000c07815c0                ether_setup
                0x00000000c07816b0                print_mac
                0x00000000c07816d0                sysfs_format_mac
                0x00000000c0781710                alloc_etherdev_mq
                0x00000000c0781730                eth_type_trans
                0x00000000c0781850                eth_rebuild_header
                0x00000000c07818c0                eth_header
                0x00000000c07819e0                alloc_fcdev
                0x00000000c0781b50                fddi_change_mtu
                0x00000000c0781bd0                alloc_fddidev
                0x00000000c0781db0                fddi_type_trans
                0x00000000c0781e90                dev_trans_start
                0x00000000c0782210                qdisc_reset
                0x00000000c0782240                __netdev_watchdog_up
                0x00000000c0782310                dev_graft_qdisc
                0x00000000c0782380                qdisc_destroy
                0x00000000c0782440                netif_notify_peers
                0x00000000c0782460                netif_carrier_off
                0x00000000c0782480                netif_carrier_on
                0x00000000c07824c0                sch_direct_xmit
                0x00000000c0782640                __qdisc_run
                0x00000000c07826f0                qdisc_alloc
                0x00000000c0782770                qdisc_create_dflt
                0x00000000c0782840                dev_init_scheduler
                0x00000000c07828b0                dev_deactivate
                0x00000000c0782a20                dev_shutdown
                0x00000000c0782aa0                dev_activate
                0x00000000c0783290                qdisc_lookup
                0x00000000c0783390                qdisc_class_hash_insert
                0x00000000c07833e0                qdisc_class_hash_remove
                0x00000000c0783630                tc_classify_compat
                0x00000000c0783810                qdisc_calculate_pkt_len
                0x00000000c0783890                tc_classify
                0x00000000c0783910                qdisc_warn_nonwc
                0x00000000c0783a10                tcf_destroy
                0x00000000c0783a30                tcf_destroy_chain
                0x00000000c0783a60                qdisc_put_rtab
                0x00000000c0783ac0                qdisc_tree_decrease_qlen
                0x00000000c0783b80                qdisc_class_hash_destroy
                0x00000000c0783b90                qdisc_watchdog_cancel
                0x00000000c0783bb0                qdisc_watchdog_schedule
                0x00000000c0783c00                qdisc_watchdog_init
                0x00000000c0783c50                qdisc_put_stab
                0x00000000c0783c90                qdisc_list_del
                0x00000000c0783cb0                unregister_qdisc
                0x00000000c0783d10                register_qdisc
                0x00000000c0783e00                qdisc_get_rtab
                0x00000000c0783f70                qdisc_class_hash_init
                0x00000000c0784f60                qdisc_class_hash_grow
                0x00000000c07860c0                tcf_exts_dump_stats
                0x00000000c07860f0                tcf_exts_dump
                0x00000000c07861c0                tcf_exts_destroy
                0x00000000c07861e0                tcf_exts_validate
                0x00000000c0786280                unregister_tcf_proto_ops
                0x00000000c07862d0                register_tcf_proto_ops
                0x00000000c07869a0                tcf_exts_change
                0x00000000c0786a90                tcf_action_exec
                0x00000000c0786b00                tcf_action_dump_old
                0x00000000c0786c10                tcf_action_destroy
                0x00000000c0786c90                tcf_action_copy_stats
                0x00000000c0786e40                tcf_action_dump_1
                0x00000000c0786f40                tcf_unregister_action
                0x00000000c0786fa0                tcf_register_action
                0x00000000c0787030                tcf_hash_insert
                0x00000000c0787080                tcf_hash_lookup
                0x00000000c07870c0                tcf_hash_check
                0x00000000c0787120                tcf_hash_search
                0x00000000c0787140                tcf_hash_new_index
                0x00000000c0787170                tcf_hash_destroy
                0x00000000c07871e0                tcf_hash_release
                0x00000000c0787220                tcf_action_dump
                0x00000000c07872c0                tcf_generic_walker
                0x00000000c0787860                tcf_hash_create
                0x00000000c07880b0                tcf_action_init_1
                0x00000000c07882f0                tcf_action_init
                0x00000000c07888a0                fifo_set_limit
                0x00000000c0788980                fifo_create_dflt
                0x00000000c0788f10                __tcf_em_tree_match
                0x00000000c0789050                tcf_em_tree_dump
                0x00000000c0789210                tcf_em_tree_destroy
                0x00000000c0789290                tcf_em_unregister
                0x00000000c07892c0                tcf_em_register
                0x00000000c0789340                tcf_em_tree_validate
                0x00000000c0789a00                netlink_getsockbyfilp
                0x00000000c0789a50                netlink_set_nonroot
                0x00000000c0789de0                netlink_table_ungrab
                0x00000000c078a150                __netlink_clear_multicast_users
                0x00000000c078a190                netlink_set_err
                0x00000000c078a220                netlink_has_listeners
                0x00000000c078a770                netlink_unregister_notifier
                0x00000000c078a780                netlink_register_notifier
                0x00000000c078a790                __netlink_change_ngroups
                0x00000000c078a870                netlink_kernel_release
                0x00000000c078a880                netlink_table_grab
                0x00000000c078abb0                netlink_clear_multicast_users
                0x00000000c078abe0                netlink_change_ngroups
                0x00000000c078ac10                netlink_detachskb
                0x00000000c078ac40                netlink_sendskb
                0x00000000c078ae90                netlink_broadcast
                0x00000000c078b260                netlink_attachskb
                0x00000000c078b430                netlink_unicast
                0x00000000c078b6b0                nlmsg_notify
                0x00000000c078b750                netlink_ack
                0x00000000c078b930                netlink_rcv_skb
                0x00000000c078b9d0                netlink_dump_start
                0x00000000c078c570                netlink_kernel_create
                0x00000000c078ca90                genlmsg_multicast_allns
                0x00000000c078d570                genl_unregister_ops
                0x00000000c078d660                genl_unregister_mc_group
                0x00000000c078d6a0                genl_unregister_family
                0x00000000c078d790                genl_register_family
                0x00000000c078d9e0                genl_register_ops
                0x00000000c078dad0                genl_register_family_with_ops
                0x00000000c078db30                genl_register_mc_group
                0x00000000c078dcc0                nf_iterate
                0x00000000c078dd50                nf_ct_attach
                0x00000000c078dd70                nf_conntrack_destroy
                0x00000000c078dd90                skb_make_writable
                0x00000000c078de40                nf_hook_slow
                0x00000000c078df20                nf_unregister_hook
                0x00000000c078df50                nf_unregister_hooks
                0x00000000c078df80                nf_register_hook
                0x00000000c078dff0                nf_register_hooks
                0x00000000c078e050                nf_register_afinfo
                0x00000000c078e080                nf_unregister_afinfo
                0x00000000c078e250                nf_log_unbind_pf
                0x00000000c078e420                nf_log_bind_pf
                0x00000000c078e480                nf_log_packet
                0x00000000c078e570                nf_log_unregister
                0x00000000c078e5d0                nf_log_register
                0x00000000c078e7a0                nf_register_queue_handler
                0x00000000c078e810                nf_unregister_queue_handlers
                0x00000000c078e860                nf_unregister_queue_handler
                0x00000000c078eac0                nf_reinject
                0x00000000c078ec00                nf_queue
                0x00000000c078eeb0                nf_getsockopt
                0x00000000c078eee0                nf_setsockopt
                0x00000000c078ef10                nf_unregister_sockopt
                0x00000000c078ef30                nf_register_sockopt
                0x00000000c078f030                xt_proto_fini
                0x00000000c078f0f0                xt_proto_init
                0x00000000c078f5a0                xt_table_unlock
                0x00000000c078f6b0                xt_unregister_table
                0x00000000c078f710                xt_unregister_match
                0x00000000c078f750                xt_unregister_matches
                0x00000000c078f780                xt_unregister_target
                0x00000000c078f7c0                xt_unregister_targets
                0x00000000c078f970                xt_find_revision
                0x00000000c078fa60                xt_find_match
                0x00000000c078fba0                xt_register_match
                0x00000000c078fc00                xt_register_matches
                0x00000000c078fc60                xt_register_target
                0x00000000c078fcc0                xt_register_targets
                0x00000000c078fd20                xt_replace_table
                0x00000000c078fd80                xt_register_table
                0x00000000c078feb0                xt_free_table_info
                0x00000000c078ff90                xt_check_match
                0x00000000c0790180                xt_check_target
                0x00000000c07904d0                xt_find_table_lock
                0x00000000c07905c0                xt_find_target
                0x00000000c0790700                xt_request_find_target
                0x00000000c0790780                xt_alloc_table_info
                0x00000000c0791310                ip_rt_send_redirect
                0x00000000c0791740                rt_cache_flush
                0x00000000c07919c0                ip_rt_multicast_event
                0x00000000c07925d0                ip_rt_get_source
                0x00000000c0792690                rt_bind_peer
                0x00000000c0792710                __ip_select_ident
                0x00000000c0792c20                ip_rt_dump
                0x00000000c0793380                ip_rt_frag_needed
                0x00000000c0793fd0                __ip_route_output_key
                0x00000000c0794a10                ip_route_output_flow
                0x00000000c0794cb0                ip_route_output_key
                0x00000000c0794dc0                ip_route_input
                0x00000000c0795600                ip_rt_redirect
                0x00000000c0795d40                inet_putpeer
                0x00000000c0795f30                inet_getpeer
                0x00000000c07961c0                inet_add_protocol
                0x00000000c0796220                inet_del_protocol
                0x00000000c0796610                ip_rcv
                0x00000000c0796900                ip_call_ra_chain
                0x00000000c0796c90                ip_local_deliver
                0x00000000c0796d20                ip_frag_nqueues
                0x00000000c0796d30                ip_frag_mem
                0x00000000c07970f0                ip_defrag
                0x00000000c0797a50                ip_forward
                0x00000000c0797e00                ip_options_fragment
                0x00000000c0797eb0                ip_options_rcv_srr
                0x00000000c0798070                ip_forward_options
                0x00000000c0798280                ip_options_undo
                0x00000000c0798350                ip_options_echo
                0x00000000c0798740                ip_options_build
                0x00000000c0798900                ip_options_compile
                0x00000000c0798ed0                ip_options_get
                0x00000000c0798f60                ip_options_get_from_user
                0x00000000c0799000                ip_send_check
                0x00000000c07990f0                ip_flush_pending_frames
                0x00000000c0799180                ip_append_page
                0x00000000c07995f0                ip_generic_getfrag
                0x00000000c0799800                ip_fragment
                0x00000000c079a210                ip_append_data
                0x00000000c079abe0                __ip_local_out
                0x00000000c079ac80                ip_local_out
                0x00000000c079aca0                ip_push_pending_frames
                0x00000000c079b000                ip_send_reply
                0x00000000c079b250                ip_queue_xmit
                0x00000000c079b600                ip_build_and_send_pkt
                0x00000000c079ba30                ip_output
                0x00000000c079bae0                ip_mc_output
                0x00000000c079c280                ip_getsockopt
                0x00000000c079c350                ip_cmsg_send
                0x00000000c079c430                ip_cmsg_recv
                0x00000000c079c770                ip_ra_control
                0x00000000c079d430                ip_setsockopt
                0x00000000c079d4d0                ip_icmp_error
                0x00000000c079d630                ip_local_error
                0x00000000c079d7b0                ip_recv_error
                0x00000000c079da60                inet_bind_hash
                0x00000000c079daa0                inet_hashinfo_init
                0x00000000c079dad0                __inet_inherit_port
                0x00000000c079de00                inet_unhash
                0x00000000c079de90                __inet_lookup_listener
                0x00000000c079e0a0                inet_bind_bucket_destroy
                0x00000000c079e0d0                inet_put_port
                0x00000000c079e170                inet_bind_bucket_create
                0x00000000c079e1e0                __inet_hash_connect
                0x00000000c079e490                inet_hash_connect
                0x00000000c079e4e0                __inet_lookup_established
                0x00000000c079e7e0                __inet_hash_nolisten
                0x00000000c079e8f0                inet_hash
                0x00000000c079e9d0                inet_twsk_schedule
                0x00000000c079eb60                inet_twsk_alloc
                0x00000000c079ecb0                __inet_twsk_hashdance
                0x00000000c079ee10                inet_twsk_put
                0x00000000c079eed0                inet_twdr_twcal_tick
                0x00000000c079f020                inet_twsk_deschedule
                0x00000000c079f090                inet_twsk_purge
                0x00000000c079f210                inet_twdr_twkill_work
                0x00000000c079f2c0                inet_twdr_hangman
                0x00000000c079f350                inet_csk_addr2sockaddr
                0x00000000c079f370                inet_csk_bind_conflict
                0x00000000c079f460                inet_get_local_port_range
                0x00000000c079f4a0                inet_csk_listen_start
                0x00000000c079f570                inet_csk_destroy_sock
                0x00000000c079f690                inet_csk_clone
                0x00000000c079f730                inet_csk_route_req
                0x00000000c079f890                inet_csk_reset_keepalive_timer
                0x00000000c079f8b0                inet_csk_reqsk_queue_prune
                0x00000000c079fb40                inet_csk_reqsk_queue_hash_add
                0x00000000c079fc50                inet_csk_delete_keepalive_timer
                0x00000000c079fc60                inet_csk_listen_stop
                0x00000000c079fda0                inet_csk_clear_xmit_timers
                0x00000000c079fde0                inet_csk_init_xmit_timers
                0x00000000c079fe50                inet_csk_accept
                0x00000000c07a0030                inet_csk_get_port
                0x00000000c07a0410                inet_csk_search_req
                0x00000000c07a0510                tcp_enter_memory_pressure
                0x00000000c07a0560                tcp_gro_complete
                0x00000000c07a05b0                tcp_poll
                0x00000000c07a0800                tcp_md5_hash_key
                0x00000000c07a0850                tcp_md5_hash_header
                0x00000000c07a08c0                tcp_md5_hash_skb_data
                0x00000000c07a09e0                __tcp_get_md5sig_pool
                0x00000000c07a0ab0                tcp_free_md5sig_pool
                0x00000000c07a0b10                __tcp_put_md5sig_pool
                0x00000000c07a0b20                tcp_get_info
                0x00000000c07a0f80                tcp_getsockopt
                0x00000000c07a0ff0                tcp_ioctl
                0x00000000c07a13d0                tcp_set_state
                0x00000000c07a14f0                tcp_shutdown
                0x00000000c07a1560                tcp_cleanup_rbuf
                0x00000000c07a1660                tcp_setsockopt
                0x00000000c07a1a20                sk_stream_alloc_skb
                0x00000000c07a1b00                tcp_sendpage
                0x00000000c07a2010                tcp_alloc_md5sig_pool
                0x00000000c07a2210                tcp_done
                0x00000000c07a2280                tcp_disconnect
                0x00000000c07a25d0                tcp_close
                0x00000000c07a29c0                tcp_gro_receive
                0x00000000c07a2c90                tcp_tso_segment
                0x00000000c07a2f50                tcp_read_sock
                0x00000000c07a3160                tcp_splice_read
                0x00000000c07a3340                tcp_recvmsg
                0x00000000c07a3fd0                tcp_sendmsg
                0x00000000c07a49c0                tcp_enter_quickack_mode
                0x00000000c07a4bd0                tcp_initialize_rcv_mss
                0x00000000c07a4c20                tcp_rcv_space_adjust
                0x00000000c07a4d60                tcp_init_cwnd
                0x00000000c07a4ff0                tcp_clear_retrans
                0x00000000c07a51e0                tcp_parse_md5sig_option
                0x00000000c07a5300                tcp_cwnd_application_limited
                0x00000000c07a54f0                tcp_use_frto
                0x00000000c07a76f0                tcp_parse_options
                0x00000000c07a79a0                tcp_update_metrics
                0x00000000c07a80d0                tcp_enter_loss
                0x00000000c07a8350                tcp_enter_frto
                0x00000000c07a86d0                tcp_simple_retransmit
                0x00000000c07a8950                tcp_enter_cwr
                0x00000000c07abfc0                tcp_rcv_established
                0x00000000c07ac720                tcp_rcv_state_process
                0x00000000c07ad090                tcp_select_initial_window
                0x00000000c07ad250                tcp_mtu_to_mss
                0x00000000c07ad290                tcp_mss_to_mtu
                0x00000000c07ad2c0                tcp_mtup_init
                0x00000000c07ad320                tcp_sync_mss
                0x00000000c07ad470                __tcp_select_window
                0x00000000c07ad640                tcp_current_mss
                0x00000000c07ad6a0                tcp_may_send_now
                0x00000000c07ae0c0                tcp_send_active_reset
                0x00000000c07ae210                tcp_make_synack
                0x00000000c07ae550                tcp_send_synack
                0x00000000c07ae910                tcp_trim_head
                0x00000000c07ae9f0                tcp_fragment
                0x00000000c07aecb0                tcp_retransmit_skb
                0x00000000c07af1e0                tcp_send_ack
                0x00000000c07af2e0                tcp_send_delayed_ack
                0x00000000c07af410                tcp_connect
                0x00000000c07af950                tcp_write_wakeup
                0x00000000c07b0450                tcp_push_one
                0x00000000c07b0490                tcp_send_probe0
                0x00000000c07b0550                __tcp_push_pending_frames
                0x00000000c07b0630                tcp_send_fin
                0x00000000c07b07b0                tcp_xmit_retransmit_queue
                0x00000000c07b0ca0                tcp_init_xmit_timers
                0x00000000c07b10d0                tcp_set_keepalive
                0x00000000c07b1120                tcp_retransmit_timer
                0x00000000c07b19a0                tcp_v4_md5_lookup
                0x00000000c07b21d0                tcp_v4_send_check
                0x00000000c07b2420                tcp4_gro_complete
                0x00000000c07b2480                tcp4_gro_receive
                0x00000000c07b2570                tcp4_proc_exit
                0x00000000c07b2ab0                tcp_proc_unregister
                0x00000000c07b2ad0                tcp_proc_register
                0x00000000c07b3140                tcp_twsk_unique
                0x00000000c07b31c0                tcp_v4_tw_remember_stamp
                0x00000000c07b3250                tcp_v4_remember_stamp
                0x00000000c07b3360                tcp_v4_md5_hash_skb
                0x00000000c07b3490                tcp_v4_do_rcv
                0x00000000c07b3850                tcp_v4_md5_do_del
                0x00000000c07b3930                tcp_v4_connect
                0x00000000c07b3f50                tcp_v4_destroy_sock
                0x00000000c07b4170                tcp_v4_gso_send_check
                0x00000000c07b4210                tcp_v4_rcv
                0x00000000c07b49a0                tcp_v4_md5_do_add
                0x00000000c07b4c70                tcp_v4_syn_recv_sock
                0x00000000c07b4e90                tcp_v4_err
                0x00000000c07b5390                tcp_v4_conn_request
                0x00000000c07b5870                tcp_child_process
                0x00000000c07b5980                tcp_check_req
                0x00000000c07b5d50                tcp_create_openreq_child
                0x00000000c07b6130                tcp_twsk_destructor
                0x00000000c07b6150                tcp_time_wait
                0x00000000c07b6360                tcp_timewait_state_process
                0x00000000c07b66a0                tcp_is_cwnd_limited
                0x00000000c07b6720                tcp_slow_start
                0x00000000c07b67d0                tcp_cong_avoid_ai
                0x00000000c07b6810                tcp_reno_cong_avoid
                0x00000000c07b6910                tcp_reno_ssthresh
                0x00000000c07b6930                tcp_reno_min_cwnd
                0x00000000c07b6990                tcp_unregister_congestion_control
                0x00000000c07b69c0                tcp_set_allowed_congestion_control
                0x00000000c07b6aa0                tcp_get_allowed_congestion_control
                0x00000000c07b6b20                tcp_get_available_congestion_control
                0x00000000c07b6ba0                tcp_get_default_congestion_control
                0x00000000c07b6bc0                tcp_set_default_congestion_control
                0x00000000c07b6c60                tcp_cleanup_congestion_control
                0x00000000c07b6c90                tcp_set_congestion_control
                0x00000000c07b6df0                tcp_register_congestion_control
                0x00000000c07b6e90                tcp_init_congestion_control
                0x00000000c07b6f80                ip4_datagram_connect
                0x00000000c07b7270                raw_seq_next
                0x00000000c07b7340                raw_seq_stop
                0x00000000c07b8250                raw_seq_open
                0x00000000c07b82b0                raw_seq_start
                0x00000000c07b83c0                raw_rcv
                0x00000000c07b84d0                raw_icmp_error
                0x00000000c07b86b0                raw_local_deliver
                0x00000000c07b8930                raw_hash_sk
                0x00000000c07b89a0                raw_unhash_sk
                0x00000000c07b8c10                udp4_ufo_fragment
                0x00000000c07b8d00                udp4_ufo_send_check
                0x00000000c07b8d90                udp4_proc_exit
                0x00000000c07b8db0                udp4_seq_show
                0x00000000c07b8f30                udp_proc_unregister
                0x00000000c07b8f50                udp_proc_register
                0x00000000c07b91b0                udp_lib_getsockopt
                0x00000000c07b9290                udp_getsockopt
                0x00000000c07b92e0                udp_lib_setsockopt
                0x00000000c07b9440                udp_setsockopt
                0x00000000c07b9b10                udp4_lib_lookup
                0x00000000c07b9b50                udp_lib_unhash
                0x00000000c07b9bf0                udp_disconnect
                0x00000000c07b9cd0                udp_flush_pending_frames
                0x00000000c07b9d00                udp_destroy_sock
                0x00000000c07b9d20                udp_sendmsg
                0x00000000c07ba410                udp_sendpage
                0x00000000c07ba580                __udp4_lib_err
                0x00000000c07ba740                udp_err
                0x00000000c07ba750                udp_lib_get_port
                0x00000000c07ba960                udp_v4_get_port
                0x00000000c07baae0                udp_poll
                0x00000000c07bab40                udp_ioctl
                0x00000000c07babb0                udp_recvmsg
                0x00000000c07baf20                udp_queue_rcv_skb
                0x00000000c07bb200                __udp4_lib_rcv
                0x00000000c07bbb20                udp_rcv
                0x00000000c07bbc20                arp_mc_map
                0x00000000c07bbfb0                arp_bind_neighbour
                0x00000000c07bc0b0                arp_xmit
                0x00000000c07bc390                arp_ifdown
                0x00000000c07bc3a0                arp_create
                0x00000000c07bc5c0                arp_send
                0x00000000c07bcce0                arp_ioctl
                0x00000000c07bcf50                arp_find
                0x00000000c07bd8b0                xrlim_allow
                0x00000000c07bd8e0                icmp_out_count
                0x00000000c07bdcf0                icmp_send
                0x00000000c07be3f0                icmp_rcv
                0x00000000c07bed80                inet_addr_onlink
                0x00000000c07bee70                inet_ifa_byprefix
                0x00000000c07bef50                in_dev_finish_destroy
                0x00000000c07bfb60                inet_confirm_addr
                0x00000000c07bfc10                inet_select_addr
                0x00000000c07c0090                ipv4_doint_and_flush_strategy
                0x00000000c07c00f0                ipv4_doint_and_flush
                0x00000000c07c01c0                inetdev_by_index
                0x00000000c07c0360                unregister_inetaddr_notifier
                0x00000000c07c0370                register_inetaddr_notifier
                0x00000000c07c0390                devinet_ioctl
                0x00000000c07c1270                inet_getname
                0x00000000c07c14e0                inet_sendmsg
                0x00000000c07c1540                inet_dgram_connect
                0x00000000c07c15c0                inet_shutdown
                0x00000000c07c16c0                snmp_mib_free
                0x00000000c07c1740                snmp_mib_init
                0x00000000c07c1910                snmp_fold_field
                0x00000000c07c1960                inet_ctl_sock_create
                0x00000000c07c1b90                inet_sk_rebuild_header
                0x00000000c07c1d20                inet_register_protosw
                0x00000000c07c1dd0                inet_unregister_protosw
                0x00000000c07c1e30                inet_ioctl
                0x00000000c07c1ee0                inet_accept
                0x00000000c07c1f90                inet_stream_connect
                0x00000000c07c21f0                inet_bind
                0x00000000c07c23a0                inet_release
                0x00000000c07c2400                build_ehash_secret
                0x00000000c07c2760                inet_listen
                0x00000000c07c27e0                inet_sock_destruct
                0x00000000c07c2fc0                ip_mc_sf_allow
                0x00000000c07c3200                ip_check_mc
                0x00000000c07c3ae0                ip_mc_gsfget
                0x00000000c07c3d70                ip_mc_msfget
                0x00000000c07c4a00                ip_mc_remap
                0x00000000c07c4a50                ip_mc_init_dev
                0x00000000c07c4b60                ip_mc_rejoin_group
                0x00000000c07c5390                igmp_rcv
                0x00000000c07c5b70                ip_mc_unmap
                0x00000000c07c5bc0                ip_mc_dec_group
                0x00000000c07c5c80                ip_mc_drop_socket
                0x00000000c07c5d10                ip_mc_leave_group
                0x00000000c07c5e00                ip_mc_down
                0x00000000c07c5e90                ip_mc_destroy_dev
                0x00000000c07c6320                ip_mc_msfilter
                0x00000000c07c65a0                ip_mc_source
                0x00000000c07c6980                ip_mc_inc_group
                0x00000000c07c6be0                ip_mc_join_group
                0x00000000c07c6cf0                ip_mc_up
                0x00000000c07c6fb0                fib_get_table
                0x00000000c07c7010                fib_select_default
                0x00000000c07c7740                fib_new_table
                0x00000000c07c78a0                fib_add_ifaddr
                0x00000000c07c7c70                inet_addr_type
                0x00000000c07c7d70                ip_rt_ioctl
                0x00000000c07c8470                inet_dev_addr_type
                0x00000000c07c85b0                fib_validate_source
                0x00000000c07c88c0                ip_dev_find
                0x00000000c07c89b0                fib_find_alias
                0x00000000c07c8a00                fib_sync_down_addr
                0x00000000c07c8a70                fib_select_multipath
                0x00000000c07c8b50                fib_sync_up
                0x00000000c07c8cb0                fib_sync_down_dev
                0x00000000c07c8e00                fib_dump_info
                0x00000000c07c91d0                __fib_res_prefsrc
                0x00000000c07c91f0                fib_semantic_match
                0x00000000c07c9310                free_fib_info
                0x00000000c07c9380                fib_release_info
                0x00000000c07c94a0                fib_nh_match
                0x00000000c07c95f0                fib_detect_death
                0x00000000c07c96a0                rtmsg_fib
                0x00000000c07c97f0                ip_fib_check_default
                0x00000000c07c98b0                fib_create_info
                0x00000000c07ca470                inet_frags_init_net
                0x00000000c07ca490                inet_frags_fini
                0x00000000c07ca4a0                inet_frag_destroy
                0x00000000c07ca590                inet_frag_kill
                0x00000000c07ca620                inet_frag_evictor
                0x00000000c07ca6e0                inet_frags_exit_net
                0x00000000c07ca720                inet_frags_init
                0x00000000c07ca850                inet_frag_find
                0x00000000c07cb180                fib_proc_exit
                0x00000000c07cb190                fib_proc_init
                0x00000000c07cbd70                fib_hash_table
                0x00000000c07cd320                fib_rules_tclass
                0x00000000c07cd440                fib4_rules_exit
                0x00000000c07cd5a0                fib4_rules_init
                0x00000000c07cd670                fib_lookup
                0x00000000c07ce770                ipmr_get_route
                0x00000000c07cef70                ip_mr_input
                0x00000000c07cf150                ipmr_ioctl
                0x00000000c07cf2e0                ip_mroute_getsockopt
                0x00000000c07cfa20                ip_mroute_setsockopt
                0x00000000c07d0190                pim_rcv_v1
                0x00000000c07d02e0                cookie_init_timestamp
                0x00000000c07d0330                cookie_check_timestamp
                0x00000000c07d0400                cookie_v4_init_sequence
                0x00000000c07d0510                cookie_v4_check
                0x00000000c07d0f90                lro_flush_pkt
                0x00000000c07d0fd0                lro_flush_all
                0x00000000c07d1410                lro_vlan_hwaccel_receive_frags
                0x00000000c07d14a0                lro_receive_frags
                0x00000000c07d1710                lro_vlan_hwaccel_receive_skb
                0x00000000c07d17a0                lro_receive_skb
                0x00000000c07d1890                nf_ip_checksum
                0x00000000c07d1aa0                ip_xfrm_me_harder
                0x00000000c07d1bb0                ip_route_me_harder
                0x00000000c07d2800                cipso_v4_doi_walk
                0x00000000c07d2880                cipso_v4_validate
                0x00000000c07d2d60                cipso_v4_doi_getdef
                0x00000000c07d2dd0                cipso_v4_doi_free
                0x00000000c07d2e90                cipso_v4_skbuff_delattr
                0x00000000c07d2f80                cipso_v4_delopt
                0x00000000c07d3090                cipso_v4_req_delattr
                0x00000000c07d30b0                cipso_v4_sock_delattr
                0x00000000c07d3100                cipso_v4_error
                0x00000000c07d3160                cipso_v4_doi_add
                0x00000000c07d3320                cipso_v4_cache_invalidate
                0x00000000c07d33a0                cipso_v4_doi_putdef
                0x00000000c07d33f0                cipso_v4_doi_remove
                0x00000000c07d3a00                cipso_v4_cache_add
                0x00000000c07d40c0                cipso_v4_skbuff_getattr
                0x00000000c07d40e0                cipso_v4_sock_getattr
                0x00000000c07d4110                cipso_v4_skbuff_setattr
                0x00000000c07d4370                cipso_v4_req_setattr
                0x00000000c07d44b0                cipso_v4_sock_setattr
                0x00000000c07d4d30                xfrm4_extract_header
                0x00000000c07d4f70                xfrm4_rcv_encap
                0x00000000c07d4f90                xfrm4_rcv
                0x00000000c07d4fb0                xfrm4_udp_encap_rcv
                0x00000000c07d5130                xfrm4_extract_input
                0x00000000c07d5140                xfrm4_transport_finish
                0x00000000c07d5250                xfrm4_output
                0x00000000c07d52c0                xfrm4_prepare_output
                0x00000000c07d5310                xfrm4_extract_output
                0x00000000c07d5390                xfrm_policy_walk_init
                0x00000000c07d53b0                xfrm_dst_ifdown
                0x00000000c07d5420                xfrm_spd_getinfo
                0x00000000c07d5600                xfrm_policy_unregister_afinfo
                0x00000000c07d5680                xfrm_policy_register_afinfo
                0x00000000c07d5960                __xfrm_decode_session
                0x00000000c07d5fe0                xfrm_policy_walk
                0x00000000c07d6190                xfrm_sk_policy_insert
                0x00000000c07d62f0                xfrm_policy_delete
                0x00000000c07d6350                xfrm_policy_walk_done
                0x00000000c07d6380                xfrm_policy_byid
                0x00000000c07d64a0                xfrm_policy_bysel_ctx
                0x00000000c07d65d0                xfrm_policy_destroy
                0x00000000c07d6650                xfrm_policy_alloc
                0x00000000c07d69e0                __xfrm_sk_clone_policy
                0x00000000c07d6fa0                xfrm_audit_policy_delete
                0x00000000c07d70b0                xfrm_policy_flush
                0x00000000c07d76a0                xfrm_policy_insert
                0x00000000c07d7d00                xfrm_audit_policy_add
                0x00000000c07d7e10                xfrm_selector_match
                0x00000000c07d7fd0                xfrm_bundle_ok
                0x00000000c07d86f0                __xfrm_policy_check
                0x00000000c07d9060                xfrm_migrate
                0x00000000c07d97a0                __xfrm_lookup
                0x00000000c07da660                xfrm_lookup
                0x00000000c07da6a0                __xfrm_route_forward
                0x00000000c07da770                xfrm_state_walk_init
                0x00000000c07da9b0                xfrm_replay_check
                0x00000000c07daac0                xfrm_state_init
                0x00000000c07dabd0                xfrm_state_mtu
                0x00000000c07dac40                xfrm_get_acqseq
                0x00000000c07dac80                xfrm_find_acq_byseq
                0x00000000c07dad00                xfrm_sad_getinfo
                0x00000000c07daeb0                xfrm_state_sort
                0x00000000c07daf30                xfrm_tmpl_sort
                0x00000000c07dafb0                km_report
                0x00000000c07db040                km_migrate
                0x00000000c07db0f0                km_new_mapping
                0x00000000c07db160                km_query
                0x00000000c07db1e0                km_state_notify
                0x00000000c07db240                km_state_expired
                0x00000000c07db2a0                km_policy_notify
                0x00000000c07db310                km_policy_expired
                0x00000000c07db400                xfrm_init_state
                0x00000000c07db620                xfrm_state_unregister_afinfo
                0x00000000c07db680                xfrm_state_register_afinfo
                0x00000000c07db710                xfrm_unregister_mode
                0x00000000c07db770                xfrm_register_mode
                0x00000000c07db800                xfrm_unregister_type
                0x00000000c07db840                xfrm_register_type
                0x00000000c07db880                xfrm_unregister_km
                0x00000000c07db8b0                xfrm_state_walk_done
                0x00000000c07db8e0                xfrm_register_km
                0x00000000c07db910                xfrm_state_walk
                0x00000000c07dba50                xfrm_user_policy
                0x00000000c07dbb90                xfrm_replay_notify
                0x00000000c07dbcb0                xfrm_replay_advance
                0x00000000c07dbd40                __xfrm_state_destroy
                0x00000000c07dbdc0                xfrm_state_check_expire
                0x00000000c07dc040                xfrm_state_alloc
                0x00000000c07dc200                __xfrm_state_delete
                0x00000000c07dc2c0                xfrm_state_delete
                0x00000000c07dc300                xfrm_state_delete_tunnel
                0x00000000c07dc460                xfrm_state_lookup
                0x00000000c07dc4d0                xfrm_alloc_spi
                0x00000000c07dc680                xfrm_audit_state_delete
                0x00000000c07dc9b0                xfrm_state_flush
                0x00000000c07dcbf0                xfrm_state_fini
                0x00000000c07dccf0                xfrm_audit_state_icvfail
                0x00000000c07dcdc0                xfrm_audit_state_notfound
                0x00000000c07dce90                xfrm_audit_state_notfound_simple
                0x00000000c07dcf20                xfrm_audit_state_replay_overflow
                0x00000000c07dd110                xfrm_state_lookup_byaddr
                0x00000000c07dd450                xfrm_audit_state_add
                0x00000000c07dd560                xfrm_stateonly_find
                0x00000000c07dd8d0                xfrm_migrate_state_find
                0x00000000c07dddb0                xfrm_state_insert
                0x00000000c07ddde0                xfrm_state_update
                0x00000000c07de070                xfrm_state_find
                0x00000000c07deba0                xfrm_find_acq
                0x00000000c07dec30                xfrm_state_add
                0x00000000c07dee70                xfrm_state_migrate
                0x00000000c07df160                xfrm_hash_free
                0x00000000c07df1a0                xfrm_hash_alloc
                0x00000000c07df210                xfrm_prepare_input
                0x00000000c07df2b0                xfrm_parse_spi
                0x00000000c07df3d0                secpath_dup
                0x00000000c07df430                __secpath_destroy
                0x00000000c07df480                xfrm_input
                0x00000000c07dfa90                xfrm_input_resume
                0x00000000c07dfab0                xfrm_inner_extract_output
                0x00000000c07dfb30                xfrm_output_resume
                0x00000000c07dffa0                xfrm_output
                0x00000000c07e00b0                xfrm_aalg_get_byidx
                0x00000000c07e00d0                xfrm_ealg_get_byidx
                0x00000000c07e00f0                xfrm_count_auth_supported
                0x00000000c07e0120                xfrm_count_enc_supported
                0x00000000c07e0150                pskb_put
                0x00000000c07e0170                skb_icv_walk
                0x00000000c07e0360                xfrm_probe_algs
                0x00000000c07e0510                xfrm_aead_get_byname
                0x00000000c07e0540                xfrm_calg_get_byname
                0x00000000c07e0560                xfrm_ealg_get_byname
                0x00000000c07e0580                xfrm_aalg_get_byname
                0x00000000c07e05a0                xfrm_calg_get_byid
                0x00000000c07e05c0                xfrm_ealg_get_byid
                0x00000000c07e05e0                xfrm_aalg_get_byid
                0x00000000c07e0690                xfrm_sysctl_fini
                0x00000000c07e06b0                xfrm_sysctl_init
                0x00000000c07e0750                xfrm_proc_fini
                0x00000000c07e0760                xfrm_proc_init
                0x00000000c07e79a0                unix_notinflight
                0x00000000c07e7b50                unix_inflight
                0x00000000c07e7bf0                unix_gc
                0x00000000c07e7ee0                wait_for_unix_gc
                0x00000000c07e7f50                unix_sysctl_unregister
                0x00000000c07e7f70                unix_sysctl_register
                0x00000000c07e7fd0                __ipv6_addr_type
                0x00000000c07e80b0                ipv6_ext_hdr
                0x00000000c07e80e0                ipv6_skip_exthdr
                0x00000000c07e81f0                inet6_hash_connect
                0x00000000c07e8240                __inet6_hash
                0x00000000c07e83a0                inet6_lookup_listener
                0x00000000c07e8630                __inet6_lookup_established
                0x00000000c07e8c80                inet6_lookup
                0x00000000c07ec3f0                dsa_xmit
                0x00000000c07ec810                edsa_xmit
                0x00000000c07ecb40                trailer_xmit
                0x00000000c07ecc90                mv88e6xxx_get_strings
                0x00000000c07ecd00                mv88e6xxx_ppu_state_init
                0x00000000c07ecdb0                __mv88e6xxx_reg_write
                0x00000000c07ece70                mv88e6xxx_reg_write
                0x00000000c07ecee0                mv88e6xxx_phy_write
                0x00000000c07ecf00                mv88e6xxx_set_addr_direct
                0x00000000c07ecf90                mv88e6xxx_config_prio
                0x00000000c07ed0b0                __mv88e6xxx_reg_read
                0x00000000c07ed160                mv88e6xxx_reg_read
                0x00000000c07ed260                mv88e6xxx_get_ethtool_stats
                0x00000000c07ed350                mv88e6xxx_poll_link
                0x00000000c07ed550                mv88e6xxx_phy_write_ppu
                0x00000000c07ed5c0                mv88e6xxx_phy_read_ppu
                0x00000000c07ed700                mv88e6xxx_phy_read
                0x00000000c07ed720                mv88e6xxx_set_addr_indirect
                0x00000000c07ee980                dsa_uses_dsa_tags
                0x00000000c07ee990                dsa_uses_trailer_tags
                0x00000000c07eea50                unregister_switch_driver
                0x00000000c07eeae0                register_switch_driver
                0x00000000c07ef230                dsa_slave_create
                0x00000000c07ef950                dsa_slave_mii_bus_init
                0x00000000c07ef9c0                vlan_dev_real_dev
                0x00000000c07ef9d0                vlan_dev_vlan_id
                0x00000000c07ef9e0                vlan_hwaccel_do_receive
                0x00000000c07efa90                __vlan_hwaccel_rx
                0x00000000c07efe90                vlan_gro_frags
                0x00000000c07eff40                vlan_gro_receive
                0x00000000c07effd0                get_wireless_stats
                0x00000000c07f00b0                iw_handler_set_spy
                0x00000000c07f0130                iw_handler_set_thrspy
                0x00000000c07f0170                iw_handler_get_thrspy
                0x00000000c07f01b0                iw_handler_get_spy
                0x00000000c07f0410                wireless_send_event
                0x00000000c07f0760                wireless_spy_update
                0x00000000c07f0920                wext_proc_exit
                0x00000000c07f0930                wext_proc_init
                0x00000000c07f1170                wext_handle_ioctl
                0x00000000c07f1370                netlbl_audit_start_common
                0x00000000c07f1420                netlbl_secattr_catmap_walk
                0x00000000c07f14d0                netlbl_secattr_catmap_walk_rng
                0x00000000c07f15e0                netlbl_enabled
                0x00000000c07f15f0                netlbl_audit_start
                0x00000000c07f1600                netlbl_cache_add
                0x00000000c07f1620                netlbl_cache_invalidate
                0x00000000c07f1630                netlbl_skbuff_err
                0x00000000c07f1640                netlbl_skbuff_getattr
                0x00000000c07f16a0                netlbl_skbuff_setattr
                0x00000000c07f1720                netlbl_req_delattr
                0x00000000c07f1730                netlbl_req_setattr
                0x00000000c07f17b0                netlbl_sock_setattr
                0x00000000c07f1860                netlbl_conn_setattr
                0x00000000c07f18f0                netlbl_sock_delattr
                0x00000000c07f1900                netlbl_sock_getattr
                0x00000000c07f1940                netlbl_secattr_catmap_setbit
                0x00000000c07f19c0                netlbl_secattr_catmap_setrng
                0x00000000c07f1a30                netlbl_cfg_cipsov4_map_add
                0x00000000c07f1bf0                netlbl_cfg_cipsov4_del
                0x00000000c07f1c00                netlbl_cfg_cipsov4_add
                0x00000000c07f1c10                netlbl_cfg_unlbl_static_del
                0x00000000c07f1c80                netlbl_cfg_unlbl_static_add
                0x00000000c07f1d00                netlbl_cfg_map_del
                0x00000000c07f1d80                netlbl_cfg_unlbl_map_add
                0x00000000c07f20b0                netlbl_domhsh_walk
                0x00000000c07f2230                netlbl_domhsh_getentry_af6
                0x00000000c07f2260                netlbl_domhsh_getentry
                0x00000000c07f2270                netlbl_domhsh_getentry_af4
                0x00000000c07f22a0                netlbl_domhsh_remove_entry
                0x00000000c07f23e0                netlbl_domhsh_remove
                0x00000000c07f2410                netlbl_domhsh_remove_default
                0x00000000c07f2420                netlbl_domhsh_remove_af4
                0x00000000c07f27e0                netlbl_domhsh_add
                0x00000000c07f2c20                netlbl_domhsh_add_default
                0x00000000c07f2c30                netlbl_af4list_search
                0x00000000c07f2c60                netlbl_af4list_search_exact
                0x00000000c07f2ca0                netlbl_af6list_search
                0x00000000c07f2d00                netlbl_af6list_search_exact
                0x00000000c07f2d70                netlbl_af4list_remove_entry
                0x00000000c07f2d90                netlbl_af4list_remove
                0x00000000c07f2df0                netlbl_af6list_remove_entry
                0x00000000c07f2e10                netlbl_af6list_remove
                0x00000000c07f2e40                netlbl_af6list_audit_addr
                0x00000000c07f2ef0                netlbl_af4list_audit_addr
                0x00000000c07f2f80                netlbl_af4list_add
                0x00000000c07f3030                netlbl_af6list_add
                0x00000000c07f4260                netlbl_unlabel_getattr
                0x00000000c07f4540                netlbl_unlhsh_remove
                0x00000000c07f52d0                netlbl_unlhsh_add
                0x00000000c07f83d0                unregister_net_sysctl_table
                0x00000000c07f83e0                register_net_sysctl_rotable
                0x00000000c07f8400                register_net_sysctl_table
 *fill*         0x00000000c07f8453        0xd 9090
 .text          0x00000000c07f8460      0x469 lib/lib.a(klist.o)
                0x00000000c07f8460                klist_init
                0x00000000c07f8480                klist_node_attached
                0x00000000c07f8490                klist_iter_init_node
                0x00000000c07f84b0                klist_iter_init
                0x00000000c07f84c0                klist_next
                0x00000000c07f8610                klist_iter_exit
                0x00000000c07f8630                klist_del
                0x00000000c07f86d0                klist_remove
                0x00000000c07f87b0                klist_add_before
                0x00000000c07f8800                klist_add_after
                0x00000000c07f8850                klist_add_tail
                0x00000000c07f8890                klist_add_head
 *fill*         0x00000000c07f88c9        0x3 9090
 .text          0x00000000c07f88cc        0x0 .tmp_kallsyms3.o
 *(.ref.text)
 *fill*         0x00000000c07f88cc        0x4 9090
 .ref.text      0x00000000c07f88d0       0x57 init/built-in.o
 *fill*         0x00000000c07f8927        0x9 9090
 .ref.text      0x00000000c07f8930      0x72c arch/x86/built-in.o
                0x00000000c07f8930                arch_register_cpu
                0x00000000c07f8960                xsave_cntxt_init
                0x00000000c07f8af0                acpi_map_lsapic
                0x00000000c07f8cb0                init_memory_mapping
 *fill*         0x00000000c07f905c        0x4 9090
 .ref.text      0x00000000c07f9060      0x9a6 kernel/built-in.o
                0x00000000c07f90c0                unregister_cpu_notifier
                0x00000000c07f90e0                register_cpu_notifier
                0x00000000c07f9110                enable_nonboot_cpus
                0x00000000c07f9430                cpu_down
                0x00000000c07f9490                profile_init
                0x00000000c07f9550                create_proc_profile
                0x00000000c07f97c0                init_kstat_irqs
                0x00000000c07f9850                irq_to_desc_alloc_node
 *fill*         0x00000000c07f9a06        0xa 9090
 .ref.text      0x00000000c07f9a10      0xb76 mm/built-in.o
                0x00000000c07f9d50                __add_pages
                0x00000000c07f9f30                add_memory
 *fill*         0x00000000c07fa586        0xa 9090
 .ref.text      0x00000000c07fa590     0x1762 drivers/built-in.o
                0x00000000c07fa590                pci_scan_single_device
                0x00000000c07fa6d0                pci_add_new_bus
                0x00000000c07fa850                pci_rescan_bus
                0x00000000c07fadd0                pci_bus_size_bridges
                0x00000000c07fb390                pci_bus_assign_resources
                0x00000000c07fb960                fb_find_logo
                0x00000000c07fb979                acpi_os_unmap_memory
                0x00000000c07fb98c                acpi_os_map_memory
                0x00000000c07fbab0                sfi_check_table
                0x00000000c07fbc20                cb_alloc
 *(.devinit.text)
 .devinit.text  0x00000000c07fbcf2      0x11d arch/x86/built-in.o
 .devinit.text  0x00000000c07fbe0f       0xee kernel/built-in.o
 .devinit.text  0x00000000c07fbefd       0x3c mm/built-in.o
 .devinit.text  0x00000000c07fbf39       0x1e arch/x86/lib/lib.a(delay.o)
                0x00000000c07fbf39                read_current_timer
 .devinit.text  0x00000000c07fbf57     0x602a drivers/built-in.o
                0x00000000c07fc21c                pci_read_bridge_bases
                0x00000000c07fc538                pci_scan_bridge
                0x00000000c07fca43                pci_scan_child_bus
                0x00000000c07fcbac                pci_scan_bus_parented
                0x00000000c07fe64a                pci_do_scan_bus
                0x00000000c07fedfe                hvc_alloc
 .devinit.text  0x00000000c0801f81      0xc6f arch/x86/pci/built-in.o
                0x00000000c0802435                pci_acpi_scan_root
                0x00000000c080270d                pcibios_setup
                0x00000000c0802a8f                pcibios_fixup_bus
                0x00000000c0802b0c                pcibios_scan_root
                0x00000000c0802b88                pci_scan_bus_on_node
                0x00000000c0802be3                pci_scan_bus_with_sysdata
 *(.devexit.text)
 .devexit.text  0x00000000c0802bf0      0x410 drivers/built-in.o
 *(.cpuinit.text)
 .cpuinit.text  0x00000000c0803000      0x2fe arch/x86/kernel/head_32.o
                0x00000000c0803000                startup_32_smp
 .cpuinit.text  0x00000000c08032fe      0x298 init/built-in.o
                0x00000000c08032fe                calibrate_delay
 .cpuinit.text  0x00000000c0803596     0x6917 arch/x86/built-in.o
                0x00000000c0803596                xen_enable_sysenter
                0x00000000c08035e8                xen_enable_syscall
                0x00000000c08039a7                irq_ctx_init
                0x00000000c0803a5a                x86_init_noop
                0x00000000c0803a5f                unsynchronized_tsc
                0x00000000c0803ab1                setup_trampoline
                0x00000000c0803aee                select_idle_routine
                0x00000000c0803bfa                mxcsr_feature_mask_init
                0x00000000c0803c49                init_thread_xstate
                0x00000000c0803c7c                xsave_init
                0x00000000c08040c1                init_intel_cacheinfo
                0x00000000c0804be3                detect_extended_topology
                0x00000000c0804d6a                init_scattered_cpuid_features
                0x00000000c0804e23                cpu_detect
                0x00000000c0804ee6                idle_regs
                0x00000000c0804f80                detect_ht
                0x00000000c08050f3                display_cacheinfo
                0x00000000c08051fc                cpu_init
                0x00000000c0805475                print_cpu_info
                0x00000000c08056d2                get_cpu_cap
                0x00000000c0805bc4                identify_secondary_cpu
                0x00000000c0805be3                vmware_set_feature_bits
                0x00000000c0805bf2                init_hypervisor
                0x00000000c0805c3d                ppro_with_ram_bug
                0x00000000c0807838                mcheck_init
                0x00000000c08081ae                mp_sfi_register_lapic
                0x00000000c08082f6                wakeup_secondary_cpu_via_nmi
                0x00000000c0808413                smp_store_cpu_info
                0x00000000c0808448                set_cpu_sibling_map
                0x00000000c0808976                native_cpu_up
                0x00000000c08096af                check_tsc_sync_target
                0x00000000c08096f5                check_tsc_sync_source
                0x00000000c080981a                enable_NMI_through_LVT0
                0x00000000c0809846                generic_processor_info
                0x00000000c0809997                end_local_APIC_setup
                0x00000000c0809b17                setup_secondary_APIC_clock
                0x00000000c0809b21                setup_local_APIC
 .cpuinit.text  0x00000000c0809ead     0x14dd kernel/built-in.o
                0x00000000c0809ead                init_idle_bootup_task
                0x00000000c0809eb9                init_idle
                0x00000000c080a445                fork_idle
                0x00000000c080a49d                notify_cpu_starting
                0x00000000c080a5f2                cpu_up
                0x00000000c080b1b7                rcu_cpu_notify
 .cpuinit.text  0x00000000c080b38a      0x522 mm/built-in.o
 .cpuinit.text  0x00000000c080b8ac       0xd6 block/built-in.o
 .cpuinit.text  0x00000000c080b982       0x97 lib/built-in.o
 .cpuinit.text  0x00000000c080ba19      0x9d9 drivers/built-in.o
                0x00000000c080c15a                acpi_processor_power_init
                0x00000000c080c287                register_cpu
 .cpuinit.text  0x00000000c080c3f2       0x2b arch/x86/pci/built-in.o
 *(.cpuexit.text)
 *(.meminit.text)
 .meminit.text  0x00000000c080c41d       0x41 arch/x86/built-in.o
 .meminit.text  0x00000000c080c45e      0xdb5 mm/built-in.o
                0x00000000c080c45e                __early_pfn_to_nid
                0x00000000c080c4a5                early_pfn_to_nid
                0x00000000c080c4f2                get_pfn_range_for_nid
                0x00000000c080c78d                init_currently_empty_zone
                0x00000000c080c887                memmap_init_zone
                0x00000000c080c993                free_area_init_node
                0x00000000c080cd9f                __free_pages_bootmem
                0x00000000c080ce3b                mminit_verify_page_links
                0x00000000c080ce7b                vmemmap_populate_print_last
                0x00000000c080ce80                mminit_validate_memmodel_limits
                0x00000000c080cf65                sparse_add_one_section
                0x00000000c080d10f                pgdat_page_cgroup_init
                0x00000000c080d114                offline_page_cgroup
                0x00000000c080d147                online_page_cgroup
 .meminit.text  0x00000000c080d213       0x32 fs/built-in.o
 *(.memexit.text)
 *(.text.unlikely)
 .text.unlikely
                0x00000000c080d245       0x75 arch/x86/built-in.o
                0x00000000c080d245                dump_stack
 .text.unlikely
                0x00000000c080d2ba      0x10f kernel/built-in.o
                0x00000000c080d2ba                panic
                0x00000000c080d3af                printk
                0x00000000c080d3d0                . = ALIGN (0x8)
 *fill*         0x00000000c080d3c9        0x7 9090
                0x00000000c080d3d0                __sched_text_start = .
 *(.sched.text)
 .sched.text    0x00000000c080d3d0     0x2a7a kernel/built-in.o
                0x00000000c080d3d0                io_schedule_timeout
                0x00000000c080d500                sleep_on_timeout
                0x00000000c080d520                sleep_on
                0x00000000c080d540                interruptible_sleep_on_timeout
                0x00000000c080d560                interruptible_sleep_on
                0x00000000c080d580                schedule
                0x00000000c080e130                io_schedule
                0x00000000c080e1d0                __cond_resched_softirq
                0x00000000c080e230                _cond_resched
                0x00000000c080e3b0                wait_for_completion_killable
                0x00000000c080e3e0                wait_for_completion_interruptible_timeout
                0x00000000c080e3f0                wait_for_completion_interruptible
                0x00000000c080e420                wait_for_completion_timeout
                0x00000000c080e430                wait_for_completion
                0x00000000c080e450                yield
                0x00000000c080e470                console_conditional_schedule
                0x00000000c080e4a0                schedule_timeout
                0x00000000c080e770                schedule_timeout_uninterruptible
                0x00000000c080e790                schedule_timeout_killable
                0x00000000c080e7b0                schedule_timeout_interruptible
                0x00000000c080e7d0                __wait_on_bit_lock
                0x00000000c080e860                out_of_line_wait_on_bit_lock
                0x00000000c080e8d0                __wait_on_bit
                0x00000000c080e940                out_of_line_wait_on_bit
                0x00000000c080eb00                mutex_unlock
                0x00000000c080eb10                mutex_trylock
                0x00000000c080efd0                mutex_lock_interruptible_nested
                0x00000000c080f020                mutex_lock_killable_nested
                0x00000000c080f070                mutex_lock_nested
                0x00000000c080f0c0                schedule_hrtimeout_range
                0x00000000c080f1f0                schedule_hrtimeout
                0x00000000c080f2c0                hrtimer_nanosleep_restart
                0x00000000c080f360                down_write
                0x00000000c080f400                down_read
                0x00000000c080f720                rt_mutex_trylock
                0x00000000c080f950                rt_mutex_unlock
                0x00000000c080fbb0                rt_mutex_lock_interruptible
                0x00000000c080fc00                rt_mutex_lock
                0x00000000c080fc40                __account_scheduler_latency
 *fill*         0x00000000c080fe4a        0x6 9090
 .sched.text    0x00000000c080fe50      0x1e1 lib/lib.a(rwsem.o)
                0x00000000c080ffe0                rwsem_down_write_failed
                0x00000000c0810010                rwsem_down_read_failed
 *fill*         0x00000000c0810031        0x3 9090
 .sched.text    0x00000000c0810034       0x56 arch/x86/lib/lib.a(semaphore_32.o)
                0x00000000c0810034                __write_lock_failed
                0x00000000c0810050                __read_lock_failed
                0x00000000c0810060                call_rwsem_down_read_failed
                0x00000000c081006c                call_rwsem_down_write_failed
                0x00000000c0810074                call_rwsem_wake
                0x00000000c0810080                call_rwsem_downgrade_wake
                0x00000000c081008a                __sched_text_end = .
                0x00000000c0810090                . = ALIGN (0x8)
 *fill*         0x00000000c081008a        0x6 9090
                0x00000000c0810090                __lock_text_start = .
 *(.spinlock.text)
 .spinlock.text
                0x00000000c0810090      0xaf3 kernel/built-in.o
                0x00000000c0810090                _spin_trylock
                0x00000000c08100e0                _spin_trylock_bh
                0x00000000c0810150                _write_unlock_bh
                0x00000000c0810180                _write_unlock
                0x00000000c08101a0                _write_unlock_irq
                0x00000000c08101d0                _write_unlock_irqrestore
                0x00000000c0810230                _read_unlock_bh
                0x00000000c0810260                _read_unlock_irq
                0x00000000c0810290                _read_unlock_irqrestore
                0x00000000c08102f0                _read_unlock
                0x00000000c0810310                _spin_unlock_bh
                0x00000000c0810340                _spin_unlock_irq
                0x00000000c0810370                _spin_unlock_irqrestore
                0x00000000c08103d0                _spin_unlock
                0x00000000c08103f0                _spin_lock_nest_lock
                0x00000000c0810450                _spin_lock_irqsave_nested
                0x00000000c08104e0                _spin_lock_nested
                0x00000000c0810550                _spin_lock
                0x00000000c08105c0                _spin_lock_bh
                0x00000000c0810630                _spin_lock_irq
                0x00000000c08106a0                _spin_lock_irqsave
                0x00000000c0810730                _write_trylock
                0x00000000c0810780                _write_lock
                0x00000000c08107f0                _write_lock_bh
                0x00000000c0810860                _write_lock_irq
                0x00000000c08108d0                _write_lock_irqsave
                0x00000000c0810960                _read_trylock
                0x00000000c08109b0                _read_lock_bh
                0x00000000c0810a20                _read_lock_irq
                0x00000000c0810a90                _read_lock_irqsave
                0x00000000c0810b20                _read_lock
 *fill*         0x00000000c0810b83        0xd 9090
 .spinlock.text
                0x00000000c0810b90       0xf7 lib/built-in.o
                0x00000000c0810b90                __release_kernel_lock
                0x00000000c0810ba0                unlock_kernel
                0x00000000c0810bd0                lock_kernel
                0x00000000c0810c10                __reacquire_kernel_lock
                0x00000000c0810c87                __lock_text_end = .
                0x00000000c0810c88                . = ALIGN (0x8)
 *fill*         0x00000000c0810c87        0x1 9090
                0x00000000c0810c88                __kprobes_text_start = .
 *(.kprobes.text)
 *fill*         0x00000000c0810c88        0x8 9090
 .kprobes.text  0x00000000c0810c90     0x23d3 arch/x86/built-in.o
                0x00000000c0810c90                page_fault
                0x00000000c0810d18                debug
                0x00000000c0810d74                nmi
                0x00000000c0810ea0                int3
                0x00000000c0810edc                general_protection
                0x00000000c0810fc0                do_int3
                0x00000000c0811070                do_debug
                0x00000000c0811230                do_nmi
                0x00000000c0811560                do_general_protection
                0x00000000c08116f0                do_device_not_available
                0x00000000c0811760                __die
                0x00000000c0811860                oops_end
                0x00000000c0811930                oops_begin
                0x00000000c08119d0                die_nmi
                0x00000000c0811ad0                text_poke
                0x00000000c0811d60                lapic_wd_event
                0x00000000c0811e90                nmi_watchdog_tick
                0x00000000c08120b0                arch_prepare_kretprobe
                0x00000000c08120d3                kretprobe_trampoline
                0x00000000c0812110                jprobe_return
                0x00000000c0812127                jprobe_return_end
                0x00000000c0812130                arch_trampoline_kprobe
                0x00000000c08122b0                longjmp_break_handler
                0x00000000c08123a0                setjmp_pre_handler
                0x00000000c0812430                kprobe_fault_handler
                0x00000000c0812530                kprobe_exceptions_notify
                0x00000000c0812a80                arch_remove_kprobe
                0x00000000c0812ab0                arch_disarm_kprobe
                0x00000000c0812ad0                arch_arm_kprobe
                0x00000000c0812af0                arch_prepare_kprobe
                0x00000000c0812ca0                do_page_fault
 *fill*         0x00000000c0813063        0xd 9090
 .kprobes.text  0x00000000c0813070     0x1b37 kernel/built-in.o
                0x00000000c0813100                __atomic_notifier_call_chain
                0x00000000c0813180                atomic_notifier_call_chain
                0x00000000c08131a0                get_kprobe
                0x00000000c0813270                kprobes_inc_nmissed_count
                0x00000000c0813660                kretprobe_hash_lock
                0x00000000c0813690                kretprobe_table_unlock
                0x00000000c08136b0                kretprobe_hash_unlock
                0x00000000c0813a20                enable_kprobe
                0x00000000c0813ab0                disable_kprobe
                0x00000000c0813d10                unregister_jprobes
                0x00000000c0813d90                unregister_jprobe
                0x00000000c0813db0                unregister_kprobes
                0x00000000c0813e30                unregister_kprobe
                0x00000000c0813e50                recycle_rp_inst
                0x00000000c0813ed0                kprobe_flush_task
                0x00000000c0814020                free_insn_slot
                0x00000000c08140d0                get_insn_slot
                0x00000000c0814270                unregister_kretprobes
                0x00000000c08143a0                unregister_kretprobe
                0x00000000c08143c0                register_kprobe
                0x00000000c08148a0                register_kretprobe
                0x00000000c0814a50                register_kretprobes
                0x00000000c0814ab0                register_jprobes
                0x00000000c0814b30                register_jprobe
                0x00000000c0814b50                register_kprobes
                0x00000000c0814ba7                __kprobes_text_end = .
 *(.fixup)
 *fill*         0x00000000c0814ba7        0x1 9090
 .fixup         0x00000000c0814ba8      0x2f8 arch/x86/built-in.o
                0x00000000c0814ca8                iret_exc
 .fixup         0x00000000c0814ea0      0x21e kernel/built-in.o
 .fixup         0x00000000c08150be       0x38 mm/built-in.o
 .fixup         0x00000000c08150f6      0x26c fs/built-in.o
 .fixup         0x00000000c0815362       0x2a arch/x86/lib/lib.a(checksum_32.o)
 .fixup         0x00000000c081538c       0xfa arch/x86/lib/lib.a(usercopy_32.o)
 .fixup         0x00000000c0815486        0xc lib/built-in.o
 .fixup         0x00000000c0815492      0x208 drivers/built-in.o
 .fixup         0x00000000c081569a        0xc arch/x86/pci/built-in.o
 .fixup         0x00000000c08156a6       0x1c arch/x86/power/built-in.o
 .fixup         0x00000000c08156c2       0x1e net/built-in.o
 *(.gnu.warning)
                0x00000000c08156e0                _etext = .

.iplt           0x00000000c08156e0        0x0 load address 0x00000000008156e0
 .iplt          0x0000000000000000        0x0 arch/x86/kernel/head_32.o

.notes          0x00000000c08156e0      0x168 load address 0x00000000008156e0
                0x00000000c08156e0                __start_notes = .
 *(.note.*)
 .note.Xen      0x00000000c08156e0      0x144 arch/x86/kernel/head_32.o
 .note.gnu.build-id
                0x00000000c0815824       0x24 arch/x86/kernel/head_32.o
 .note.GNU-stack
                0x00000000c0815848        0x0 arch/x86/kernel/head32.o
 .note.GNU-stack
                0x00000000c0815848        0x0 arch/x86/kernel/head.o
 .note.GNU-stack
                0x00000000c0815848        0x0 arch/x86/kernel/init_task.o
 .note.GNU-stack
                0x00000000c0815848        0x0 init/built-in.o
 .note.GNU-stack
                0x00000000c0815848        0x0 arch/x86/built-in.o
 .note.GNU-stack
                0x00000000c0815848        0x0 kernel/built-in.o
 .note.GNU-stack
                0x00000000c0815848        0x0 mm/built-in.o
 .note.GNU-stack
                0x00000000c0815848        0x0 fs/built-in.o
 .note.GNU-stack
                0x00000000c0815848        0x0 ipc/built-in.o
 .note.GNU-stack
                0x00000000c0815848        0x0 security/built-in.o
 .note.GNU-stack
                0x00000000c0815848        0x0 crypto/built-in.o
 .note.GNU-stack
                0x00000000c0815848        0x0 block/built-in.o
 .note.GNU-stack
                0x00000000c0815848        0x0 lib/lib.a(argv_split.o)
 .note.GNU-stack
                0x00000000c0815848        0x0 lib/lib.a(bug.o)
 .note.GNU-stack
                0x00000000c0815848        0x0 lib/lib.a(cmdline.o)
 .note.GNU-stack
                0x00000000c0815848        0x0 lib/lib.a(cpumask.o)
 .note.GNU-stack
                0x00000000c0815848        0x0 lib/lib.a(ctype.o)
 .note.GNU-stack
                0x00000000c0815848        0x0 lib/lib.a(dec_and_lock.o)
 .note.GNU-stack
                0x00000000c0815848        0x0 lib/lib.a(decompress.o)
 .note.GNU-stack
                0x00000000c0815848        0x0 lib/lib.a(decompress_bunzip2.o)
 .note.GNU-stack
                0x00000000c0815848        0x0 lib/lib.a(decompress_inflate.o)
 .note.GNU-stack
                0x00000000c0815848        0x0 lib/lib.a(decompress_unlzma.o)
 .note.GNU-stack
                0x00000000c0815848        0x0 lib/lib.a(extable.o)
 .note.GNU-stack
                0x00000000c0815848        0x0 lib/lib.a(find_next_bit.o)
 .note.GNU-stack
                0x00000000c0815848        0x0 lib/lib.a(idr.o)
 .note.GNU-stack
                0x00000000c0815848        0x0 lib/lib.a(int_sqrt.o)
 .note.GNU-stack
                0x00000000c0815848        0x0 lib/lib.a(ioremap.o)
 .note.GNU-stack
                0x00000000c0815848        0x0 lib/lib.a(is_single_threaded.o)
 .note.GNU-stack
                0x00000000c0815848        0x0 lib/lib.a(kobject.o)
 .note.GNU-stack
                0x00000000c0815848        0x0 lib/lib.a(kobject_uevent.o)
 .note.GNU-stack
                0x00000000c0815848        0x0 lib/lib.a(kref.o)
 .note.GNU-stack
                0x00000000c0815848        0x0 lib/lib.a(plist.o)
 .note.GNU-stack
                0x00000000c0815848        0x0 lib/lib.a(prio_heap.o)
 .note.GNU-stack
                0x00000000c0815848        0x0 lib/lib.a(prio_tree.o)
 .note.GNU-stack
                0x00000000c0815848        0x0 lib/lib.a(proportions.o)
 .note.GNU-stack
                0x00000000c0815848        0x0 lib/lib.a(radix-tree.o)
 .note.GNU-stack
                0x00000000c0815848        0x0 lib/lib.a(ratelimit.o)
 .note.GNU-stack
                0x00000000c0815848        0x0 lib/lib.a(rbtree.o)
 .note.GNU-stack
                0x00000000c0815848        0x0 lib/lib.a(reciprocal_div.o)
 .note.GNU-stack
                0x00000000c0815848        0x0 lib/lib.a(rwsem.o)
 .note.GNU-stack
                0x00000000c0815848        0x0 lib/lib.a(sha1.o)
 .note.GNU-stack
                0x00000000c0815848        0x0 lib/lib.a(show_mem.o)
 .note.GNU-stack
                0x00000000c0815848        0x0 lib/lib.a(string.o)
 .note.GNU-stack
                0x00000000c0815848        0x0 lib/lib.a(vsprintf.o)
 .note.GNU-stack
                0x00000000c0815848        0x0 arch/x86/lib/lib.a(delay.o)
 .note.GNU-stack
                0x00000000c0815848        0x0 arch/x86/lib/lib.a(memcpy_32.o)
 .note.GNU-stack
                0x00000000c0815848        0x0 arch/x86/lib/lib.a(string_32.o)
 .note.GNU-stack
                0x00000000c0815848        0x0 arch/x86/lib/lib.a(strstr_32.o)
 .note.GNU-stack
                0x00000000c0815848        0x0 arch/x86/lib/lib.a(usercopy_32.o)
 .note.GNU-stack
                0x00000000c0815848        0x0 lib/built-in.o
 .note.GNU-stack
                0x00000000c0815848        0x0 arch/x86/lib/built-in.o
 .note.GNU-stack
                0x00000000c0815848        0x0 drivers/built-in.o
 .note.GNU-stack
                0x00000000c0815848        0x0 arch/x86/pci/built-in.o
 .note.GNU-stack
                0x00000000c0815848        0x0 arch/x86/power/built-in.o
 .note.GNU-stack
                0x00000000c0815848        0x0 arch/x86/video/built-in.o
 .note.GNU-stack
                0x00000000c0815848        0x0 net/built-in.o
 .note.GNU-stack
                0x00000000c0815848        0x0 lib/lib.a(klist.o)
                0x00000000c0815848                __stop_notes = .
                0x00000000c0815850                . = ALIGN (0x10)

__ex_table      0x00000000c0815850     0x1320 load address 0x0000000000815850
                0x00000000c0815850                __start___ex_table = .
 *(__ex_table)
 __ex_table     0x00000000c0815850      0x4f8 arch/x86/built-in.o
 __ex_table     0x00000000c0815d48      0x1b8 kernel/built-in.o
 __ex_table     0x00000000c0815f00       0x28 mm/built-in.o
 __ex_table     0x00000000c0815f28      0x228 fs/built-in.o
 __ex_table     0x00000000c0816150      0x130 arch/x86/lib/lib.a(checksum_32.o)
 __ex_table     0x00000000c0816280       0x18 arch/x86/lib/lib.a(getuser.o)
 __ex_table     0x00000000c0816298       0x28 arch/x86/lib/lib.a(putuser.o)
 __ex_table     0x00000000c08162c0      0x6f0 arch/x86/lib/lib.a(usercopy_32.o)
 __ex_table     0x00000000c08169b0        0x8 lib/built-in.o
 __ex_table     0x00000000c08169b8       0x10 arch/x86/lib/built-in.o
 __ex_table     0x00000000c08169c8      0x168 drivers/built-in.o
 __ex_table     0x00000000c0816b30        0x8 arch/x86/pci/built-in.o
 __ex_table     0x00000000c0816b38       0x20 arch/x86/power/built-in.o
 __ex_table     0x00000000c0816b58       0x18 net/built-in.o
                0x00000000c0816b70                __stop___ex_table = .
                0x00000000c0817000                . = ALIGN (0x1000)

.rodata         0x00000000c0817000   0x18c8a3 load address 0x0000000000817000
                0x00000000c0817000                __start_rodata = .
 *(.rodata)
 .rodata        0x00000000c0817000      0x125 init/built-in.o
                0x00000000c0817020                linux_banner
                0x00000000c08170c0                linux_proc_banner
 *fill*         0x00000000c0817125       0x1b 00
 .rodata        0x00000000c0817140     0x6ee8 arch/x86/built-in.o
                0x00000000c0817290                sys_call_table
                0x00000000c0817e74                cpuinfo_op
                0x00000000c0817ea0                x86_cap_flags
                0x00000000c0818320                x86_power_flags
                0x00000000c08191f3                wakeup_code_start
                0x00000000c081d145                wakeup_code_end
                0x00000000c081db80                kretprobe_blacklist_size
                0x00000000c081dd80                rodata_test_data
 *fill*         0x00000000c081e028       0x18 00
 .rodata        0x00000000c081e040     0x6bfc kernel/built-in.o
                0x00000000c081e680                cpu_bit_bitmap
                0x00000000c081e704                cpu_all_bits
                0x00000000c081e708                cpu_possible_mask
                0x00000000c081e70c                cpu_online_mask
                0x00000000c081e710                cpu_present_mask
                0x00000000c081e714                cpu_active_mask
                0x00000000c081e960                __cap_empty_set
                0x00000000c081e968                __cap_full_set
                0x00000000c081e970                __cap_init_eff_set
                0x00000000c0822360                pm_states
                0x00000000c08224e0                proc_cgroup_operations
                0x00000000c08228c0                proc_cpuset_operations
                0x00000000c08234c0                relay_file_operations
 *fill*         0x00000000c0824c3c        0x4 00
 .rodata        0x00000000c0824c40     0x1074 mm/built-in.o
                0x00000000c0824ca0                generic_file_vm_ops
                0x00000000c0825b38                hugetlb_zero
                0x00000000c0825b3c                hugetlb_infinity
                0x00000000c0825b40                hugetlb_vm_ops
 *fill*         0x00000000c0825cb4        0xc 00
 .rodata        0x00000000c0825cc0     0x78e8 fs/built-in.o
                0x00000000c0825ce0                generic_ro_fops
                0x00000000c0825d60                def_chr_fops
                0x00000000c0825de0                read_pipefifo_fops
                0x00000000c0825e60                write_pipefifo_fops
                0x00000000c0825ee0                rdwr_pipefifo_fops
                0x00000000c0825fa0                page_symlink_inode_operations
                0x00000000c0826020                def_fifo_fops
                0x00000000c0826220                mounts_op
                0x00000000c0826230                mountinfo_op
                0x00000000c0826240                mountstats_op
                0x00000000c08262e0                simple_dir_operations
                0x00000000c0826360                simple_dir_inode_operations
                0x00000000c08264c0                def_blk_fops
                0x00000000c0826640                inotify_fsnotify_ops
                0x00000000c0826f80                dquot_operations
                0x00000000c0826fe0                vfs_quotactl_ops
                0x00000000c08270a0                proc_maps_operations
                0x00000000c0827120                proc_smaps_operations
                0x00000000c08271a0                proc_clear_refs_operations
                0x00000000c0827220                proc_pagemap_operations
                0x00000000c0829560                proc_net_inode_operations
                0x00000000c08295c0                proc_net_operations
                0x00000000c0829a20                sysfs_file_operations
                0x00000000c0829aa0                sysfs_dir_inode_operations
                0x00000000c0829b00                sysfs_dir_operations
                0x00000000c0829ba0                sysfs_symlink_inode_operations
                0x00000000c0829c80                bin_fops
                0x00000000c0829ea0                ramfs_aops
                0x00000000c0829f00                ramfs_file_operations
                0x00000000c0829f80                ramfs_file_inode_operations
                0x00000000c082a000                hugetlbfs_file_operations
                0x00000000c082a560                isofs_dir_operations
                0x00000000c082a5e0                isofs_dir_inode_operations
                0x00000000c082a640                isofs_symlink_aops
                0x00000000c082a684                isofs_export_ops
                0x00000000c082a6a0                zisofs_aops
                0x00000000c082c8e0                debugfs_file_operations
                0x00000000c082c960                debugfs_link_operations
 *fill*         0x00000000c082d5a8       0x18 00
 .rodata        0x00000000c082d5c0      0x34c ipc/built-in.o
 *fill*         0x00000000c082d90c       0x14 00
 .rodata        0x00000000c082d920     0x1f62 security/built-in.o
                0x00000000c082dc00                selinux_class_perm
 *fill*         0x00000000c082f882       0x1e 00
 .rodata        0x00000000c082f8a0     0x5188 crypto/built-in.o
                0x00000000c082f940                crypto_aead_type
                0x00000000c082f980                crypto_nivaead_type
                0x00000000c082f9c0                crypto_ablkcipher_type
                0x00000000c082fa00                crypto_givcipher_type
                0x00000000c082fa40                crypto_blkcipher_type
                0x00000000c082fa80                crypto_ahash_type
                0x00000000c0834a00                crypto_rng_type
 *fill*         0x00000000c0834a28       0x18 00
 .rodata        0x00000000c0834a40      0x2ca block/built-in.o
                0x00000000c0834c68                scsi_command_size_tbl
 *fill*         0x00000000c0834d0a        0x2 00
 .rodata        0x00000000c0834d0c       0x9c lib/lib.a(cmdline.o)
 *fill*         0x00000000c0834da8       0x18 00
 .rodata        0x00000000c0834dc0       0x3c lib/lib.a(decompress.o)
 .rodata        0x00000000c0834dfc       0x6d lib/lib.a(kobject.o)
 *fill*         0x00000000c0834e69        0x3 00
 .rodata        0x00000000c0834e6c       0x2b lib/lib.a(kobject_uevent.o)
 .rodata        0x00000000c0834e97        0xc lib/lib.a(ratelimit.o)
 *fill*         0x00000000c0834ea3        0x1 00
 .rodata        0x00000000c0834ea4      0x5e0 lib/lib.a(vsprintf.o)
 *fill*         0x00000000c0835484       0x1c 00
 .rodata        0x00000000c08354a0     0x1654 lib/built-in.o
                0x00000000c08354f4                hex_asc
                0x00000000c0835520                byte_rev_table
                0x00000000c0835620                crc16_table
 .rodata        0x00000000c0836af4        0xb arch/x86/lib/built-in.o
 *fill*         0x00000000c0836aff        0x1 00
 .rodata        0x00000000c0836b00    0x1b5e0 drivers/built-in.o
                0x00000000c0836ce0                pci_dev_pm_ops
                0x00000000c0837d00                vesa_modes
                0x00000000c0839180                dummy_con
                0x00000000c0839220                vga_con
                0x00000000c0839400                font_vga_8x8
                0x00000000c0839c20                font_vga_8x16
                0x00000000c083d6b4                acpi_gbl_aml_op_info
                0x00000000c083e050                acpi_gbl_aml_resource_sizes
                0x00000000c083e064                acpi_gbl_resource_struct_sizes
                0x00000000c083e398                acpi_gbl_pre_defined_names
                0x00000000c083e410                acpi_gbl_ns_properties
                0x00000000c083e568                acpi_gbl_resource_aml_sizes
                0x00000000c083e908                acpi_processor_throttling_fops
                0x00000000c083ea5c                acpi_processor_limit_fops
                0x00000000c083fa40                random_fops
                0x00000000c083fac0                urandom_fops
                0x00000000c083fea0                tty_ldiscs_proc_fops
                0x00000000c0840260                max_vals
                0x00000000c084029c                NR_TYPES
                0x00000000c08411a0                agp3_generic_sizes
                0x00000000c0846b54                sata_deb_timing_normal
                0x00000000c0846b60                sata_deb_timing_hotplug
                0x00000000c0846b6c                sata_deb_timing_long
                0x00000000c0846b80                ata_base_port_ops
                0x00000000c0846c80                sata_port_ops
                0x00000000c0846d64                ata_dummy_port_info
                0x00000000c0847d00                ata_sff_port_ops
                0x00000000c0847e00                ata_bmdma_port_ops
                0x00000000c0847f00                ata_bmdma32_port_ops
                0x00000000c0848000                sata_pmp_port_ops
                0x00000000c0848fc0                usbdev_file_operations
                0x00000000c0849200                usbfs_devices_fops
                0x00000000c0849520                mon_fops_stat
 .rodata        0x00000000c08520e0      0x6fd arch/x86/pci/built-in.o
 *fill*         0x00000000c08527dd        0x3 00
 .rodata        0x00000000c08527e0     0x3c24 net/built-in.o
                0x00000000c0852840                bad_sock_fops
                0x00000000c0853240                ifla_policy
                0x00000000c0853960                eth_header_ops
                0x00000000c0853ee0                ip_tos2prio
                0x00000000c08541c0                inet_csk_timer_bug_msg
                0x00000000c0854360                ipv4_specific
                0x00000000c0854480                arp_broken_ops
                0x00000000c0854800                inet_stream_ops
                0x00000000c0854860                inet_dgram_ops
                0x00000000c0854b20                rtm_ipv4_policy
 .rodata        0x00000000c0856404    0xc73c4 .tmp_kallsyms3.o
                0x00000000c0856404                kallsyms_addresses
                0x00000000c0888520                kallsyms_num_syms
                0x00000000c0888524                kallsyms_names
                0x00000000c091cf0c                kallsyms_markers
                0x00000000c091d230                kallsyms_token_table
                0x00000000c091d5c8                kallsyms_token_index
 *(.rodata.*)
 .rodata.str1.1
                0x00000000c091d7c8        0xe arch/x86/kernel/head32.o
                                         0x16 (size before relaxing)
 .rodata.str1.1
                0x00000000c091d7d6        0xe arch/x86/kernel/head.o
 .rodata.str1.4
                0x00000000c091d7e4       0x8f arch/x86/kernel/init_task.o
 .rodata.str1.1
                0x00000000c091d873       0x9a arch/x86/kernel/init_task.o
 .rodata.str1.1
                0x00000000c091d90d      0x357 init/built-in.o
                                        0x411 (size before relaxing)
 .rodata.str1.4
                0x00000000c091dc64      0xc51 init/built-in.o
 .rodata.str1.1
                0x00000000c091e8b5     0x44c5 arch/x86/built-in.o
                                       0x4e62 (size before relaxing)
 *fill*         0x00000000c0922d7a        0x2 00
 .rodata.str1.4
                0x00000000c0922d7c     0x8d09 arch/x86/built-in.o
                                       0x8e4d (size before relaxing)
 .rodata.str1.1
                0x00000000c092ba85     0x9833 kernel/built-in.o
                                       0xb3c0 (size before relaxing)
 .rodata.str1.4
                0x00000000c09352b8     0xab8e kernel/built-in.o
                                       0xb072 (size before relaxing)
 .rodata.str1.1
                0x00000000c093fe46     0x1db5 mm/built-in.o
                                       0x261a (size before relaxing)
 *fill*         0x00000000c0941bfb        0x1 00
 .rodata.str1.4
                0x00000000c0941bfc     0x42a7 mm/built-in.o
                                       0x436b (size before relaxing)
 .rodata.str1.1
                0x00000000c0945ea3     0x38fb fs/built-in.o
                                       0x4a07 (size before relaxing)
 *fill*         0x00000000c094979e        0x2 00
 .rodata.str1.4
                0x00000000c09497a0     0x309d fs/built-in.o
                                       0x314d (size before relaxing)
 .rodata.str1.1
                0x00000000c094c83d      0x595 ipc/built-in.o
                                        0x720 (size before relaxing)
 *fill*         0x00000000c094cdd2        0x2 00
 .rodata.str1.4
                0x00000000c094cdd4      0x261 ipc/built-in.o
 .rodata.str1.1
                0x00000000c094d035     0x13ef security/built-in.o
                                       0x197c (size before relaxing)
 .rodata.str1.4
                0x00000000c094e424     0x98f8 security/built-in.o
                                       0x99b8 (size before relaxing)
 .rodata.str1.1
                0x00000000c0957d1c     0x1c55 crypto/built-in.o
                                       0x1fe1 (size before relaxing)
 *fill*         0x00000000c0959971        0x3 00
 .rodata.str1.4
                0x00000000c0959974     0x3752 crypto/built-in.o
                                       0x3802 (size before relaxing)
 .rodata.str1.1
                0x00000000c095d0c6      0xb37 block/built-in.o
                                        0xf5c (size before relaxing)
 *fill*         0x00000000c095dbfd        0x3 00
 .rodata.str1.4
                0x00000000c095dc00     0x14d8 block/built-in.o
                                       0x1530 (size before relaxing)
 .rodata.str1.4
                0x00000000c095f0d8       0x96 lib/lib.a(bug.o)
 .rodata.str1.1
                0x00000000c095f16e       0x3a lib/lib.a(bug.o)
 .rodata.str1.1
                0x00000000c095f1a8       0x10 lib/lib.a(decompress.o)
 .rodata.str1.4
                0x00000000c095f1b8       0x8e lib/lib.a(decompress_bunzip2.o)
 *fill*         0x00000000c095f246        0x2 00
 .rodata.str1.4
                0x00000000c095f248       0xad lib/lib.a(decompress_inflate.o)
 .rodata.str1.1
                0x00000000c095f2f5       0x24 lib/lib.a(decompress_inflate.o)
                                         0x3b (size before relaxing)
 .rodata.str1.1
                0x00000000c095f319       0x1a lib/lib.a(decompress_unlzma.o)
 .rodata.str1.4
                0x0000000000000000       0x1f lib/lib.a(decompress_unlzma.o)
 .rodata.str1.1
                0x00000000c095f333       0x1a lib/lib.a(idr.o)
 *fill*         0x00000000c095f34d        0x3 00
 .rodata.str1.4
                0x00000000c095f350       0x70 lib/lib.a(idr.o)
 .rodata.str1.1
                0x00000000c095f3c0        0xe lib/lib.a(ioremap.o)
 *fill*         0x00000000c095f3ce        0x2 00
 .rodata.str1.4
                0x00000000c095f3d0      0x515 lib/lib.a(kobject.o)
 .rodata.str1.1
                0x00000000c095f8e5       0xe2 lib/lib.a(kobject.o)
                                         0xf8 (size before relaxing)
 *fill*         0x00000000c095f9c7        0x1 00
 .rodata.str1.4
                0x00000000c095f9c8      0x38c lib/lib.a(kobject_uevent.o)
                                        0x3b0 (size before relaxing)
 .rodata.str1.1
                0x00000000c095fd54       0x67 lib/lib.a(kobject_uevent.o)
                                         0xa0 (size before relaxing)
 .rodata.str1.1
                0x00000000c095fdbb        0xb lib/lib.a(kref.o)
 .rodata.str1.1
                0x00000000c095fdc6        0xc lib/lib.a(plist.o)
 .rodata.str1.1
                0x00000000c095fdd2       0x10 lib/lib.a(prio_tree.o)
 .rodata.str1.1
                0x00000000c095fde2        0xb lib/lib.a(proportions.o)
 .rodata.str1.1
                0x00000000c095fded       0x21 lib/lib.a(radix-tree.o)
 *fill*         0x00000000c095fe0e        0x2 00
 .rodata.str1.4
                0x00000000c095fe10       0x20 lib/lib.a(ratelimit.o)
 .rodata.str1.1
                0x00000000c095fe30       0x7b lib/lib.a(show_mem.o)
 .rodata.str1.1
                0x00000000c095feab        0xd lib/lib.a(string.o)
 .rodata.str1.1
                0x00000000c095feb8        0xf lib/lib.a(vsprintf.o)
                                         0x1d (size before relaxing)
 .rodata.str1.1
                0x00000000c095fec7      0x3c0 lib/built-in.o
                                        0x47b (size before relaxing)
 *fill*         0x00000000c0960287        0x1 00
 .rodata.str1.4
                0x00000000c0960288      0x1cd lib/built-in.o
                                        0x20d (size before relaxing)
 .rodata.str1.1
                0x00000000c0960455       0x1e arch/x86/lib/built-in.o
 .rodata.str1.1
                0x00000000c0960473    0x1833b drivers/built-in.o
                                      0x1b204 (size before relaxing)
 *fill*         0x00000000c09787ae        0x2 00
 .rodata.str1.4
                0x00000000c09787b0    0x23cd8 drivers/built-in.o
                                      0x248c0 (size before relaxing)
 .rodata.str1.4
                0x00000000c099c488     0x1053 arch/x86/pci/built-in.o
                                       0x10ff (size before relaxing)
 .rodata.str1.1
                0x00000000c099d4db      0x61a arch/x86/pci/built-in.o
                                        0x6cc (size before relaxing)
 .rodata.str1.1
                0x00000000c099daf5       0x1e arch/x86/power/built-in.o
 .rodata.str1.1
                0x00000000c099db13     0x21c9 net/built-in.o
                                       0x31eb (size before relaxing)
 .rodata.str1.4
                0x00000000c099fcdc     0x369c net/built-in.o
                                       0x3a2c (size before relaxing)
 .rodata.str1.1
                0x00000000c09a3378        0xc lib/lib.a(klist.o)
 *(__vermagic)
 *(__markers_strings)
 *(__tracepoints_strings)
 __tracepoints_strings
                0x00000000c09a3384       0x13 arch/x86/built-in.o
 __tracepoints_strings
                0x00000000c09a3397      0x2fc kernel/built-in.o
 __tracepoints_strings
                0x00000000c09a3693       0xc7 mm/built-in.o
 __tracepoints_strings
                0x00000000c09a375a      0x11d block/built-in.o
 __tracepoints_strings
                0x00000000c09a3877       0x2c net/built-in.o

.rodata1
 *(.rodata1)
                0x00000000c09a38a8                . = ALIGN (0x8)

__bug_table     0x00000000c09a38a8     0x5748 load address 0x00000000009a38a8
                0x00000000c09a38a8                __start___bug_table = .
 *(__bug_table)
 __bug_table    0x00000000c09a38a8        0xc init/built-in.o
 __bug_table    0x00000000c09a38b4      0x8a0 arch/x86/built-in.o
 __bug_table    0x00000000c09a4154      0xd74 kernel/built-in.o
 __bug_table    0x00000000c09a4ec8     0x1458 mm/built-in.o
 __bug_table    0x00000000c09a6320      0xea0 fs/built-in.o
 __bug_table    0x00000000c09a71c0       0x90 ipc/built-in.o
 __bug_table    0x00000000c09a7250      0x228 security/built-in.o
 __bug_table    0x00000000c09a7478      0x2d0 crypto/built-in.o
 __bug_table    0x00000000c09a7748      0x3d8 block/built-in.o
 __bug_table    0x00000000c09a7b20       0x24 lib/lib.a(idr.o)
 __bug_table    0x00000000c09a7b44       0x18 lib/lib.a(ioremap.o)
 __bug_table    0x00000000c09a7b5c       0x54 lib/lib.a(prio_tree.o)
 __bug_table    0x00000000c09a7bb0       0x78 lib/lib.a(radix-tree.o)
 __bug_table    0x00000000c09a7c28        0xc lib/lib.a(string.o)
 __bug_table    0x00000000c09a7c34       0x84 lib/built-in.o
 __bug_table    0x00000000c09a7cb8      0xabc drivers/built-in.o
 __bug_table    0x00000000c09a8774        0xc arch/x86/pci/built-in.o
 __bug_table    0x00000000c09a8780       0x18 arch/x86/power/built-in.o
 __bug_table    0x00000000c09a8798      0x858 net/built-in.o
                0x00000000c09a8ff0                __stop___bug_table = .

.pci_fixup      0x00000000c09a8ff0      0xb98 load address 0x00000000009a8ff0
                0x00000000c09a8ff0                __start_pci_fixups_early = .
 *(.pci_fixup_early)
 .pci_fixup_early
                0x00000000c09a8ff0       0xc8 drivers/built-in.o
 .pci_fixup_early
                0x00000000c09a90b8       0x10 arch/x86/pci/built-in.o
                0x00000000c09a90c8                __end_pci_fixups_early = .
                0x00000000c09a90c8                __start_pci_fixups_header = .
 *(.pci_fixup_header)
 .pci_fixup_header
                0x00000000c09a90c8      0x100 arch/x86/built-in.o
 .pci_fixup_header
                0x00000000c09a91c8      0x300 drivers/built-in.o
 .pci_fixup_header
                0x00000000c09a94c8       0x80 arch/x86/pci/built-in.o
                0x00000000c09a9548                __end_pci_fixups_header = .
                0x00000000c09a9548                __start_pci_fixups_final = .
 *(.pci_fixup_final)
 .pci_fixup_final
                0x00000000c09a9548       0x20 arch/x86/built-in.o
 .pci_fixup_final
                0x00000000c09a9568      0x408 drivers/built-in.o
 .pci_fixup_final
                0x00000000c09a9970       0x38 arch/x86/pci/built-in.o
                0x00000000c09a99a8                __end_pci_fixups_final = .
                0x00000000c09a99a8                __start_pci_fixups_enable = .
 *(.pci_fixup_enable)
 .pci_fixup_enable
                0x00000000c09a99a8        0x8 drivers/built-in.o
 .pci_fixup_enable
                0x00000000c09a99b0        0x8 arch/x86/pci/built-in.o
                0x00000000c09a99b8                __end_pci_fixups_enable = .
                0x00000000c09a99b8                __start_pci_fixups_resume = .
 *(.pci_fixup_resume)
 .pci_fixup_resume
                0x00000000c09a99b8       0x90 drivers/built-in.o
 .pci_fixup_resume
                0x00000000c09a9a48       0x38 arch/x86/pci/built-in.o
                0x00000000c09a9a80                __end_pci_fixups_resume = .
                0x00000000c09a9a80                __start_pci_fixups_resume_early = .
 *(.pci_fixup_resume_early)
 .pci_fixup_resume_early
                0x00000000c09a9a80      0x100 drivers/built-in.o
                0x00000000c09a9b80                __end_pci_fixups_resume_early = .
                0x00000000c09a9b80                __start_pci_fixups_suspend = .
 *(.pci_fixup_suspend)
 .pci_fixup_suspend
                0x00000000c09a9b80        0x8 drivers/built-in.o
                0x00000000c09a9b88                __end_pci_fixups_suspend = .

.builtin_fw     0x00000000c09a9b88        0x0 load address 0x00000000009a9b88
                0x00000000c09a9b88                __start_builtin_fw = .
 *(.builtin_fw)
                0x00000000c09a9b88                __end_builtin_fw = .

.rio_route      0x00000000c09a9b88        0x0 load address 0x00000000009a9b88
                0x00000000c09a9b88                __start_rio_route_ops = .
 *(.rio_route_ops)
                0x00000000c09a9b88                __end_rio_route_ops = .

__ksymtab       0x00000000c09a9b88     0x6620 load address 0x00000000009a9b88
                0x00000000c09a9b88                __start___ksymtab = .
 *(__ksymtab)
 __ksymtab      0x00000000c09a9b88        0x8 arch/x86/kernel/init_task.o
 __ksymtab      0x00000000c09a9b90       0x20 init/built-in.o
 __ksymtab      0x00000000c09a9bb0      0x3a8 arch/x86/built-in.o
 __ksymtab      0x00000000c09a9f58      0xbe8 kernel/built-in.o
 __ksymtab      0x00000000c09aab40      0x5e0 mm/built-in.o
 __ksymtab      0x00000000c09ab120      0xf78 fs/built-in.o
 __ksymtab      0x00000000c09ac098      0x1b8 security/built-in.o
 __ksymtab      0x00000000c09ac250      0x420 block/built-in.o
 __ksymtab      0x00000000c09ac670       0x10 lib/lib.a(argv_split.o)
 __ksymtab      0x00000000c09ac680       0x18 lib/lib.a(cmdline.o)
 __ksymtab      0x00000000c09ac698       0x20 lib/lib.a(cpumask.o)
 __ksymtab      0x00000000c09ac6b8        0x8 lib/lib.a(ctype.o)
 __ksymtab      0x00000000c09ac6c0        0x8 lib/lib.a(dec_and_lock.o)
 __ksymtab      0x00000000c09ac6c8       0x20 lib/lib.a(find_next_bit.o)
 __ksymtab      0x00000000c09ac6e8       0x80 lib/lib.a(idr.o)
 __ksymtab      0x00000000c09ac768        0x8 lib/lib.a(int_sqrt.o)
 __ksymtab      0x00000000c09ac770       0x40 lib/lib.a(kobject.o)
 __ksymtab      0x00000000c09ac7b0       0x20 lib/lib.a(kref.o)
 __ksymtab      0x00000000c09ac7d0       0x78 lib/lib.a(radix-tree.o)
 __ksymtab      0x00000000c09ac848        0x8 lib/lib.a(ratelimit.o)
 __ksymtab      0x00000000c09ac850       0x38 lib/lib.a(rbtree.o)
 __ksymtab      0x00000000c09ac888       0x28 lib/lib.a(rwsem.o)
 __ksymtab      0x00000000c09ac8b0        0x8 lib/lib.a(sha1.o)
 __ksymtab      0x00000000c09ac8b8       0x70 lib/lib.a(string.o)
 __ksymtab      0x00000000c09ac928       0x78 lib/lib.a(vsprintf.o)
 __ksymtab      0x00000000c09ac9a0       0x20 arch/x86/lib/lib.a(delay.o)
 __ksymtab      0x00000000c09ac9c0       0x18 arch/x86/lib/lib.a(memcpy_32.o)
 __ksymtab      0x00000000c09ac9d8       0x58 arch/x86/lib/lib.a(string_32.o)
 __ksymtab      0x00000000c09aca30       0x60 arch/x86/lib/lib.a(usercopy_32.o)
 __ksymtab      0x00000000c09aca90      0x4a8 lib/built-in.o
 __ksymtab      0x00000000c09acf38       0xe8 arch/x86/lib/built-in.o
 __ksymtab      0x00000000c09ad020     0x1ab8 drivers/built-in.o
 __ksymtab      0x00000000c09aead8       0x18 arch/x86/pci/built-in.o
 __ksymtab      0x00000000c09aeaf0       0x10 arch/x86/power/built-in.o
 __ksymtab      0x00000000c09aeb00        0x8 arch/x86/video/built-in.o
 __ksymtab      0x00000000c09aeb08     0x16a0 net/built-in.o
                0x00000000c09b01a8                __stop___ksymtab = .

__ksymtab_gpl   0x00000000c09b01a8     0x36d0 load address 0x00000000009b01a8
                0x00000000c09b01a8                __start___ksymtab_gpl = .
 *(__ksymtab_gpl)
 __ksymtab_gpl  0x00000000c09b01a8        0x8 init/built-in.o
 __ksymtab_gpl  0x00000000c09b01b0      0x200 arch/x86/built-in.o
 __ksymtab_gpl  0x00000000c09b03b0      0x958 kernel/built-in.o
 __ksymtab_gpl  0x00000000c09b0d08      0x140 mm/built-in.o
 __ksymtab_gpl  0x00000000c09b0e48      0x3c0 fs/built-in.o
 __ksymtab_gpl  0x00000000c09b1208       0xa8 security/built-in.o
 __ksymtab_gpl  0x00000000c09b12b0      0x390 crypto/built-in.o
 __ksymtab_gpl  0x00000000c09b1640      0x108 block/built-in.o
 __ksymtab_gpl  0x00000000c09b1748       0x28 lib/lib.a(kobject.o)
 __ksymtab_gpl  0x00000000c09b1770       0x18 lib/lib.a(kobject_uevent.o)
 __ksymtab_gpl  0x00000000c09b1788       0x18 lib/lib.a(vsprintf.o)
 __ksymtab_gpl  0x00000000c09b17a0       0x50 lib/built-in.o
 __ksymtab_gpl  0x00000000c09b17f0     0x1b30 drivers/built-in.o
 __ksymtab_gpl  0x00000000c09b3320      0x4f8 net/built-in.o
 __ksymtab_gpl  0x00000000c09b3818       0x60 lib/lib.a(klist.o)
                0x00000000c09b3878                __stop___ksymtab_gpl = .

__ksymtab_unused
                0x00000000c09b3878        0x8 load address 0x00000000009b3878
                0x00000000c09b3878                __start___ksymtab_unused = .
 *(__ksymtab_unused)
 __ksymtab_unused
                0x00000000c09b3878        0x8 fs/built-in.o
                0x00000000c09b3880                __stop___ksymtab_unused = .

__ksymtab_unused_gpl
                0x00000000c09b3880        0x0 load address 0x00000000009b3880
                0x00000000c09b3880                __start___ksymtab_unused_gpl = .
 *(__ksymtab_unused_gpl)
                0x00000000c09b3880                __stop___ksymtab_unused_gpl = .

__ksymtab_gpl_future
                0x00000000c09b3880        0x0 load address 0x00000000009b3880
                0x00000000c09b3880                __start___ksymtab_gpl_future = .
 *(__ksymtab_gpl_future)
                0x00000000c09b3880                __stop___ksymtab_gpl_future = .

__kcrctab       0x00000000c09b3880     0x3310 load address 0x00000000009b3880
                0x00000000c09b3880                __start___kcrctab = .
 *(__kcrctab)
 __kcrctab      0x00000000c09b3880        0x4 arch/x86/kernel/init_task.o
 __kcrctab      0x00000000c09b3884       0x10 init/built-in.o
 __kcrctab      0x00000000c09b3894      0x1d4 arch/x86/built-in.o
 __kcrctab      0x00000000c09b3a68      0x5f4 kernel/built-in.o
 __kcrctab      0x00000000c09b405c      0x2f0 mm/built-in.o
 __kcrctab      0x00000000c09b434c      0x7bc fs/built-in.o
 __kcrctab      0x00000000c09b4b08       0xdc security/built-in.o
 __kcrctab      0x00000000c09b4be4      0x210 block/built-in.o
 __kcrctab      0x00000000c09b4df4        0x8 lib/lib.a(argv_split.o)
 __kcrctab      0x00000000c09b4dfc        0xc lib/lib.a(cmdline.o)
 __kcrctab      0x00000000c09b4e08       0x10 lib/lib.a(cpumask.o)
 __kcrctab      0x00000000c09b4e18        0x4 lib/lib.a(ctype.o)
 __kcrctab      0x00000000c09b4e1c        0x4 lib/lib.a(dec_and_lock.o)
 __kcrctab      0x00000000c09b4e20       0x10 lib/lib.a(find_next_bit.o)
 __kcrctab      0x00000000c09b4e30       0x40 lib/lib.a(idr.o)
 __kcrctab      0x00000000c09b4e70        0x4 lib/lib.a(int_sqrt.o)
 __kcrctab      0x00000000c09b4e74       0x20 lib/lib.a(kobject.o)
 __kcrctab      0x00000000c09b4e94       0x10 lib/lib.a(kref.o)
 __kcrctab      0x00000000c09b4ea4       0x3c lib/lib.a(radix-tree.o)
 __kcrctab      0x00000000c09b4ee0        0x4 lib/lib.a(ratelimit.o)
 __kcrctab      0x00000000c09b4ee4       0x1c lib/lib.a(rbtree.o)
 __kcrctab      0x00000000c09b4f00       0x14 lib/lib.a(rwsem.o)
 __kcrctab      0x00000000c09b4f14        0x4 lib/lib.a(sha1.o)
 __kcrctab      0x00000000c09b4f18       0x38 lib/lib.a(string.o)
 __kcrctab      0x00000000c09b4f50       0x3c lib/lib.a(vsprintf.o)
 __kcrctab      0x00000000c09b4f8c       0x10 arch/x86/lib/lib.a(delay.o)
 __kcrctab      0x00000000c09b4f9c        0xc arch/x86/lib/lib.a(memcpy_32.o)
 __kcrctab      0x00000000c09b4fa8       0x2c arch/x86/lib/lib.a(string_32.o)
 __kcrctab      0x00000000c09b4fd4       0x30 arch/x86/lib/lib.a(usercopy_32.o)
 __kcrctab      0x00000000c09b5004      0x254 lib/built-in.o
 __kcrctab      0x00000000c09b5258       0x74 arch/x86/lib/built-in.o
 __kcrctab      0x00000000c09b52cc      0xd5c drivers/built-in.o
 __kcrctab      0x00000000c09b6028        0xc arch/x86/pci/built-in.o
 __kcrctab      0x00000000c09b6034        0x8 arch/x86/power/built-in.o
 __kcrctab      0x00000000c09b603c        0x4 arch/x86/video/built-in.o
 __kcrctab      0x00000000c09b6040      0xb50 net/built-in.o
                0x00000000c09b6b90                __stop___kcrctab = .

__kcrctab_gpl   0x00000000c09b6b90     0x1b68 load address 0x00000000009b6b90
                0x00000000c09b6b90                __start___kcrctab_gpl = .
 *(__kcrctab_gpl)
 __kcrctab_gpl  0x00000000c09b6b90        0x4 init/built-in.o
 __kcrctab_gpl  0x00000000c09b6b94      0x100 arch/x86/built-in.o
 __kcrctab_gpl  0x00000000c09b6c94      0x4ac kernel/built-in.o
 __kcrctab_gpl  0x00000000c09b7140       0xa0 mm/built-in.o
 __kcrctab_gpl  0x00000000c09b71e0      0x1e0 fs/built-in.o
 __kcrctab_gpl  0x00000000c09b73c0       0x54 security/built-in.o
 __kcrctab_gpl  0x00000000c09b7414      0x1c8 crypto/built-in.o
 __kcrctab_gpl  0x00000000c09b75dc       0x84 block/built-in.o
 __kcrctab_gpl  0x00000000c09b7660       0x14 lib/lib.a(kobject.o)
 __kcrctab_gpl  0x00000000c09b7674        0xc lib/lib.a(kobject_uevent.o)
 __kcrctab_gpl  0x00000000c09b7680        0xc lib/lib.a(vsprintf.o)
 __kcrctab_gpl  0x00000000c09b768c       0x28 lib/built-in.o
 __kcrctab_gpl  0x00000000c09b76b4      0xd98 drivers/built-in.o
 __kcrctab_gpl  0x00000000c09b844c      0x27c net/built-in.o
 __kcrctab_gpl  0x00000000c09b86c8       0x30 lib/lib.a(klist.o)
                0x00000000c09b86f8                __stop___kcrctab_gpl = .

__kcrctab_unused
                0x00000000c09b86f8        0x4 load address 0x00000000009b86f8
                0x00000000c09b86f8                __start___kcrctab_unused = .
 *(__kcrctab_unused)
 __kcrctab_unused
                0x00000000c09b86f8        0x4 fs/built-in.o
                0x00000000c09b86fc                __stop___kcrctab_unused = .

__kcrctab_unused_gpl
                0x00000000c09b86fc        0x0 load address 0x00000000009b86fc
                0x00000000c09b86fc                __start___kcrctab_unused_gpl = .
 *(__kcrctab_unused_gpl)
                0x00000000c09b86fc                __stop___kcrctab_unused_gpl = .

__kcrctab_gpl_future
                0x00000000c09b86fc        0x0 load address 0x00000000009b86fc
                0x00000000c09b86fc                __start___kcrctab_gpl_future = .
 *(__kcrctab_gpl_future)
                0x00000000c09b86fc                __stop___kcrctab_gpl_future = .

__ksymtab_strings
                0x00000000c09b86fc    0x16353 load address 0x00000000009b86fc
 *(__ksymtab_strings)
 __ksymtab_strings
                0x00000000c09b86fc        0xa arch/x86/kernel/init_task.o
 __ksymtab_strings
                0x00000000c09b8706       0x42 init/built-in.o
 __ksymtab_strings
                0x00000000c09b8748      0xb75 arch/x86/built-in.o
 __ksymtab_strings
                0x00000000c09b92bd     0x312f kernel/built-in.o
 __ksymtab_strings
                0x00000000c09bc3ec      0xf63 mm/built-in.o
 __ksymtab_strings
                0x00000000c09bd34f     0x26bc fs/built-in.o
 __ksymtab_strings
                0x00000000c09bfa0b      0x648 security/built-in.o
 __ksymtab_strings
                0x00000000c09c0053      0x8c0 crypto/built-in.o
 __ksymtab_strings
                0x00000000c09c0913      0xc2b block/built-in.o
 __ksymtab_strings
                0x00000000c09c153e       0x15 lib/lib.a(argv_split.o)
 __ksymtab_strings
                0x00000000c09c1553       0x20 lib/lib.a(cmdline.o)
 __ksymtab_strings
                0x00000000c09c1573       0x39 lib/lib.a(cpumask.o)
 __ksymtab_strings
                0x00000000c09c15ac        0x7 lib/lib.a(ctype.o)
 __ksymtab_strings
                0x00000000c09c15b3       0x15 lib/lib.a(dec_and_lock.o)
 __ksymtab_strings
                0x00000000c09c15c8       0x44 lib/lib.a(find_next_bit.o)
 __ksymtab_strings
                0x00000000c09c160c       0xc5 lib/lib.a(idr.o)
 __ksymtab_strings
                0x00000000c09c16d1        0x9 lib/lib.a(int_sqrt.o)
 __ksymtab_strings
                0x00000000c09c16da       0xcc lib/lib.a(kobject.o)
 __ksymtab_strings
                0x00000000c09c17a6       0x31 lib/lib.a(kobject_uevent.o)
 __ksymtab_strings
                0x00000000c09c17d7       0x25 lib/lib.a(kref.o)
 __ksymtab_strings
                0x00000000c09c17fc      0x145 lib/lib.a(radix-tree.o)
 __ksymtab_strings
                0x00000000c09c1941        0xc lib/lib.a(ratelimit.o)
 __ksymtab_strings
                0x00000000c09c194d       0x4a lib/lib.a(rbtree.o)
 __ksymtab_strings
                0x00000000c09c1997       0x5c lib/lib.a(rwsem.o)
 __ksymtab_strings
                0x00000000c09c19f3        0xe lib/lib.a(sha1.o)
 __ksymtab_strings
                0x00000000c09c1a01       0x7a lib/lib.a(string.o)
 __ksymtab_strings
                0x00000000c09c1a7b       0xd1 lib/lib.a(vsprintf.o)
 __ksymtab_strings
                0x00000000c09c1b4c       0x29 arch/x86/lib/lib.a(delay.o)
 __ksymtab_strings
                0x00000000c09c1b75       0x16 arch/x86/lib/lib.a(memcpy_32.o)
 __ksymtab_strings
                0x00000000c09c1b8b       0x52 arch/x86/lib/lib.a(string_32.o)
 __ksymtab_strings
                0x00000000c09c1bdd       0xe7 arch/x86/lib/lib.a(usercopy_32.o)
 __ksymtab_strings
                0x00000000c09c1cc4      0x900 lib/built-in.o
 __ksymtab_strings
                0x00000000c09c25c4      0x1f4 arch/x86/lib/built-in.o
 __ksymtab_strings
                0x00000000c09c27b8     0x83f4 drivers/built-in.o
 __ksymtab_strings
                0x00000000c09cabac       0x4d arch/x86/pci/built-in.o
 __ksymtab_strings
                0x00000000c09cabf9       0x2d arch/x86/power/built-in.o
 __ksymtab_strings
                0x00000000c09cac26       0x15 arch/x86/video/built-in.o
 __ksymtab_strings
                0x00000000c09cac3b     0x3d5f net/built-in.o
 __ksymtab_strings
                0x00000000c09ce99a       0xb5 lib/lib.a(klist.o)

__init_rodata   0x00000000c09cea60     0x37f6 load address 0x00000000009cea60
 *(.ref.rodata)
 *(.devinit.rodata)
 .devinit.rodata
                0x00000000c09cea60       0x38 drivers/built-in.o
 *fill*         0x00000000c09cea98        0x8 00
 .devinit.rodata
                0x00000000c09ceaa0     0x2af0 arch/x86/pci/built-in.o
 *(.devexit.rodata)
 *(.cpuinit.rodata)
 *fill*         0x00000000c09d1590       0x10 00
 .cpuinit.rodata
                0x00000000c09d15a0      0xcb6 arch/x86/built-in.o
                0x00000000c09d2220                trampoline_data
                0x00000000c09d2256                trampoline_end
 *(.cpuexit.rodata)
 *(.meminit.rodata)
 *(.memexit.rodata)

__param         0x00000000c09d2258     0x1da8 load address 0x00000000009d2258
                0x00000000c09d2258                __start___param = .
 *(__param)
 __param        0x00000000c09d2258       0x14 init/built-in.o
 __param        0x00000000c09d226c      0x104 arch/x86/built-in.o
 __param        0x00000000c09d2370       0xdc kernel/built-in.o
 __param        0x00000000c09d244c      0xd5c drivers/built-in.o
 __param        0x00000000c09d31a8       0xb4 net/built-in.o
                0x00000000c09d325c                __stop___param = .
                0x00000000c09d4000                . = ALIGN (0x1000)
 *fill*         0x00000000c09d325c      0xda4 00
                0x00000000c09d4000                __end_rodata = .
                0x00000000c09d4000                . = ALIGN (0x1000)

.data           0x00000000c09d4000    0x8a2a8 load address 0x00000000009d4000
                0x00000000c09d4000                _sdata = .
                0x00000000c09d4000                . = ALIGN (0x1000)
 *(.data.init_task)
 .data.init_task
                0x00000000c09d4000     0x1000 arch/x86/kernel/init_task.o
                0x00000000c09d4000                init_thread_union
                0x00000000c09d5000                . = ALIGN (0x1000)
                0x00000000c09d5000                __nosave_begin = .
 *(.data.nosave)
 .data.nosave   0x00000000c09d5000        0x4 kernel/built-in.o
                0x00000000c09d5000                in_suspend
                0x00000000c09d6000                . = ALIGN (0x1000)
 *fill*         0x00000000c09d5004      0xffc 00
                0x00000000c09d6000                __nosave_end = .
                0x00000000c09d6000                . = ALIGN (0x1000)
 *(.data.page_aligned)
 .data.page_aligned
                0x00000000c09d6000     0x1000 arch/x86/kernel/head_32.o
                0x00000000c09d6000                swapper_pg_dir
 .data.page_aligned
                0x00000000c09d7000    0x21800 arch/x86/built-in.o
                0x00000000c09f8000                idt_table
                0x00000000c09f8800                . = ALIGN (0x40)
 *(.data.cacheline_aligned)
 .data.cacheline_aligned
                0x00000000c09f8800     0x2180 arch/x86/built-in.o
                0x00000000c09f8800                doublefault_tss
 .data.cacheline_aligned
                0x00000000c09fa980      0xde0 kernel/built-in.o
                0x00000000c09fa980                tasklist_lock
                0x00000000c09fa9c0                mmlist_lock
                0x00000000c09faa40                jiffies_64
                0x00000000c09faaa0                xtime_lock
 .data.cacheline_aligned
                0x00000000c09fb760       0x24 mm/built-in.o
 *fill*         0x00000000c09fb784       0x1c 00
 .data.cacheline_aligned
                0x00000000c09fb7a0      0x224 fs/built-in.o
                0x00000000c09fb7a0                files_lock
                0x00000000c09fb820                dcache_lock
                0x00000000c09fb860                rename_lock
                0x00000000c09fb8a0                vfsmount_lock
                0x00000000c09fb920                dq_data_lock
 *fill*         0x00000000c09fb9c4       0x1c 00
 .data.cacheline_aligned
                0x00000000c09fb9e0        0x4 lib/built-in.o
 *(.data)
 *fill*         0x00000000c09fb9e4       0x1c 00
 .data          0x00000000c09fba00      0x160 arch/x86/kernel/head_32.o
                0x00000000c09fba00                stack_start
                0x00000000c09fbb16                boot_gdt_descr
                0x00000000c09fbb1e                idt_descr
                0x00000000c09fbb28                early_gdt_descr
                0x00000000c09fbb40                boot_gdt
 .data          0x00000000c09fbb60        0x0 arch/x86/kernel/head32.o
 .data          0x00000000c09fbb60        0x0 arch/x86/kernel/head.o
 .data          0x00000000c09fbb60     0x1d34 arch/x86/kernel/init_task.o
                0x00000000c09fbb60                init_task
 *fill*         0x00000000c09fd894        0xc 00
 .data          0x00000000c09fd8a0      0x2d8 init/built-in.o
                0x00000000c09fd8a0                envp_init
                0x00000000c09fd928                loops_per_jiffy
                0x00000000c09fd9e0                init_uts_ns
                0x00000000c09fdb6c                root_mountflags
 .data          0x00000000c09fdb78        0x0 usr/built-in.o
 *fill*         0x00000000c09fdb78        0x8 00
 .data          0x00000000c09fdb80     0x3890 arch/x86/built-in.o
                0x00000000c09fdb80                HYPERVISOR_shared_info
                0x00000000c09fdc48                code_bytes
                0x00000000c09fdc4c                kstack_depth_to_print
                0x00000000c09fdc60                _brk_end
                0x00000000c09fdc64                mmu_cr4_features
                0x00000000c09fdee8                x86_platform
                0x00000000c09fdf00                i8259A_lock
                0x00000000c09fdf40                i8259A_chip
                0x00000000c09fdf88                cached_irq_mask
                0x00000000c09fe224                pci_mem_start
                0x00000000c09fe240                x86_dma_fallback_dev
                0x00000000c09fe540                i8253_lock
                0x00000000c09fe640                nommu_dma_ops
                0x00000000c09fe700                rtc_lock
                0x00000000c09fe968                sig_xstate_size
                0x00000000c09fee40                x86_mce_decode_callback
                0x00000000c09fee44                machine_check_vector
                0x00000000c09fee60                mce_chrdev_ops
                0x00000000c09fffd4                mce_threshold_vector
                0x00000000c0a000e0                generic_mtrr_ops
                0x00000000c0a00300                saved_magic
                0x00000000c0a00304                saved_eip
                0x00000000c0a00320                reboot_type
                0x00000000c0a00324                machine_ops
                0x00000000c0a00480                smp_ops
                0x00000000c0a004c0                smp_num_siblings
                0x00000000c0a00540                boot_cpu_physical_apicid
                0x00000000c0a00544                first_system_vector
                0x00000000c0a006c0                no_broadcast
                0x00000000c0a006e0                apic_default
                0x00000000c0a0079c                apic
                0x00000000c0a008a0                sis_apic_bug
                0x00000000c0a00ca0                apic_bigsmp
                0x00000000c0a00d60                elfcorehdr_addr
                0x00000000c0a00d68                kretprobe_blacklist
                0x00000000c0a00d80                arch_kgdb_ops
                0x00000000c0a00f60                k8_nb_ids
                0x00000000c0a01080                pv_info
                0x00000000c0a01090                pv_init_ops
                0x00000000c0a01094                pv_time_ops
                0x00000000c0a0109c                pv_irq_ops
                0x00000000c0a010c0                pv_cpu_ops
                0x00000000c0a01160                pv_apic_ops
                0x00000000c0a01180                pv_mmu_ops
                0x00000000c0a01300                pgd_lock
                0x00000000c0a01324                pgd_list
                0x00000000c0a0132c                show_unhandled_signals
                0x00000000c0a013ac                __userpte_alloc_gfp
                0x00000000c0a013b0                __VMALLOC_RESERVE
                0x00000000c0a013b4                __FIXADDR_TOP
                0x00000000c0a0140c                kmemcheck_enabled
 *fill*         0x00000000c0a01410       0x10 00
 .data          0x00000000c0a01420     0xc4a0 kernel/built-in.o
                0x00000000c0a01420                sysctl_sched_shares_ratelimit
                0x00000000c0a01424                normalized_sysctl_sched_shares_ratelimit
                0x00000000c0a01428                sysctl_sched_shares_thresh
                0x00000000c0a0142c                sysctl_sched_rt_period
                0x00000000c0a01430                sysctl_sched_rt_runtime
                0x00000000c0a01434                sysctl_sched_latency
                0x00000000c0a01438                normalized_sysctl_sched_latency
                0x00000000c0a0143c                sysctl_sched_min_granularity
                0x00000000c0a01440                normalized_sysctl_sched_min_granularity
                0x00000000c0a01444                sysctl_sched_wakeup_granularity
                0x00000000c0a01448                normalized_sysctl_sched_wakeup_granularity
                0x00000000c0a01460                enter_syscall_print__nice
                0x00000000c0a014a0                exit_syscall_print__nice
                0x00000000c0a014e0                enter_syscall_print__sched_setscheduler
                0x00000000c0a01520                exit_syscall_print__sched_setscheduler
                0x00000000c0a01560                enter_syscall_print__sched_setparam
                0x00000000c0a015a0                exit_syscall_print__sched_setparam
                0x00000000c0a015e0                enter_syscall_print__sched_getscheduler
                0x00000000c0a01620                exit_syscall_print__sched_getscheduler
                0x00000000c0a01660                enter_syscall_print__sched_getparam
                0x00000000c0a016a0                exit_syscall_print__sched_getparam
                0x00000000c0a016e0                enter_syscall_print__sched_setaffinity
                0x00000000c0a01720                exit_syscall_print__sched_setaffinity
                0x00000000c0a01760                enter_syscall_print__sched_getaffinity
                0x00000000c0a017a0                exit_syscall_print__sched_getaffinity
                0x00000000c0a017e0                enter_syscall_print__sched_yield
                0x00000000c0a01820                exit_syscall_print__sched_yield
                0x00000000c0a01860                enter_syscall_print__sched_get_priority_max
                0x00000000c0a018a0                exit_syscall_print__sched_get_priority_max
                0x00000000c0a018e0                enter_syscall_print__sched_get_priority_min
                0x00000000c0a01920                exit_syscall_print__sched_get_priority_min
                0x00000000c0a01960                enter_syscall_print__sched_rr_get_interval
                0x00000000c0a019a0                exit_syscall_print__sched_rr_get_interval
                0x00000000c0a019e0                cpu_cgroup_subsys
                0x00000000c0a01ae0                cpuacct_subsys
                0x00000000c0a026e0                enter_syscall_print__set_tid_address
                0x00000000c0a02720                exit_syscall_print__set_tid_address
                0x00000000c0a02760                enter_syscall_print__unshare
                0x00000000c0a027a0                exit_syscall_print__unshare
                0x00000000c0a027e0                default_exec_domain
                0x00000000c0a02820                enter_syscall_print__personality
                0x00000000c0a02860                exit_syscall_print__personality
                0x00000000c0a02980                panic_notifier_list
                0x00000000c0a02a00                log_wait
                0x00000000c0a02a2c                console_printk
                0x00000000c0a02a40                enter_syscall_print__syslog
                0x00000000c0a02a80                exit_syscall_print__syslog
                0x00000000c0a02aa4                console_suspend_enabled
                0x00000000c0a02aa8                printk_ratelimit_state
                0x00000000c0a02c40                enter_syscall_print__exit
                0x00000000c0a02c80                exit_syscall_print__exit
                0x00000000c0a02cc0                enter_syscall_print__exit_group
                0x00000000c0a02d00                exit_syscall_print__exit_group
                0x00000000c0a02d40                enter_syscall_print__waitid
                0x00000000c0a02d80                exit_syscall_print__waitid
                0x00000000c0a02dc0                enter_syscall_print__wait4
                0x00000000c0a02e00                exit_syscall_print__wait4
                0x00000000c0a02e40                enter_syscall_print__waitpid
                0x00000000c0a02e80                exit_syscall_print__waitpid
                0x00000000c0a02f60                enter_syscall_print__getitimer
                0x00000000c0a02fa0                exit_syscall_print__getitimer
                0x00000000c0a02fe0                enter_syscall_print__setitimer
                0x00000000c0a03020                exit_syscall_print__setitimer
                0x00000000c0a03080                enter_syscall_print__time
                0x00000000c0a030c0                exit_syscall_print__time
                0x00000000c0a03100                enter_syscall_print__stime
                0x00000000c0a03140                exit_syscall_print__stime
                0x00000000c0a03180                enter_syscall_print__gettimeofday
                0x00000000c0a031c0                exit_syscall_print__gettimeofday
                0x00000000c0a03200                enter_syscall_print__settimeofday
                0x00000000c0a03240                exit_syscall_print__settimeofday
                0x00000000c0a03280                enter_syscall_print__adjtimex
                0x00000000c0a032c0                exit_syscall_print__adjtimex
                0x00000000c0a03320                softirq_to_name
                0x00000000c0a03460                ioport_resource
                0x00000000c0a034a0                iomem_resource
                0x00000000c0a03520                enter_syscall_print__sysctl
                0x00000000c0a03560                exit_syscall_print__sysctl
                0x00000000c0a04cc0                file_caps_enabled
                0x00000000c0a04ce0                enter_syscall_print__capget
                0x00000000c0a04d20                exit_syscall_print__capget
                0x00000000c0a04d60                enter_syscall_print__capset
                0x00000000c0a04da0                exit_syscall_print__capset
                0x00000000c0a04e00                enter_syscall_print__ptrace
                0x00000000c0a04e40                exit_syscall_print__ptrace
                0x00000000c0a04ea0                enter_syscall_print__alarm
                0x00000000c0a04ee0                exit_syscall_print__alarm
                0x00000000c0a04f20                enter_syscall_print__getpid
                0x00000000c0a04f60                exit_syscall_print__getpid
                0x00000000c0a04fa0                enter_syscall_print__getppid
                0x00000000c0a04fe0                exit_syscall_print__getppid
                0x00000000c0a05020                enter_syscall_print__getuid
                0x00000000c0a05060                exit_syscall_print__getuid
                0x00000000c0a050a0                enter_syscall_print__geteuid
                0x00000000c0a050e0                exit_syscall_print__geteuid
                0x00000000c0a05120                enter_syscall_print__getgid
                0x00000000c0a05160                exit_syscall_print__getgid
                0x00000000c0a051a0                enter_syscall_print__getegid
                0x00000000c0a051e0                exit_syscall_print__getegid
                0x00000000c0a05220                enter_syscall_print__gettid
                0x00000000c0a05260                exit_syscall_print__gettid
                0x00000000c0a052a0                enter_syscall_print__sysinfo
                0x00000000c0a052e0                exit_syscall_print__sysinfo
                0x00000000c0a05640                init_user_ns
                0x00000000c0a05a80                root_user
                0x00000000c0a05b00                enter_syscall_print__restart_syscall
                0x00000000c0a05b40                exit_syscall_print__restart_syscall
                0x00000000c0a05b80                enter_syscall_print__rt_sigprocmask
                0x00000000c0a05bc0                exit_syscall_print__rt_sigprocmask
                0x00000000c0a05c00                enter_syscall_print__rt_sigpending
                0x00000000c0a05c40                exit_syscall_print__rt_sigpending
                0x00000000c0a05c80                enter_syscall_print__rt_sigtimedwait
                0x00000000c0a05cc0                exit_syscall_print__rt_sigtimedwait
                0x00000000c0a05d00                enter_syscall_print__kill
                0x00000000c0a05d40                exit_syscall_print__kill
                0x00000000c0a05d80                enter_syscall_print__tgkill
                0x00000000c0a05dc0                exit_syscall_print__tgkill
                0x00000000c0a05e00                enter_syscall_print__tkill
                0x00000000c0a05e40                exit_syscall_print__tkill
                0x00000000c0a05e80                enter_syscall_print__rt_sigqueueinfo
                0x00000000c0a05ec0                exit_syscall_print__rt_sigqueueinfo
                0x00000000c0a05f00                enter_syscall_print__rt_tgsigqueueinfo
                0x00000000c0a05f40                exit_syscall_print__rt_tgsigqueueinfo
                0x00000000c0a05f80                enter_syscall_print__sigpending
                0x00000000c0a05fc0                exit_syscall_print__sigpending
                0x00000000c0a06000                enter_syscall_print__sigprocmask
                0x00000000c0a06040                exit_syscall_print__sigprocmask
                0x00000000c0a06080                enter_syscall_print__rt_sigaction
                0x00000000c0a060c0                exit_syscall_print__rt_sigaction
                0x00000000c0a06100                enter_syscall_print__sgetmask
                0x00000000c0a06140                exit_syscall_print__sgetmask
                0x00000000c0a06180                enter_syscall_print__ssetmask
                0x00000000c0a061c0                exit_syscall_print__ssetmask
                0x00000000c0a06200                enter_syscall_print__signal
                0x00000000c0a06240                exit_syscall_print__signal
                0x00000000c0a06280                enter_syscall_print__pause
                0x00000000c0a062c0                exit_syscall_print__pause
                0x00000000c0a06300                enter_syscall_print__rt_sigsuspend
                0x00000000c0a06340                exit_syscall_print__rt_sigsuspend
                0x00000000c0a064a0                overflowuid
                0x00000000c0a064a4                overflowgid
                0x00000000c0a064a8                fs_overflowuid
                0x00000000c0a064ac                fs_overflowgid
                0x00000000c0a064b0                C_A_D
                0x00000000c0a064c0                enter_syscall_print__setpriority
                0x00000000c0a06500                exit_syscall_print__setpriority
                0x00000000c0a06540                enter_syscall_print__getpriority
                0x00000000c0a06580                exit_syscall_print__getpriority
                0x00000000c0a065c0                enter_syscall_print__reboot
                0x00000000c0a06600                exit_syscall_print__reboot
                0x00000000c0a06640                enter_syscall_print__setregid
                0x00000000c0a06680                exit_syscall_print__setregid
                0x00000000c0a066c0                enter_syscall_print__setgid
                0x00000000c0a06700                exit_syscall_print__setgid
                0x00000000c0a06740                enter_syscall_print__setreuid
                0x00000000c0a06780                exit_syscall_print__setreuid
                0x00000000c0a067c0                enter_syscall_print__setuid
                0x00000000c0a06800                exit_syscall_print__setuid
                0x00000000c0a06840                enter_syscall_print__setresuid
                0x00000000c0a06880                exit_syscall_print__setresuid
                0x00000000c0a068c0                enter_syscall_print__getresuid
                0x00000000c0a06900                exit_syscall_print__getresuid
                0x00000000c0a06940                enter_syscall_print__setresgid
                0x00000000c0a06980                exit_syscall_print__setresgid
                0x00000000c0a069c0                enter_syscall_print__getresgid
                0x00000000c0a06a00                exit_syscall_print__getresgid
                0x00000000c0a06a40                enter_syscall_print__setfsuid
                0x00000000c0a06a80                exit_syscall_print__setfsuid
                0x00000000c0a06ac0                enter_syscall_print__setfsgid
                0x00000000c0a06b00                exit_syscall_print__setfsgid
                0x00000000c0a06b40                enter_syscall_print__times
                0x00000000c0a06b80                exit_syscall_print__times
                0x00000000c0a06bc0                enter_syscall_print__setpgid
                0x00000000c0a06c00                exit_syscall_print__setpgid
                0x00000000c0a06c40                enter_syscall_print__getpgid
                0x00000000c0a06c80                exit_syscall_print__getpgid
                0x00000000c0a06cc0                enter_syscall_print__getpgrp
                0x00000000c0a06d00                exit_syscall_print__getpgrp
                0x00000000c0a06d40                enter_syscall_print__getsid
                0x00000000c0a06d80                exit_syscall_print__getsid
                0x00000000c0a06dc0                enter_syscall_print__setsid
                0x00000000c0a06e00                exit_syscall_print__setsid
                0x00000000c0a06e40                uts_sem
                0x00000000c0a06ea0                enter_syscall_print__newuname
                0x00000000c0a06ee0                exit_syscall_print__newuname
                0x00000000c0a06f20                enter_syscall_print__sethostname
                0x00000000c0a06f60                exit_syscall_print__sethostname
                0x00000000c0a06fa0                enter_syscall_print__gethostname
                0x00000000c0a06fe0                exit_syscall_print__gethostname
                0x00000000c0a07020                enter_syscall_print__setdomainname
                0x00000000c0a07060                exit_syscall_print__setdomainname
                0x00000000c0a070a0                enter_syscall_print__getrlimit
                0x00000000c0a070e0                exit_syscall_print__getrlimit
                0x00000000c0a07120                enter_syscall_print__old_getrlimit
                0x00000000c0a07160                exit_syscall_print__old_getrlimit
                0x00000000c0a071a0                enter_syscall_print__setrlimit
                0x00000000c0a071e0                exit_syscall_print__setrlimit
                0x00000000c0a07220                enter_syscall_print__getrusage
                0x00000000c0a07260                exit_syscall_print__getrusage
                0x00000000c0a072a0                enter_syscall_print__umask
                0x00000000c0a072e0                exit_syscall_print__umask
                0x00000000c0a07320                enter_syscall_print__prctl
                0x00000000c0a07360                exit_syscall_print__prctl
                0x00000000c0a073a0                enter_syscall_print__getcpu
                0x00000000c0a073e0                exit_syscall_print__getcpu
                0x00000000c0a07420                poweroff_cmd
                0x00000000c0a07740                modprobe_path
                0x00000000c0a079c0                init_struct_pid
                0x00000000c0a079ec                pid_max
                0x00000000c0a079f0                pid_max_min
                0x00000000c0a079f4                pid_max_max
                0x00000000c0a07a00                init_pid_ns
                0x00000000c0a07a2c                rcu_lock_map
                0x00000000c0a07a40                text_mutex
                0x00000000c0a07a90                module_ktype
                0x00000000c0a07ac0                enter_syscall_print__timer_create
                0x00000000c0a07b00                exit_syscall_print__timer_create
                0x00000000c0a07b40                enter_syscall_print__timer_gettime
                0x00000000c0a07b80                exit_syscall_print__timer_gettime
                0x00000000c0a07bc0                enter_syscall_print__timer_getoverrun
                0x00000000c0a07c00                exit_syscall_print__timer_getoverrun
                0x00000000c0a07c40                enter_syscall_print__timer_settime
                0x00000000c0a07c80                exit_syscall_print__timer_settime
                0x00000000c0a07cc0                enter_syscall_print__timer_delete
                0x00000000c0a07d00                exit_syscall_print__timer_delete
                0x00000000c0a07d40                enter_syscall_print__clock_settime
                0x00000000c0a07d80                exit_syscall_print__clock_settime
                0x00000000c0a07dc0                enter_syscall_print__clock_gettime
                0x00000000c0a07e00                exit_syscall_print__clock_gettime
                0x00000000c0a07e40                enter_syscall_print__clock_getres
                0x00000000c0a07e80                exit_syscall_print__clock_getres
                0x00000000c0a07ec0                enter_syscall_print__clock_nanosleep
                0x00000000c0a07f00                exit_syscall_print__clock_nanosleep
                0x00000000c0a08080                enter_syscall_print__nanosleep
                0x00000000c0a080c0                exit_syscall_print__nanosleep
                0x00000000c0a0810c                init_nsproxy
                0x00000000c0a08140                reboot_notifier_list
                0x00000000c0a08540                init_cred
                0x00000000c0a086c0                init_groups
                0x00000000c0a08760                enter_syscall_print__getgroups
                0x00000000c0a087a0                exit_syscall_print__getgroups
                0x00000000c0a087e0                enter_syscall_print__setgroups
                0x00000000c0a08820                exit_syscall_print__setgroups
                0x00000000c0a08aa0                tick_usec
                0x00000000c0a08aa4                time_status
                0x00000000c0a08aa8                time_maxerror
                0x00000000c0a08aac                time_esterror
                0x00000000c0a08d00                clocksource_jiffies
                0x00000000c0a08da0                tick_device_lock
                0x00000000c0a08ec0                prove_locking
                0x00000000c0a08ec4                lock_stat
                0x00000000c0a08ec8                all_lock_classes
                0x00000000c0a08fe0                enter_syscall_print__set_robust_list
                0x00000000c0a09020                exit_syscall_print__set_robust_list
                0x00000000c0a09060                enter_syscall_print__get_robust_list
                0x00000000c0a090a0                exit_syscall_print__get_robust_list
                0x00000000c0a090e0                enter_syscall_print__futex
                0x00000000c0a09120                exit_syscall_print__futex
                0x00000000c0a0919c                max_lock_depth
                0x00000000c0a09260                dma_spin_lock
                0x00000000c0a092e0                enter_syscall_print__chown16
                0x00000000c0a09320                exit_syscall_print__chown16
                0x00000000c0a09360                enter_syscall_print__lchown16
                0x00000000c0a093a0                exit_syscall_print__lchown16
                0x00000000c0a093e0                enter_syscall_print__fchown16
                0x00000000c0a09420                exit_syscall_print__fchown16
                0x00000000c0a09460                enter_syscall_print__setregid16
                0x00000000c0a094a0                exit_syscall_print__setregid16
                0x00000000c0a094e0                enter_syscall_print__setgid16
                0x00000000c0a09520                exit_syscall_print__setgid16
                0x00000000c0a09560                enter_syscall_print__setreuid16
                0x00000000c0a095a0                exit_syscall_print__setreuid16
                0x00000000c0a095e0                enter_syscall_print__setuid16
                0x00000000c0a09620                exit_syscall_print__setuid16
                0x00000000c0a09660                enter_syscall_print__setresuid16
                0x00000000c0a096a0                exit_syscall_print__setresuid16
                0x00000000c0a096e0                enter_syscall_print__getresuid16
                0x00000000c0a09720                exit_syscall_print__getresuid16
                0x00000000c0a09760                enter_syscall_print__setresgid16
                0x00000000c0a097a0                exit_syscall_print__setresgid16
                0x00000000c0a097e0                enter_syscall_print__getresgid16
                0x00000000c0a09820                exit_syscall_print__getresgid16
                0x00000000c0a09860                enter_syscall_print__setfsuid16
                0x00000000c0a098a0                exit_syscall_print__setfsuid16
                0x00000000c0a098e0                enter_syscall_print__setfsgid16
                0x00000000c0a09920                exit_syscall_print__setfsgid16
                0x00000000c0a09960                enter_syscall_print__getgroups16
                0x00000000c0a099a0                exit_syscall_print__getgroups16
                0x00000000c0a099e0                enter_syscall_print__setgroups16
                0x00000000c0a09a20                exit_syscall_print__setgroups16
                0x00000000c0a09a60                enter_syscall_print__getuid16
                0x00000000c0a09aa0                exit_syscall_print__getuid16
                0x00000000c0a09ae0                enter_syscall_print__geteuid16
                0x00000000c0a09b20                exit_syscall_print__geteuid16
                0x00000000c0a09b60                enter_syscall_print__getgid16
                0x00000000c0a09ba0                exit_syscall_print__getgid16
                0x00000000c0a09be0                enter_syscall_print__getegid16
                0x00000000c0a09c20                exit_syscall_print__getegid16
                0x00000000c0a09d60                module_mutex
                0x00000000c0a09dc0                enter_syscall_print__delete_module
                0x00000000c0a09e00                exit_syscall_print__delete_module
                0x00000000c0a09e40                enter_syscall_print__init_module
                0x00000000c0a09e80                exit_syscall_print__init_module
                0x00000000c0a0a160                pm_mutex
                0x00000000c0a0a39c                image_size
                0x00000000c0a0a3c0                snapshot_device_available
                0x00000000c0a0a480                acct_parm
                0x00000000c0a0a4a0                enter_syscall_print__acct
                0x00000000c0a0a4e0                exit_syscall_print__acct
                0x00000000c0a0a560                vmcoreinfo_max_size
                0x00000000c0a0a580                crashk_res
                0x00000000c0a0a5c0                enter_syscall_print__kexec_load
                0x00000000c0a0a600                exit_syscall_print__kexec_load
                0x00000000c0a0a6c0                cgroup_rmdir_waitq
                0x00000000c0a0aca0                freezer_subsys
                0x00000000c0a0ae20                cpuset_subsys
                0x00000000c0a0b6c0                ns_subsys
                0x00000000c0a0bb20                audit_sig_uid
                0x00000000c0a0bb24                audit_sig_pid
                0x00000000c0a0bb40                audit_cmd_mutex
                0x00000000c0a0bd20                audit_filter_list
                0x00000000c0a0bd60                audit_filter_mutex
                0x00000000c0a0bf00                kgdb_active
                0x00000000c0a0bf04                kgdb_cpu_doing_single_step
                0x00000000c0a0c000                nr_irqs
                0x00000000c0a0c020                sparse_irq_lock
                0x00000000c0a0c060                no_irq_chip
                0x00000000c0a0c0c0                dummy_irq_chip
                0x00000000c0a0c2a0                rcu_sched_state
                0x00000000c0a0c420                rcu_bh_state
                0x00000000c0a0c8c0                tracepoint_module_nb
                0x00000000c0a0c9a0                trace_flags
                0x00000000c0a0cb60                trace_event_mutex
                0x00000000c0a0d000                blk_trace_attr_group
                0x00000000c0a0d160                event_mutex
                0x00000000c0a0d1b0                ftrace_events
                0x00000000c0a0d1e0                event_syscall_enter
                0x00000000c0a0d220                event_syscall_exit
                0x00000000c0a0d400                slow_work_sysctls
                0x00000000c0a0d4b0                slow_work_queue
                0x00000000c0a0d4b8                vslow_work_queue
                0x00000000c0a0d4c0                slow_work_queue_lock
                0x00000000c0a0d7c0                enter_syscall_print__perf_event_open
                0x00000000c0a0d800                exit_syscall_print__perf_event_open
 .data          0x00000000c0a0d8c0     0x29b0 mm/built-in.o
                0x00000000c0a0d960                sysctl_lowmem_reserve_ratio
                0x00000000c0a0d96c                min_free_kbytes
                0x00000000c0a0da20                dirty_background_ratio
                0x00000000c0a0da24                vm_dirty_ratio
                0x00000000c0a0da28                dirty_writeback_interval
                0x00000000c0a0da2c                dirty_expire_interval
                0x00000000c0a0daa0                vm_swappiness
                0x00000000c0a0dc20                enter_syscall_print__mmap_pgoff
                0x00000000c0a0dc60                exit_syscall_print__mmap_pgoff
                0x00000000c0a0dfc0                default_backing_dev_info
                0x00000000c0a0e160                bdi_lock
                0x00000000c0a0e184                bdi_list
                0x00000000c0a0e18c                bdi_pending_list
                0x00000000c0a0e260                enter_syscall_print__remap_file_pages
                0x00000000c0a0e2a0                exit_syscall_print__remap_file_pages
                0x00000000c0a0e360                enter_syscall_print__madvise
                0x00000000c0a0e3a0                exit_syscall_print__madvise
                0x00000000c0a0e3e0                enter_syscall_print__mincore
                0x00000000c0a0e420                exit_syscall_print__mincore
                0x00000000c0a0e460                enter_syscall_print__mlock
                0x00000000c0a0e4a0                exit_syscall_print__mlock
                0x00000000c0a0e4e0                enter_syscall_print__munlock
                0x00000000c0a0e520                exit_syscall_print__munlock
                0x00000000c0a0e560                enter_syscall_print__mlockall
                0x00000000c0a0e5a0                exit_syscall_print__mlockall
                0x00000000c0a0e5e0                enter_syscall_print__munlockall
                0x00000000c0a0e620                exit_syscall_print__munlockall
                0x00000000c0a0e6c0                protection_map
                0x00000000c0a0e740                sysctl_overcommit_ratio
                0x00000000c0a0e760                enter_syscall_print__brk
                0x00000000c0a0e7a0                exit_syscall_print__brk
                0x00000000c0a0e7e0                enter_syscall_print__munmap
                0x00000000c0a0e820                exit_syscall_print__munmap
                0x00000000c0a0e8e0                enter_syscall_print__mprotect
                0x00000000c0a0e920                exit_syscall_print__mprotect
                0x00000000c0a0e960                enter_syscall_print__mremap
                0x00000000c0a0e9a0                exit_syscall_print__mremap
                0x00000000c0a0ea00                enter_syscall_print__msync
                0x00000000c0a0ea40                exit_syscall_print__msync
                0x00000000c0a0ea80                vmlist_lock
                0x00000000c0a0eb80                init_mm
                0x00000000c0a0ede0                swapper_space
                0x00000000c0a0f040                enter_syscall_print__swapoff
                0x00000000c0a0f080                exit_syscall_print__swapoff
                0x00000000c0a0f0c0                enter_syscall_print__swapon
                0x00000000c0a0f100                exit_syscall_print__swapon
                0x00000000c0a0f42c                shmem_acl_ops
                0x00000000c0a0f434                shmem_xattr_acl_access_handler
                0x00000000c0a0f444                shmem_xattr_acl_default_handler
                0x00000000c0a0f660                malloc_sizes
                0x00000000c0a0faa0                memcg_stat_strings
 *fill*         0x00000000c0a10270       0x10 00
 .data          0x00000000c0a10280     0x6d1c fs/built-in.o
                0x00000000c0a10280                enter_syscall_print__statfs
                0x00000000c0a102c0                exit_syscall_print__statfs
                0x00000000c0a10300                enter_syscall_print__statfs64
                0x00000000c0a10340                exit_syscall_print__statfs64
                0x00000000c0a10380                enter_syscall_print__fstatfs
                0x00000000c0a103c0                exit_syscall_print__fstatfs
                0x00000000c0a10400                enter_syscall_print__fstatfs64
                0x00000000c0a10440                exit_syscall_print__fstatfs64
                0x00000000c0a10480                enter_syscall_print__truncate
                0x00000000c0a104c0                exit_syscall_print__truncate
                0x00000000c0a10500                enter_syscall_print__ftruncate
                0x00000000c0a10540                exit_syscall_print__ftruncate
                0x00000000c0a10580                enter_syscall_print__faccessat
                0x00000000c0a105c0                exit_syscall_print__faccessat
                0x00000000c0a10600                enter_syscall_print__access
                0x00000000c0a10640                exit_syscall_print__access
                0x00000000c0a10680                enter_syscall_print__chdir
                0x00000000c0a106c0                exit_syscall_print__chdir
                0x00000000c0a10700                enter_syscall_print__fchdir
                0x00000000c0a10740                exit_syscall_print__fchdir
                0x00000000c0a10780                enter_syscall_print__chroot
                0x00000000c0a107c0                exit_syscall_print__chroot
                0x00000000c0a10800                enter_syscall_print__fchmod
                0x00000000c0a10840                exit_syscall_print__fchmod
                0x00000000c0a10880                enter_syscall_print__fchmodat
                0x00000000c0a108c0                exit_syscall_print__fchmodat
                0x00000000c0a10900                enter_syscall_print__chmod
                0x00000000c0a10940                exit_syscall_print__chmod
                0x00000000c0a10980                enter_syscall_print__chown
                0x00000000c0a109c0                exit_syscall_print__chown
                0x00000000c0a10a00                enter_syscall_print__fchownat
                0x00000000c0a10a40                exit_syscall_print__fchownat
                0x00000000c0a10a80                enter_syscall_print__lchown
                0x00000000c0a10ac0                exit_syscall_print__lchown
                0x00000000c0a10b00                enter_syscall_print__fchown
                0x00000000c0a10b40                exit_syscall_print__fchown
                0x00000000c0a10b80                enter_syscall_print__open
                0x00000000c0a10bc0                exit_syscall_print__open
                0x00000000c0a10c00                enter_syscall_print__openat
                0x00000000c0a10c40                exit_syscall_print__openat
                0x00000000c0a10c80                enter_syscall_print__creat
                0x00000000c0a10cc0                exit_syscall_print__creat
                0x00000000c0a10d00                enter_syscall_print__close
                0x00000000c0a10d40                exit_syscall_print__close
                0x00000000c0a10d80                enter_syscall_print__vhangup
                0x00000000c0a10dc0                exit_syscall_print__vhangup
                0x00000000c0a10fa0                enter_syscall_print__lseek
                0x00000000c0a10fe0                exit_syscall_print__lseek
                0x00000000c0a11020                enter_syscall_print__llseek
                0x00000000c0a11060                exit_syscall_print__llseek
                0x00000000c0a110a0                enter_syscall_print__read
                0x00000000c0a110e0                exit_syscall_print__read
                0x00000000c0a11120                enter_syscall_print__write
                0x00000000c0a11160                exit_syscall_print__write
                0x00000000c0a111a0                enter_syscall_print__readv
                0x00000000c0a111e0                exit_syscall_print__readv
                0x00000000c0a11220                enter_syscall_print__writev
                0x00000000c0a11260                exit_syscall_print__writev
                0x00000000c0a112a0                enter_syscall_print__preadv
                0x00000000c0a112e0                exit_syscall_print__preadv
                0x00000000c0a11320                enter_syscall_print__pwritev
                0x00000000c0a11360                exit_syscall_print__pwritev
                0x00000000c0a113a0                enter_syscall_print__sendfile
                0x00000000c0a113e0                exit_syscall_print__sendfile
                0x00000000c0a11420                enter_syscall_print__sendfile64
                0x00000000c0a11460                exit_syscall_print__sendfile64
                0x00000000c0a115b4                files_stat
                0x00000000c0a115c0                super_blocks
                0x00000000c0a115e0                sb_lock
                0x00000000c0a11620                enter_syscall_print__ustat
                0x00000000c0a11660                exit_syscall_print__ustat
                0x00000000c0a11740                directly_mappable_cdev_bdi
                0x00000000c0a119a0                enter_syscall_print__stat
                0x00000000c0a119e0                exit_syscall_print__stat
                0x00000000c0a11a20                enter_syscall_print__lstat
                0x00000000c0a11a60                exit_syscall_print__lstat
                0x00000000c0a11aa0                enter_syscall_print__fstat
                0x00000000c0a11ae0                exit_syscall_print__fstat
                0x00000000c0a11b20                enter_syscall_print__newstat
                0x00000000c0a11b60                exit_syscall_print__newstat
                0x00000000c0a11ba0                enter_syscall_print__newlstat
                0x00000000c0a11be0                exit_syscall_print__newlstat
                0x00000000c0a11c20                enter_syscall_print__newfstat
                0x00000000c0a11c60                exit_syscall_print__newfstat
                0x00000000c0a11ca0                enter_syscall_print__readlinkat
                0x00000000c0a11ce0                exit_syscall_print__readlinkat
                0x00000000c0a11d20                enter_syscall_print__readlink
                0x00000000c0a11d60                exit_syscall_print__readlink
                0x00000000c0a11da0                enter_syscall_print__stat64
                0x00000000c0a11de0                exit_syscall_print__stat64
                0x00000000c0a11e20                enter_syscall_print__lstat64
                0x00000000c0a11e60                exit_syscall_print__lstat64
                0x00000000c0a11ea0                enter_syscall_print__fstat64
                0x00000000c0a11ee0                exit_syscall_print__fstat64
                0x00000000c0a11f20                enter_syscall_print__fstatat64
                0x00000000c0a11f60                exit_syscall_print__fstatat64
                0x00000000c0a12080                core_pattern
                0x00000000c0a12100                enter_syscall_print(short,...)(long, int, bool) __restrict
                0x00000000c0a12140                exit_syscall_print(short,...)(long, int, bool) __restrict
                0x00000000c0a121c0                enter_syscall_print__pipe2
                0x00000000c0a12200                exit_syscall_print__pipe2
                0x00000000c0a12240                enter_syscall_print__pipe
                0x00000000c0a12280                exit_syscall_print__pipe
                0x00000000c0a12340                enter_syscall_print__mknodat
                0x00000000c0a12380                exit_syscall_print__mknodat
                0x00000000c0a123c0                enter_syscall_print__mknod
                0x00000000c0a12400                exit_syscall_print__mknod
                0x00000000c0a12440                enter_syscall_print__mkdirat
                0x00000000c0a12480                exit_syscall_print__mkdirat
                0x00000000c0a124c0                enter_syscall_print__mkdir
                0x00000000c0a12500                exit_syscall_print__mkdir
                0x00000000c0a12540                enter_syscall_print__rmdir
                0x00000000c0a12580                exit_syscall_print__rmdir
                0x00000000c0a125c0                enter_syscall_print__unlinkat
                0x00000000c0a12600                exit_syscall_print__unlinkat
                0x00000000c0a12640                enter_syscall_print__unlink
                0x00000000c0a12680                exit_syscall_print__unlink
                0x00000000c0a126c0                enter_syscall_print__symlinkat
                0x00000000c0a12700                exit_syscall_print__symlinkat
                0x00000000c0a12740                enter_syscall_print__symlink
                0x00000000c0a12780                exit_syscall_print__symlink
                0x00000000c0a127c0                enter_syscall_print__linkat
                0x00000000c0a12800                exit_syscall_print__linkat
                0x00000000c0a12840                enter_syscall_print__link
                0x00000000c0a12880                exit_syscall_print__link
                0x00000000c0a128c0                enter_syscall_print__renameat
                0x00000000c0a12900                exit_syscall_print__renameat
                0x00000000c0a12940                enter_syscall_print__rename
                0x00000000c0a12980                exit_syscall_print__rename
                0x00000000c0a12ac0                enter_syscall_print__dup3
                0x00000000c0a12b00                exit_syscall_print__dup3
                0x00000000c0a12b40                enter_syscall_print__dup2
                0x00000000c0a12b80                exit_syscall_print__dup2
                0x00000000c0a12bc0                enter_syscall_print(double,  *__restrict)
                0x00000000c0a12c00                exit_syscall_print(double,  *__restrict)
                0x00000000c0a12c40                enter_syscall_print__fcntl
                0x00000000c0a12c80                exit_syscall_print__fcntl
                0x00000000c0a12cc0                enter_syscall_print__fcntl64
                0x00000000c0a12d00                exit_syscall_print__fcntl64
                0x00000000c0a12de0                enter_syscall_print__ioctl
                0x00000000c0a12e20                exit_syscall_print__ioctl
                0x00000000c0a12e60                enter_syscall_print__old_readdir
                0x00000000c0a12ea0                exit_syscall_print__old_readdir
                0x00000000c0a12ee0                enter_syscall_print__getdents
                0x00000000c0a12f20                exit_syscall_print__getdents
                0x00000000c0a12f60                enter_syscall_print__getdents64
                0x00000000c0a12fa0                exit_syscall_print__getdents64
                0x00000000c0a13020                enter_syscall_print__select
                0x00000000c0a13060                exit_syscall_print__select
                0x00000000c0a130a0                enter_syscall_print__pselect6
                0x00000000c0a130e0                exit_syscall_print__pselect6
                0x00000000c0a13120                enter_syscall_print__poll
                0x00000000c0a13160                exit_syscall_print__poll
                0x00000000c0a131a0                enter_syscall_print__ppoll
                0x00000000c0a131e0                exit_syscall_print__ppoll
                0x00000000c0a132a0                dentry_stat
                0x00000000c0a132c0                enter_syscall_print__getcwd
                0x00000000c0a13300                exit_syscall_print__getcwd
                0x00000000c0a13360                inode_in_use
                0x00000000c0a13368                inode_unused
                0x00000000c0a13380                inode_lock
                0x00000000c0a13420                sysctl_nr_open_min
                0x00000000c0a13424                sysctl_nr_open_max
                0x00000000c0a13440                init_files
                0x00000000c0a13540                enter_syscall_print__sysfs
                0x00000000c0a13580                exit_syscall_print__sysfs
                0x00000000c0a13600                enter_syscall_print__umount
                0x00000000c0a13640                exit_syscall_print__umount
                0x00000000c0a13680                enter_syscall_print__oldumount
                0x00000000c0a136c0                exit_syscall_print__oldumount
                0x00000000c0a13700                enter_syscall_print__mount
                0x00000000c0a13740                exit_syscall_print__mount
                0x00000000c0a13780                enter_syscall_print__pivot_root
                0x00000000c0a137c0                exit_syscall_print__pivot_root
                0x00000000c0a138e0                enter_syscall_print__setxattr
                0x00000000c0a13920                exit_syscall_print__setxattr
                0x00000000c0a13960                enter_syscall_print__lsetxattr
                0x00000000c0a139a0                exit_syscall_print__lsetxattr
                0x00000000c0a139e0                enter_syscall_print__fsetxattr
                0x00000000c0a13a20                exit_syscall_print__fsetxattr
                0x00000000c0a13a60                enter_syscall_print__getxattr
                0x00000000c0a13aa0                exit_syscall_print__getxattr
                0x00000000c0a13ae0                enter_syscall_print__lgetxattr
                0x00000000c0a13b20                exit_syscall_print__lgetxattr
                0x00000000c0a13b60                enter_syscall_print__fgetxattr
                0x00000000c0a13ba0                exit_syscall_print__fgetxattr
                0x00000000c0a13be0                enter_syscall_print__listxattr
                0x00000000c0a13c20                exit_syscall_print__listxattr
                0x00000000c0a13c60                enter_syscall_print__llistxattr
                0x00000000c0a13ca0                exit_syscall_print__llistxattr
                0x00000000c0a13ce0                enter_syscall_print__flistxattr
                0x00000000c0a13d20                exit_syscall_print__flistxattr
                0x00000000c0a13d60                enter_syscall_print__removexattr
                0x00000000c0a13da0                exit_syscall_print__removexattr
                0x00000000c0a13de0                enter_syscall_print__lremovexattr
                0x00000000c0a13e20                exit_syscall_print__lremovexattr
                0x00000000c0a13e60                enter_syscall_print__fremovexattr
                0x00000000c0a13ea0                exit_syscall_print__fremovexattr
                0x00000000c0a140a0                enter_syscall_print__vmsplice
                0x00000000c0a140e0                exit_syscall_print__vmsplice
                0x00000000c0a14120                enter_syscall_print(short, long *, int, char,...)
                0x00000000c0a14160                exit_syscall_print(short, long *, int, char,...)
                0x00000000c0a141a0                enter_syscall_print__tee
                0x00000000c0a141e0                exit_syscall_print__tee
                0x00000000c0a14280                enter_syscall_print__sync
                0x00000000c0a142c0                exit_syscall_print__sync
                0x00000000c0a14300                enter_syscall_print__fsync
                0x00000000c0a14340                exit_syscall_print__fsync
                0x00000000c0a14380                enter_syscall_print__fdatasync
                0x00000000c0a143c0                exit_syscall_print__fdatasync
                0x00000000c0a14460                enter_syscall_print__utime
                0x00000000c0a144a0                exit_syscall_print__utime
                0x00000000c0a144e0                enter_syscall_print__utimensat
                0x00000000c0a14520                exit_syscall_print__utimensat
                0x00000000c0a14560                enter_syscall_print__futimesat
                0x00000000c0a145a0                exit_syscall_print__futimesat
                0x00000000c0a145e0                enter_syscall_print__utimes
                0x00000000c0a14620                exit_syscall_print__utimes
                0x00000000c0a146a0                init_fs
                0x00000000c0a146e0                enter_syscall_print__bdflush
                0x00000000c0a14720                exit_syscall_print__bdflush
                0x00000000c0a148c0                enter_syscall_print__ioprio_set
                0x00000000c0a14900                exit_syscall_print__ioprio_set
                0x00000000c0a14940                enter_syscall_print__ioprio_get
                0x00000000c0a14980                exit_syscall_print__ioprio_get
                0x00000000c0a149e0                fsnotify_groups
                0x00000000c0a14ae0                inotify_table
                0x00000000c0a14ba0                enter_syscall_print__inotify_init1
                0x00000000c0a14be0                exit_syscall_print__inotify_init1
                0x00000000c0a14c20                enter_syscall_print__inotify_init
                0x00000000c0a14c60                exit_syscall_print__inotify_init
                0x00000000c0a14ca0                enter_syscall_print__inotify_add_watch
                0x00000000c0a14ce0                exit_syscall_print__inotify_add_watch
                0x00000000c0a14d20                enter_syscall_print__inotify_rm_watch
                0x00000000c0a14d60                exit_syscall_print__inotify_rm_watch
                0x00000000c0a14e20                epoll_table
                0x00000000c0a14e80                enter_syscall_print__epoll_create1
                0x00000000c0a14ec0                exit_syscall_print__epoll_create1
                0x00000000c0a14f00                enter_syscall_print__epoll_create
                0x00000000c0a14f40                exit_syscall_print__epoll_create
                0x00000000c0a14f80                enter_syscall_print__epoll_ctl
                0x00000000c0a14fc0                exit_syscall_print__epoll_ctl
                0x00000000c0a15000                enter_syscall_print__epoll_wait
                0x00000000c0a15040                exit_syscall_print__epoll_wait
                0x00000000c0a15080                enter_syscall_print__epoll_pwait
                0x00000000c0a150c0                exit_syscall_print__epoll_pwait
                0x00000000c0a15240                enter_syscall_print__signalfd4
                0x00000000c0a15280                exit_syscall_print__signalfd4
                0x00000000c0a152c0                enter_syscall_print__signalfd
                0x00000000c0a15300                exit_syscall_print__signalfd
                0x00000000c0a15360                enter_syscall_print__timerfd_create
                0x00000000c0a153a0                exit_syscall_print__timerfd_create
                0x00000000c0a153e0                enter_syscall_print__timerfd_settime
                0x00000000c0a15420                exit_syscall_print__timerfd_settime
                0x00000000c0a15460                enter_syscall_print__timerfd_gettime
                0x00000000c0a154a0                exit_syscall_print__timerfd_gettime
                0x00000000c0a15520                enter_syscall_print__eventfd2
                0x00000000c0a15560                exit_syscall_print__eventfd2
                0x00000000c0a155a0                enter_syscall_print__eventfd
                0x00000000c0a155e0                exit_syscall_print__eventfd
                0x00000000c0a15620                aio_max_nr
                0x00000000c0a15640                enter_syscall_print__io_setup
                0x00000000c0a15680                exit_syscall_print__io_setup
                0x00000000c0a156c0                enter_syscall_print__io_destroy
                0x00000000c0a15700                exit_syscall_print__io_destroy
                0x00000000c0a15740                enter_syscall_print__io_submit
                0x00000000c0a15780                exit_syscall_print__io_submit
                0x00000000c0a157c0                enter_syscall_print__io_cancel
                0x00000000c0a15800                exit_syscall_print__io_cancel
                0x00000000c0a15840                enter_syscall_print__io_getevents
                0x00000000c0a15880                exit_syscall_print__io_getevents
                0x00000000c0a159e0                leases_enable
                0x00000000c0a159e4                lease_break_time
                0x00000000c0a15a00                enter_syscall_print__flock
                0x00000000c0a15a40                exit_syscall_print__flock
                0x00000000c0a15aa0                enter_syscall_print__nfsservctl
                0x00000000c0a15ae0                exit_syscall_print__nfsservctl
                0x00000000c0a15fc0                enter_syscall_print__quotactl
                0x00000000c0a16000                exit_syscall_print__quotactl
                0x00000000c0a16060                proc_root
                0x00000000c0a16140                proc_subdir_lock
                0x00000000c0a16280                warn_no_part
                0x00000000c0a16284                part_type
                0x00000000c0a165e0                sysfs_mutex
                0x00000000c0a16640                sysfs_rename_mutex
                0x00000000c0a166a0                sysfs_assoc_lock
                0x00000000c0a16760                sysfs_root
 *fill*         0x00000000c0a16f9c        0x4 00
 .data          0x00000000c0a16fa0     0x10c0 ipc/built-in.o
                0x00000000c0a16fe0                mq_lock
                0x00000000c0a17020                init_ipc_ns
                0x00000000c0a17200                nr_ipc_ns
                0x00000000c0a17220                enter_syscall_print__msgget
                0x00000000c0a17260                exit_syscall_print__msgget
                0x00000000c0a172a0                enter_syscall_print__msgctl
                0x00000000c0a172e0                exit_syscall_print__msgctl
                0x00000000c0a17320                enter_syscall_print__msgsnd
                0x00000000c0a17360                exit_syscall_print__msgsnd
                0x00000000c0a173a0                enter_syscall_print__msgrcv
                0x00000000c0a173e0                exit_syscall_print__msgrcv
                0x00000000c0a17480                enter_syscall_print__semget
                0x00000000c0a174c0                exit_syscall_print__semget
                0x00000000c0a17500                enter_syscall_print__semtimedop
                0x00000000c0a17540                exit_syscall_print__semtimedop
                0x00000000c0a17580                enter_syscall_print__semop
                0x00000000c0a175c0                exit_syscall_print__semop
                0x00000000c0a17640                enter_syscall_print__shmget
                0x00000000c0a17680                exit_syscall_print__shmget
                0x00000000c0a176c0                enter_syscall_print__shmctl
                0x00000000c0a17700                exit_syscall_print__shmctl
                0x00000000c0a17740                enter_syscall_print__shmat
                0x00000000c0a17780                exit_syscall_print__shmat
                0x00000000c0a177c0                enter_syscall_print__shmdt
                0x00000000c0a17800                exit_syscall_print__shmdt
                0x00000000c0a17ae0                enter_syscall_print__mq_open
                0x00000000c0a17b20                exit_syscall_print__mq_open
                0x00000000c0a17b60                enter_syscall_print__mq_unlink
                0x00000000c0a17ba0                exit_syscall_print__mq_unlink
                0x00000000c0a17be0                enter_syscall_print__mq_timedsend
                0x00000000c0a17c20                exit_syscall_print__mq_timedsend
                0x00000000c0a17c60                enter_syscall_print__mq_timedreceive
                0x00000000c0a17ca0                exit_syscall_print__mq_timedreceive
                0x00000000c0a17ce0                enter_syscall_print__mq_notify
                0x00000000c0a17d20                exit_syscall_print__mq_notify
                0x00000000c0a17d60                enter_syscall_print__mq_getsetattr
                0x00000000c0a17da0                exit_syscall_print__mq_getsetattr
 .data          0x00000000c0a18060     0x1f84 security/built-in.o
                0x00000000c0a18060                key_gc_delay
                0x00000000c0a18120                key_serial_lock
                0x00000000c0a18160                key_user_lock
                0x00000000c0a18184                key_quota_root_maxkeys
                0x00000000c0a18188                key_quota_root_maxbytes
                0x00000000c0a1818c                key_quota_maxkeys
                0x00000000c0a18190                key_quota_maxbytes
                0x00000000c0a181a0                key_construction_mutex
                0x00000000c0a182e0                key_type_keyring
                0x00000000c0a183c0                enter_syscall_print__add_key
                0x00000000c0a18400                exit_syscall_print__add_key
                0x00000000c0a18440                enter_syscall_print__request_key
                0x00000000c0a18480                exit_syscall_print__request_key
                0x00000000c0a184c0                enter_syscall_print__keyctl
                0x00000000c0a18500                exit_syscall_print__keyctl
                0x00000000c0a185a0                root_key_user
                0x00000000c0a18700                key_type_request_key_auth
                0x00000000c0a18740                key_type_user
                0x00000000c0a18780                key_sysctls
                0x00000000c0a18888                dac_mmap_min_addr
                0x00000000c0a188a0                default_security_ops
                0x00000000c0a18c00                avc_cache_threshold
                0x00000000c0a18ea0                selinux_enabled
                0x00000000c0a192a0                selinux_checkreqprot
                0x00000000c0a19860                devices_subsys
                0x00000000c0a19b60                ima_measurements
                0x00000000c0a19bd0                ima_hash
                0x00000000c0a19fa0                ima_iint_store
                0x00000000c0a19fc0                ima_iint_lock
 *fill*         0x00000000c0a19fe4       0x1c 00
 .data          0x00000000c0a1a000     0x8620 crypto/built-in.o
                0x00000000c0a1a000                crypto_alg_list
                0x00000000c0a1a020                crypto_alg_sem
                0x00000000c0a1a080                crypto_chain
 .data          0x00000000c0a22620      0xf74 block/built-in.o
                0x00000000c0a22b40                blk_queue_ktype
                0x00000000c0a22d20                blk_iopoll_enabled
                0x00000000c0a22d40                block_class
 .data          0x00000000c0a23594        0x0 lib/lib.a(argv_split.o)
 .data          0x00000000c0a23594        0x8 lib/lib.a(bug.o)
 .data          0x00000000c0a2359c        0x0 lib/lib.a(cmdline.o)
 .data          0x00000000c0a2359c        0x0 lib/lib.a(cpumask.o)
 *fill*         0x00000000c0a2359c        0x4 00
 .data          0x00000000c0a235a0      0x100 lib/lib.a(ctype.o)
                0x00000000c0a235a0                _ctype
 .data          0x00000000c0a236a0        0x0 lib/lib.a(dec_and_lock.o)
 .data          0x00000000c0a236a0        0x0 lib/lib.a(decompress.o)
 .data          0x00000000c0a236a0        0x0 lib/lib.a(decompress_bunzip2.o)
 .data          0x00000000c0a236a0        0x0 lib/lib.a(decompress_inflate.o)
 .data          0x00000000c0a236a0        0x0 lib/lib.a(decompress_unlzma.o)
 .data          0x00000000c0a236a0        0x0 lib/lib.a(extable.o)
 .data          0x00000000c0a236a0        0x0 lib/lib.a(find_next_bit.o)
 .data          0x00000000c0a236a0        0x0 lib/lib.a(idr.o)
 .data          0x00000000c0a236a0        0x0 lib/lib.a(int_sqrt.o)
 .data          0x00000000c0a236a0        0x0 lib/lib.a(ioremap.o)
 .data          0x00000000c0a236a0        0x0 lib/lib.a(is_single_threaded.o)
 .data          0x00000000c0a236a0       0x20 lib/lib.a(kobject.o)
                0x00000000c0a236a0                kobj_sysfs_ops
 .data          0x00000000c0a236c0      0x100 lib/lib.a(kobject_uevent.o)
                0x00000000c0a236c0                uevent_helper
 .data          0x00000000c0a237c0        0x0 lib/lib.a(kref.o)
 .data          0x00000000c0a237c0        0x0 lib/lib.a(plist.o)
 .data          0x00000000c0a237c0        0x0 lib/lib.a(prio_heap.o)
 .data          0x00000000c0a237c0        0x0 lib/lib.a(prio_tree.o)
 .data          0x00000000c0a237c0        0x0 lib/lib.a(proportions.o)
 .data          0x00000000c0a237c0        0x0 lib/lib.a(radix-tree.o)
 .data          0x00000000c0a237c0        0x0 lib/lib.a(ratelimit.o)
 .data          0x00000000c0a237c0        0x0 lib/lib.a(rbtree.o)
 .data          0x00000000c0a237c0        0x0 lib/lib.a(reciprocal_div.o)
 .data          0x00000000c0a237c0        0x0 lib/lib.a(rwsem.o)
 .data          0x00000000c0a237c0        0x0 lib/lib.a(sha1.o)
 .data          0x00000000c0a237c0        0x0 lib/lib.a(show_mem.o)
 .data          0x00000000c0a237c0        0x0 lib/lib.a(string.o)
 .data          0x00000000c0a237c0        0x0 lib/lib.a(vsprintf.o)
 .data          0x00000000c0a237c0        0x0 arch/x86/lib/lib.a(checksum_32.o)
 .data          0x00000000c0a237c0        0x4 arch/x86/lib/lib.a(delay.o)
 .data          0x00000000c0a237c4        0x0 arch/x86/lib/lib.a(getuser.o)
 .data          0x00000000c0a237c4        0x0 arch/x86/lib/lib.a(memcpy_32.o)
 .data          0x00000000c0a237c4        0x0 arch/x86/lib/lib.a(putuser.o)
 .data          0x00000000c0a237c4        0x0 arch/x86/lib/lib.a(semaphore_32.o)
 .data          0x00000000c0a237c4        0x0 arch/x86/lib/lib.a(string_32.o)
 .data          0x00000000c0a237c4        0x0 arch/x86/lib/lib.a(strstr_32.o)
 .data          0x00000000c0a237c4        0x0 arch/x86/lib/lib.a(usercopy_32.o)
 *fill*         0x00000000c0a237c4       0x1c 00
 .data          0x00000000c0a237e0      0x190 lib/built-in.o
                0x00000000c0a237e0                debug_locks
 .data          0x00000000c0a23970        0x0 arch/x86/lib/built-in.o
 *fill*         0x00000000c0a23970       0x10 00
 .data          0x00000000c0a23980    0x147a0 drivers/built-in.o
                0x00000000c0a23ac0                pci_root_buses
                0x00000000c0a23ac8                dev_attr_cpuaffinity
                0x00000000c0a23adc                dev_attr_cpulistaffinity
                0x00000000c0a23b34                pci_power_names
                0x00000000c0a23b50                pci_pm_d3_delay
                0x00000000c0a23b54                pci_domains_supported
                0x00000000c0a23b58                pci_cardbus_io_size
                0x00000000c0a23b5c                pci_cardbus_mem_size
                0x00000000c0a23b60                pci_hotplug_io_size
                0x00000000c0a23b64                pci_hotplug_mem_size
                0x00000000c0a23b68                pci_cache_line_size
                0x00000000c0a23b6c                bus_attr_resource_alignment
                0x00000000c0a23ba0                pci_bus_type
                0x00000000c0a23c78                pci_bus_sem
                0x00000000c0a23ca0                pci_bus_attrs
                0x00000000c0a23ce0                pci_dev_attrs
                0x00000000c0a23e20                vga_attr
                0x00000000c0a24020                pcie_port_bus_type
                0x00000000c0a24298                dmar_drhd_units
                0x00000000c0a242a0                dmar_rmrr_units
                0x00000000c0a242c0                unmap_timer
                0x00000000c0a242f0                dmar_disabled
                0x00000000c0a24300                intel_dma_ops
                0x00000000c0a25228                acpi_bus_event_list
                0x00000000c0a25230                acpi_bus_event_queue
                0x00000000c0a25290                acpi_device_lock
                0x00000000c0a252a4                acpi_wakeup_device_list
                0x00000000c0a252ac                acpi_bus_type
                0x00000000c0a25d9c                acpi_rs_convert_address16
                0x00000000c0a25db0                acpi_rs_convert_address32
                0x00000000c0a25dc4                acpi_rs_convert_address64
                0x00000000c0a25dd8                acpi_rs_convert_ext_address64
                0x00000000c0a25e28                acpi_gbl_set_resource_dispatch
                0x00000000c0a25e6c                acpi_gbl_get_resource_dispatch
                0x00000000c0a25edc                acpi_rs_convert_io
                0x00000000c0a25ef0                acpi_rs_convert_fixed_io
                0x00000000c0a25f00                acpi_rs_convert_generic_reg
                0x00000000c0a25f10                acpi_rs_convert_end_dpf
                0x00000000c0a25f18                acpi_rs_convert_end_tag
                0x00000000c0a25f20                acpi_rs_get_start_dpf
                0x00000000c0a25f38                acpi_rs_set_start_dpf
                0x00000000c0a25f60                acpi_rs_get_irq
                0x00000000c0a25f80                acpi_rs_set_irq
                0x00000000c0a25fb4                acpi_rs_convert_ext_irq
                0x00000000c0a25fd8                acpi_rs_convert_dma
                0x00000000c0a25ff0                acpi_rs_convert_memory24
                0x00000000c0a26000                acpi_rs_convert_memory32
                0x00000000c0a26010                acpi_rs_convert_fixed_memory32
                0x00000000c0a26020                acpi_rs_get_vendor_small
                0x00000000c0a2602c                acpi_rs_get_vendor_large
                0x00000000c0a26038                acpi_rs_set_vendor
                0x00000000c0a26054                acpi_gbl_exception_names_env
                0x00000000c0a260c4                acpi_gbl_exception_names_pgm
                0x00000000c0a260ec                acpi_gbl_exception_names_tbl
                0x00000000c0a26104                acpi_gbl_exception_names_aml
                0x00000000c0a2618c                acpi_gbl_exception_names_ctrl
                0x00000000c0a261c4                acpi_gbl_create_osi_method
                0x00000000c0a261c5                acpi_gbl_leave_wake_gpes_disabled
                0x00000000c0a261c6                acpi_gbl_use_default_register_widths
                0x00000000c0a261c8                acpi_dbg_level
                0x00000000c0a261cc                acpi_gbl_shutdown
                0x00000000c0a261d0                acpi_gbl_sleep_state_names
                0x00000000c0a261e8                acpi_gbl_lowest_dstate_names
                0x00000000c0a261fc                acpi_gbl_highest_dstate_names
                0x00000000c0a2620c                acpi_gbl_bit_register_info
                0x00000000c0a2625c                acpi_gbl_fixed_event_info
                0x00000000c0a2627c                acpi_gbl_region_types
                0x00000000c0a266f8                acpi_idle_driver
                0x00000000c0a26714                processor_cooling_ops
                0x00000000c0a26de0                pnp_global
                0x00000000c0a26df0                pnp_cards
                0x00000000c0a26e40                pnp_bus_type
                0x00000000c0a26f60                pnp_res_mutex
                0x00000000c0a26f80                pnp_interface_attrs
                0x00000000c0a27240                isapnp_protocol
                0x00000000c0a28ba0                random_table
                0x00000000c0a28e60                tty_std_termios
                0x00000000c0a28e8c                tty_drivers
                0x00000000c0a28e94                tty_mutex
                0x00000000c0a28ec0                tty_ldisc_N_TTY
                0x00000000c0a28f40                pty_limit
                0x00000000c0a29120                k_handler
                0x00000000c0a29160                kbd_sysrq_xlate
                0x00000000c0a29460                keyboard_tasklet
                0x00000000c0a29d20                dfont_unicount
                0x00000000c0a29e20                dfont_unitable
                0x00000000c0a2a080                default_utf8
                0x00000000c0a2a084                want_console
                0x00000000c0a2a088                color_table
                0x00000000c0a2a0a0                default_red
                0x00000000c0a2a0e0                default_grn
                0x00000000c0a2a120                default_blu
                0x00000000c0a2a160                con_buf_mtx
                0x00000000c0a2a260                plain_map
                0x00000000c0a2a460                shift_map
                0x00000000c0a2a660                altgr_map
                0x00000000c0a2a860                ctrl_map
                0x00000000c0a2aa60                shift_ctrl_map
                0x00000000c0a2ac60                alt_map
                0x00000000c0a2ae60                ctrl_alt_map
                0x00000000c0a2b060                key_maps
                0x00000000c0a2b460                keymap_count
                0x00000000c0a2b480                func_buf
                0x00000000c0a2b51c                funcbufptr
                0x00000000c0a2b520                funcbufsize
                0x00000000c0a2b540                func_table
                0x00000000c0a2b940                accent_table
                0x00000000c0a2c540                accent_table_size
                0x00000000c0a2c7e0                xenboot_console
                0x00000000c0a2cba0                agp_find_bridge
                0x00000000c0a2cba4                agp_bridges
                0x00000000c0a2e0c0                kcs_smi_handlers
                0x00000000c0a2e0e0                smic_smi_handlers
                0x00000000c0a2e120                bt_smi_handlers
                0x00000000c0a2e160                tpm_readpubek_header
                0x00000000c0a305c0                platform_bus
                0x00000000c0a306e0                platform_bus_type
                0x00000000c0a30760                cpu_sysdev_class
                0x00000000c0a308c8                dpm_list
                0x00000000c0a30c80                rd_size
                0x00000000c0a316c0                dev_attr_hstate
                0x00000000c0a316d4                scsi_shost_attr_group
                0x00000000c0a316e0                scsi_sysfs_shost_attr_groups
                0x00000000c0a31700                scsi_bus_type
                0x00000000c0a31c40                ata_print_id
                0x00000000c0a31c44                atapi_passthru16
                0x00000000c0a31c60                ata_dummy_port_ops
                0x00000000c0a31d60                dev_attr_link_power_management_policy
                0x00000000c0a31d74                dev_attr_unload_heads
                0x00000000c0a31d88                dev_attr_em_message
                0x00000000c0a31d9c                dev_attr_em_message_type
                0x00000000c0a31db0                dev_attr_sw_activity
                0x00000000c0a31dc4                ata_common_sdev_attrs
                0x00000000c0a31eb8                ata_acpi_gtf_filter
                0x00000000c0a31ee0                mtd_table_mutex
                0x00000000c0a32060                mtd_bdi_unmappable
                0x00000000c0a32160                mtd_bdi_ro_mappable
                0x00000000c0a32260                mtd_bdi_rw_mappable
                0x00000000c0a32420                mdio_bus_type
                0x00000000c0a3252c                loopback_net_ops
                0x00000000c0a32540                dead_socket
                0x00000000c0a3254c                pcmcia_socket_list
                0x00000000c0a32554                pcmcia_socket_list_rwsem
                0x00000000c0a32580                pcmcia_socket_class
                0x00000000c0a325e0                pccard_static_ops
                0x00000000c0a32700                pcmcia_bus_type
                0x00000000c0a32880                usbcore_name
                0x00000000c0a32884                usb_device_type
                0x00000000c0a32920                ehci_cf_port_reset_rwsem
                0x00000000c0a32a1c                usb_bus_list
                0x00000000c0a32a24                usb_bus_list_lock
                0x00000000c0a32a38                usb_kill_urb_queue
                0x00000000c0a32a6c                usb_if_device_type
                0x00000000c0a32aa0                usb_bus_type
                0x00000000c0a32b00                usb_device_groups
                0x00000000c0a32b0c                usb_interface_groups
                0x00000000c0a32fc0                usb_ep_device_type
                0x00000000c0a330e0                usbfs_mutex
                0x00000000c0a33100                usbfs_driver
                0x00000000c0a331a0                usb_generic_driver
                0x00000000c0a33200                usb_hcd_pci_pm_ops
                0x00000000c0a332a8                mon_lock
                0x00000000c0a334a0                early_dbgp_console
                0x00000000c0a33920                input_class
                0x00000000c0a34d40                __i2c_board_lock
                0x00000000c0a34d50                __i2c_board_list
                0x00000000c0a359dc                edac_op_state
                0x00000000c0a35ba0                cpufreq_gov_performance
                0x00000000c0a35be0                cpufreq_gov_userspace
                0x00000000c0a35c2c                cpufreq_freq_attr_scaling_available_freqs
                0x00000000c0a35c40                cpuidle_lock
                0x00000000c0a35c54                cpuidle_detected_devices
                0x00000000c0a35c68                cpuidle_governors
                0x00000000c0a35e30                leds_list_lock
                0x00000000c0a35e40                leds_list
 .data          0x00000000c0a38120       0xd0 arch/x86/pci/built-in.o
                0x00000000c0a38120                pcibios_max_latency
                0x00000000c0a38144                pci_direct_conf1
                0x00000000c0a3814c                pci_direct_conf2
                0x00000000c0a38180                pcibios_irq_mask
                0x00000000c0a381e0                pci_probe
                0x00000000c0a381e4                pcibios_last_bus
                0x00000000c0a381e8                pci_root_ops
 .data          0x00000000c0a381f0        0x0 arch/x86/power/built-in.o
 .data          0x00000000c0a381f0        0x0 arch/x86/video/built-in.o
 *fill*         0x00000000c0a381f0       0x10 00
 .data          0x00000000c0a38200     0x6320 net/built-in.o
                0x00000000c0a38200                enter_syscall_print__socket
                0x00000000c0a38240                exit_syscall_print__socket
                0x00000000c0a38280                enter_syscall_print__socketpair
                0x00000000c0a382c0                exit_syscall_print__socketpair
                0x00000000c0a38300                enter_syscall_print__bind
                0x00000000c0a38340                exit_syscall_print__bind
                0x00000000c0a38380                enter_syscall_print__listen
                0x00000000c0a383c0                exit_syscall_print__listen
                0x00000000c0a38400                enter_syscall_print__accept4
                0x00000000c0a38440                exit_syscall_print__accept4
                0x00000000c0a38480                enter_syscall_print__accept
                0x00000000c0a384c0                exit_syscall_print__accept
                0x00000000c0a38500                enter_syscall_print__connect
                0x00000000c0a38540                exit_syscall_print__connect
                0x00000000c0a38580                enter_syscall_print__getsockname
                0x00000000c0a385c0                exit_syscall_print__getsockname
                0x00000000c0a38600                enter_syscall_print__getpeername
                0x00000000c0a38640                exit_syscall_print__getpeername
                0x00000000c0a38680                enter_syscall_print__sendto
                0x00000000c0a386c0                exit_syscall_print__sendto
                0x00000000c0a38700                enter_syscall_print__send
                0x00000000c0a38740                exit_syscall_print__send
                0x00000000c0a38780                enter_syscall_print__recvfrom
                0x00000000c0a387c0                exit_syscall_print__recvfrom
                0x00000000c0a38800                enter_syscall_print__setsockopt
                0x00000000c0a38840                exit_syscall_print__setsockopt
                0x00000000c0a38880                enter_syscall_print__getsockopt
                0x00000000c0a388c0                exit_syscall_print__getsockopt
                0x00000000c0a38900                enter_syscall_print__shutdown
                0x00000000c0a38940                exit_syscall_print__shutdown
                0x00000000c0a38980                enter_syscall_print__sendmsg
                0x00000000c0a389c0                exit_syscall_print__sendmsg
                0x00000000c0a38a00                enter_syscall_print__recvmsg
                0x00000000c0a38a40                exit_syscall_print__recvmsg
                0x00000000c0a38a80                enter_syscall_print__socketcall
                0x00000000c0a38ac0                exit_syscall_print__socketcall
                0x00000000c0a38d8c                sysctl_max_syn_backlog
                0x00000000c0a38db0                net_namespace_list
                0x00000000c0a38de0                net_core_path
                0x00000000c0a39078                dev_base_lock
                0x00000000c0a3919c                net_ratelimit_state
                0x00000000c0a39704                sysctl_tcp_dma_copybreak
                0x00000000c0a39880                noop_qdisc
                0x00000000c0a39a20                net_cls_subsys
                0x00000000c0a39d00                nf_net_netfilter_sysctl_path
                0x00000000c0a3a4c4                ip_ra_lock
                0x00000000c0a3a4e0                tcp_prot
                0x00000000c0a3a660                tcp_death_row
                0x00000000c0a3a7a0                tcp_reno
                0x00000000c0a3a800                tcp_init_congestion_ops
                0x00000000c0a3a860                raw_prot
                0x00000000c0a3ad40                udp_prot
                0x00000000c0a3aec0                udplite_prot
                0x00000000c0a3b040                arp_tbl
                0x00000000c0a3b1a0                icmp_err_convert
                0x00000000c0a3b900                net_ipv4_ctl_path
                0x00000000c0a3c6e0                nf_net_ipv4_netfilter_sysctl_path
                0x00000000c0a3c748                cipso_v4_cache_enabled
                0x00000000c0a3c74c                cipso_v4_cache_bucketsize
                0x00000000c0a3c750                cipso_v4_rbm_strictvalid
                0x00000000c0a3cca0                xfrm_cfg_mutex
                0x00000000c0a3dec0                dsa_driver_version
 .data          0x00000000c0a3e520        0x8 lib/lib.a(klist.o)
 .data          0x00000000c0a3e528        0x0 .tmp_kallsyms3.o
 *(.ref.data)
 .ref.data      0x00000000c0a3e528        0x8 arch/x86/kernel/head_32.o
                0x00000000c0a3e528                initial_code
                0x00000000c0a3e52c                initial_page_table
 .ref.data      0x00000000c0a3e530       0x20 arch/x86/built-in.o
                0x00000000c0a3e548                x86_cpu_to_apicid_early_ptr
                0x00000000c0a3e54c                x86_bios_cpu_apicid_early_ptr
 *fill*         0x00000000c0a3e550       0x10 00
 .ref.data      0x00000000c0a3e560     0x2e20 mm/built-in.o
                0x00000000c0a3e560                contig_page_data
 .ref.data      0x00000000c0a41380      0x4b8 drivers/built-in.o
 *(.devinit.data)
 *fill*         0x00000000c0a41838        0x8 00
 .devinit.data  0x00000000c0a41840      0xddc drivers/built-in.o
 *(.devexit.data)
 *(.cpuinit.data)
 *fill*         0x00000000c0a4261c        0x4 00
 .cpuinit.data  0x00000000c0a42620      0x454 arch/x86/built-in.o
                0x00000000c0a42620                new_cpu_data
                0x00000000c0a426e0                x86_cpuinit
                0x00000000c0a426e4                trampoline_base
                0x00000000c0a429a0                cpu_caps_cleared
                0x00000000c0a429e0                cpu_caps_set
                0x00000000c0a42a28                threshold_cpu_callback
                0x00000000c0a42a60                disabled_cpus
 *fill*         0x00000000c0a42a74        0xc 00
 .cpuinit.data  0x00000000c0a42a80       0xec kernel/built-in.o
 .cpuinit.data  0x00000000c0a42b6c       0x3c mm/built-in.o
 .cpuinit.data  0x00000000c0a42ba8        0xc fs/built-in.o
 .cpuinit.data  0x00000000c0a42bb4       0x18 block/built-in.o
 .cpuinit.data  0x00000000c0a42bcc        0xc lib/lib.a(radix-tree.o)
 .cpuinit.data  0x00000000c0a42bd8        0xc lib/built-in.o
 .cpuinit.data  0x00000000c0a42be4      0xa6c drivers/built-in.o
 .cpuinit.data  0x00000000c0a43650        0xc arch/x86/pci/built-in.o
 .cpuinit.data  0x00000000c0a4365c       0x18 net/built-in.o
 *(.cpuexit.data)
 *(.meminit.data)
 .meminit.data  0x00000000c0a43674        0x8 arch/x86/built-in.o
                0x00000000c0a43674                e820_table_end
                0x00000000c0a43678                e820_table_top
 .meminit.data  0x00000000c0a4367c        0xc kernel/built-in.o
 *fill*         0x00000000c0a43688       0x18 00
 .meminit.data  0x00000000c0a436a0      0xc54 mm/built-in.o
 .meminit.data  0x00000000c0a442f4        0xc fs/built-in.o
 .meminit.data  0x00000000c0a44300        0xc ipc/built-in.o
 *(.memexit.data)
                0x00000000c0a44310                . = ALIGN (0x8)
 *fill*         0x00000000c0a4430c        0x4 00
                0x00000000c0a44310                __start___markers = .
 *(__markers)
                0x00000000c0a44310                __stop___markers = .
                0x00000000c0a44320                . = ALIGN (0x20)
 *fill*         0x00000000c0a44310       0x10 00
                0x00000000c0a44320                __start___tracepoints = .
 *(__tracepoints)
 __tracepoints  0x00000000c0a44320       0x40 arch/x86/built-in.o
                0x00000000c0a44320                __tracepoint_sys_enter
                0x00000000c0a44340                __tracepoint_sys_exit
 __tracepoints  0x00000000c0a44360      0x600 kernel/built-in.o
                0x00000000c0a44360                __tracepoint_sched_kthread_stop
                0x00000000c0a44380                __tracepoint_sched_kthread_stop_ret
                0x00000000c0a443a0                __tracepoint_sched_wait_task
                0x00000000c0a443c0                __tracepoint_sched_wakeup
                0x00000000c0a443e0                __tracepoint_sched_wakeup_new
                0x00000000c0a44400                __tracepoint_sched_switch
                0x00000000c0a44420                __tracepoint_sched_migrate_task
                0x00000000c0a44440                __tracepoint_sched_process_free
                0x00000000c0a44460                __tracepoint_sched_process_exit
                0x00000000c0a44480                __tracepoint_sched_process_wait
                0x00000000c0a444a0                __tracepoint_sched_process_fork
                0x00000000c0a444c0                __tracepoint_sched_signal_send
                0x00000000c0a444e0                __tracepoint_sched_stat_wait
                0x00000000c0a44500                __tracepoint_sched_stat_runtime
                0x00000000c0a44520                __tracepoint_sched_stat_sleep
                0x00000000c0a44540                __tracepoint_sched_stat_iowait
                0x00000000c0a44560                __tracepoint_irq_handler_entry
                0x00000000c0a44580                __tracepoint_irq_handler_exit
                0x00000000c0a445a0                __tracepoint_softirq_entry
                0x00000000c0a445c0                __tracepoint_softirq_exit
                0x00000000c0a445e0                __tracepoint_timer_init
                0x00000000c0a44600                __tracepoint_timer_start
                0x00000000c0a44620                __tracepoint_timer_expire_entry
                0x00000000c0a44640                __tracepoint_timer_expire_exit
                0x00000000c0a44660                __tracepoint_timer_cancel
                0x00000000c0a44680                __tracepoint_hrtimer_init
                0x00000000c0a446a0                __tracepoint_hrtimer_start
                0x00000000c0a446c0                __tracepoint_hrtimer_expire_entry
                0x00000000c0a446e0                __tracepoint_hrtimer_expire_exit
                0x00000000c0a44700                __tracepoint_hrtimer_cancel
                0x00000000c0a44720                __tracepoint_itimer_state
                0x00000000c0a44740                __tracepoint_itimer_expire
                0x00000000c0a44760                __tracepoint_workqueue_insertion
                0x00000000c0a44780                __tracepoint_workqueue_execution
                0x00000000c0a447a0                __tracepoint_workqueue_creation
                0x00000000c0a447c0                __tracepoint_workqueue_destruction
                0x00000000c0a447e0                __tracepoint_lock_acquire
                0x00000000c0a44800                __tracepoint_lock_release
                0x00000000c0a44820                __tracepoint_lock_contended
                0x00000000c0a44840                __tracepoint_lock_acquired
                0x00000000c0a44860                __tracepoint_module_load
                0x00000000c0a44880                __tracepoint_module_free
                0x00000000c0a448a0                __tracepoint_module_get
                0x00000000c0a448c0                __tracepoint_module_put
                0x00000000c0a448e0                __tracepoint_module_request
                0x00000000c0a44900                __tracepoint_power_start
                0x00000000c0a44920                __tracepoint_power_end
                0x00000000c0a44940                __tracepoint_power_frequency
 __tracepoints  0x00000000c0a44960      0x180 mm/built-in.o
                0x00000000c0a44960                __tracepoint_kmalloc
                0x00000000c0a44980                __tracepoint_kmem_cache_alloc
                0x00000000c0a449a0                __tracepoint_kmalloc_node
                0x00000000c0a449c0                __tracepoint_kmem_cache_alloc_node
                0x00000000c0a449e0                __tracepoint_kfree
                0x00000000c0a44a00                __tracepoint_kmem_cache_free
                0x00000000c0a44a20                __tracepoint_mm_page_free_direct
                0x00000000c0a44a40                __tracepoint_mm_pagevec_free
                0x00000000c0a44a60                __tracepoint_mm_page_alloc
                0x00000000c0a44a80                __tracepoint_mm_page_alloc_zone_locked
                0x00000000c0a44aa0                __tracepoint_mm_page_pcpu_drain
                0x00000000c0a44ac0                __tracepoint_mm_page_alloc_extfrag
 __tracepoints  0x00000000c0a44ae0      0x240 block/built-in.o
                0x00000000c0a44ae0                __tracepoint_block_rq_abort
                0x00000000c0a44b00                __tracepoint_block_rq_insert
                0x00000000c0a44b20                __tracepoint_block_rq_issue
                0x00000000c0a44b40                __tracepoint_block_rq_requeue
                0x00000000c0a44b60                __tracepoint_block_rq_complete
                0x00000000c0a44b80                __tracepoint_block_bio_bounce
                0x00000000c0a44ba0                __tracepoint_block_bio_complete
                0x00000000c0a44bc0                __tracepoint_block_bio_backmerge
                0x00000000c0a44be0                __tracepoint_block_bio_frontmerge
                0x00000000c0a44c00                __tracepoint_block_bio_queue
                0x00000000c0a44c20                __tracepoint_block_getrq
                0x00000000c0a44c40                __tracepoint_block_sleeprq
                0x00000000c0a44c60                __tracepoint_block_plug
                0x00000000c0a44c80                __tracepoint_block_unplug_timer
                0x00000000c0a44ca0                __tracepoint_block_unplug_io
                0x00000000c0a44cc0                __tracepoint_block_split
                0x00000000c0a44ce0                __tracepoint_block_remap
                0x00000000c0a44d00                __tracepoint_block_rq_remap
 __tracepoints  0x00000000c0a44d20       0x60 net/built-in.o
                0x00000000c0a44d20                __tracepoint_kfree_skb
                0x00000000c0a44d40                __tracepoint_skb_copy_datagram_iovec
                0x00000000c0a44d60                __tracepoint_napi_poll
                0x00000000c0a44d80                __stop___tracepoints = .
                0x00000000c0a44d80                . = ALIGN (0x8)
                0x00000000c0a44d80                __start___verbose = .
 *(__verbose)
 __verbose      0x00000000c0a44d80      0x3f0 arch/x86/built-in.o
 __verbose      0x00000000c0a45170      0x2b8 kernel/built-in.o
 __verbose      0x00000000c0a45428      0x210 fs/built-in.o
 __verbose      0x00000000c0a45638     0x1158 security/built-in.o
 __verbose      0x00000000c0a46790       0xf0 lib/lib.a(kobject.o)
 __verbose      0x00000000c0a46880       0x90 lib/lib.a(kobject_uevent.o)
 __verbose      0x00000000c0a46910     0x2ac0 drivers/built-in.o
 __verbose      0x00000000c0a493d0      0x198 arch/x86/pci/built-in.o
 __verbose      0x00000000c0a49568       0xf0 net/built-in.o
                0x00000000c0a49658                __stop___verbose = .
                0x00000000c0a49658                __start___trace_bprintk_fmt = .
 *(__trace_printk_fmt)
                0x00000000c0a49658                __stop___trace_bprintk_fmt = .
                0x00000000c0a49658                __start_ftrace_events = .
 *(_ftrace_events)
 _ftrace_events
                0x00000000c0a49658       0xb0 arch/x86/built-in.o
 _ftrace_events
                0x00000000c0a49708     0x6d50 kernel/built-in.o
                0x00000000c0a4fc70                event_function
                0x00000000c0a4fcc8                event_funcgraph_entry
                0x00000000c0a4fd20                event_funcgraph_exit
                0x00000000c0a4fd78                event_context_switch
                0x00000000c0a4fdd0                event_wakeup
                0x00000000c0a4fe28                event_special
                0x00000000c0a4fe80                event_kernel_stack
                0x00000000c0a4fed8                event_user_stack
                0x00000000c0a4ff30                event_bprint
                0x00000000c0a4ff88                event_print
                0x00000000c0a4ffe0                event_mmiotrace_rw
                0x00000000c0a50038                event_mmiotrace_map
                0x00000000c0a50090                event_boot_call
                0x00000000c0a500e8                event_boot_ret
                0x00000000c0a50140                event_branch
                0x00000000c0a50198                event_hw_branch
                0x00000000c0a501f0                event_kmem_alloc
                0x00000000c0a50248                event_kmem_free
 _ftrace_events
                0x00000000c0a50458      0xe70 mm/built-in.o
 _ftrace_events
                0x00000000c0a512c8     0x5960 fs/built-in.o
 _ftrace_events
                0x00000000c0a56c28      0xbb0 ipc/built-in.o
 _ftrace_events
                0x00000000c0a577d8      0x210 security/built-in.o
 _ftrace_events
                0x00000000c0a579e8      0x630 block/built-in.o
 _ftrace_events
                0x00000000c0a58018      0xd10 net/built-in.o
                0x00000000c0a58d28                __stop_ftrace_events = .
                0x00000000c0a58d28                __start_syscalls_metadata = .
 *(__syscalls_metadata)
 __syscalls_metadata
                0x00000000c0a58d28      0xfc0 kernel/built-in.o
 __syscalls_metadata
                0x00000000c0a59ce8      0x1e0 mm/built-in.o
 __syscalls_metadata
                0x00000000c0a59ec8     0x1040 fs/built-in.o
 __syscalls_metadata
                0x00000000c0a5af08      0x220 ipc/built-in.o
 __syscalls_metadata
                0x00000000c0a5b128       0x60 security/built-in.o
 __syscalls_metadata
                0x00000000c0a5b188      0x240 net/built-in.o
                0x00000000c0a5b3c8                __stop_syscalls_metadata = .
                0x00000000c0a5b400                . = ALIGN (0x40)
 *fill*         0x00000000c0a5b3c8       0x38 00
 *(.data.read_mostly)
 .data.read_mostly
                0x00000000c0a5b400        0x8 init/built-in.o
                0x00000000c0a5b400                nr_cpu_ids
                0x00000000c0a5b404                system_state
 *fill*         0x00000000c0a5b408       0x18 00
 .data.read_mostly
                0x00000000c0a5b420      0x574 arch/x86/built-in.o
                0x00000000c0a5b4a0                boot_cpu_data
                0x00000000c0a5b560                boot_cpu_id
                0x00000000c0a5b568                panic_on_overflow
                0x00000000c0a5b56c                force_iommu
                0x00000000c0a5b570                iommu_merge
                0x00000000c0a5b574                iommu_detected
                0x00000000c0a5b578                bad_dma_address
                0x00000000c0a5b588                no_iommu
                0x00000000c0a5b58c                iommu_pass_through
                0x00000000c0a5b598                cpu_khz
                0x00000000c0a5b59c                tsc_khz
                0x00000000c0a5b5a0                io_delay_type
                0x00000000c0a5b5a8                tboot
                0x00000000c0a5b77c                mce_disabled
                0x00000000c0a5b780                mce_cmci_disabled
                0x00000000c0a5b784                mce_ignore_ce
                0x00000000c0a5b788                mce_ser
                0x00000000c0a5b78c                mce_banks
                0x00000000c0a5b7e0                cpu_2_logical_apicid
                0x00000000c0a5b800                __per_cpu_offset
                0x00000000c0a5b968                __vmalloc_start_set
                0x00000000c0a5b970                __supported_pte_mask
                0x00000000c0a5b980                pat_enabled
                0x00000000c0a5b990                vdso_enabled
 *fill*         0x00000000c0a5b994        0xc 00
 .data.read_mostly
                0x00000000c0a5b9a0      0xef0 kernel/built-in.o
                0x00000000c0a5b9a0                sysctl_sched_features
                0x00000000c0a5b9a4                sysctl_sched_nr_migrate
                0x00000000c0a5b9a8                sysctl_sched_time_avg
                0x00000000c0a5b9ac                sysctl_sched_migration_cost
                0x00000000c0a5b9b0                sysctl_timer_migration
                0x00000000c0a5ba2c                sysctl_sched_child_runs_first
                0x00000000c0a5ba30                sysctl_sched_compat_yield
                0x00000000c0a5ba3c                printk_delay_msec
                0x00000000c0a5ba60                rcu_scheduler_active
                0x00000000c0a5ba6c                sched_clock_stable
                0x00000000c0a5ba74                prof_on
                0x00000000c0a5ba80                timekeeping_suspended
                0x00000000c0a5ba84                no_sync_cmos_clock
                0x00000000c0a5ba88                tick_do_timer_cpu
                0x00000000c0a5c2a0                timer_stats_active
                0x00000000c0a5c2a4                futex_cmpxchg_enabled
                0x00000000c0a5c2b0                number_of_cpusets
                0x00000000c0a5c2b4                cpuset_memory_pressure_enabled
                0x00000000c0a5c2b8                softlockup_thresh
                0x00000000c0a5c2bc                softlockup_panic
                0x00000000c0a5c2c4                sysctl_hung_task_check_count
                0x00000000c0a5c2c8                sysctl_hung_task_timeout_secs
                0x00000000c0a5c2cc                sysctl_hung_task_warnings
                0x00000000c0a5c2d0                sysctl_hung_task_panic
                0x00000000c0a5c2d8                irq_desc_ptrs
                0x00000000c0a5c2e0                noirqdebug
                0x00000000c0a5c2e4                delayacct_on
                0x00000000c0a5c338                tracing_max_latency
                0x00000000c0a5c33c                tracing_thresh
                0x00000000c0a5c340                tracing_selftest_disabled
                0x00000000c0a5c6e0                nop_trace
                0x00000000c0a5c740                boot_tracer
                0x00000000c0a5c868                perf_max_events
                0x00000000c0a5c86c                sysctl_perf_event_paranoid
                0x00000000c0a5c870                sysctl_perf_event_mlock
                0x00000000c0a5c874                sysctl_perf_event_sample_rate
 *fill*         0x00000000c0a5c890       0x10 00
 .data.read_mostly
                0x00000000c0a5c8a0      0x348 mm/built-in.o
                0x00000000c0a5c8a0                node_states
                0x00000000c0a5c8b4                gfp_allowed_mask
                0x00000000c0a5c8b8                page_group_by_mobility_disabled
                0x00000000c0a5c8bc                totalram_pages
                0x00000000c0a5c8c0                totalreserve_pages
                0x00000000c0a5c8c4                oom_killer_disabled
                0x00000000c0a5ca6c                sysctl_stat_interval
                0x00000000c0a5ca70                totalhigh_pages
                0x00000000c0a5ca74                randomize_va_space
                0x00000000c0a5ca78                highest_memmap_pfn
                0x00000000c0a5ca7c                zero_pfn
                0x00000000c0a5ca80                sysctl_max_map_count
                0x00000000c0a5cac0                pcpu_base_addr
                0x00000000c0a5cac4                pcpu_unit_offsets
                0x00000000c0a5cae0                mem_cgroup_subsys
                0x00000000c0a5cbe0                do_swap_account
                0x00000000c0a5cbe4                root_mem_cgroup
 *fill*         0x00000000c0a5cbe8       0x18 00
 .data.read_mostly
                0x00000000c0a5cc00      0x148 fs/built-in.o
                0x00000000c0a5cc0c                sysctl_vfs_cache_pressure
                0x00000000c0a5cc20                names_cachep
                0x00000000c0a5cc34                sysctl_nr_open
                0x00000000c0a5cc40                bvec_slabs
                0x00000000c0a5cc90                blockdev_superblock
                0x00000000c0a5cca0                bip_slab
                0x00000000c0a5cd00                dir_notify_enable
                0x00000000c0a5cd20                event_priv_cachep
                0x00000000c0a5cd24                inotify_max_user_watches
 .data.read_mostly
                0x00000000c0a5cd48        0x4 security/built-in.o
 .data.read_mostly
                0x00000000c0a5cd4c        0x4 crypto/built-in.o
 .data.read_mostly
                0x00000000c0a5cd50        0x4 block/built-in.o
 .data.read_mostly
                0x00000000c0a5cd54       0x1c lib/lib.a(radix-tree.o)
 *fill*         0x00000000c0a5cd70       0x10 00
 .data.read_mostly
                0x00000000c0a5cd80       0x20 arch/x86/lib/lib.a(usercopy_32.o)
                0x00000000c0a5cd80                movsl_mask
 .data.read_mostly
                0x00000000c0a5cda0       0x1c lib/built-in.o
                0x00000000c0a5cda0                percpu_counter_batch
 *fill*         0x00000000c0a5cdbc        0x4 00
 .data.read_mostly
                0x00000000c0a5cdc0      0x378 drivers/built-in.o
                0x00000000c0a5ce80                registered_fb
                0x00000000c0a5cf00                num_registered_fb
                0x00000000c0a5d028                errata
                0x00000000c0a5d058                sfi_disabled
                0x00000000c0a5d060                xen_features
                0x00000000c0a5d12c                __sysrq_enabled
                0x00000000c0a5d134                pmtmr_ioport
 *fill*         0x00000000c0a5d138        0x8 00
 .data.read_mostly
                0x00000000c0a5d140     0x1168 net/built-in.o
                0x00000000c0a5d1e0                sysctl_wmem_max
                0x00000000c0a5d1e4                sysctl_rmem_max
                0x00000000c0a5d1e8                sysctl_wmem_default
                0x00000000c0a5d1ec                sysctl_rmem_default
                0x00000000c0a5d1f0                sysctl_optmem_max
                0x00000000c0a5d200                netdev_max_backlog
                0x00000000c0a5d204                netdev_budget
                0x00000000c0a5d208                weight_p
                0x00000000c0a5d2a8                br_handle_frame_hook
                0x00000000c0a5d2ac                macvlan_handle_frame_hook
                0x00000000c0a5d2b0                br_fdb_test_addr_hook
                0x00000000c0a5d60c                net_msg_warn
                0x00000000c0a5d620                noop_qdisc_ops
                0x00000000c0a5d680                pfifo_fast_ops
                0x00000000c0a5d740                mq_qdisc_ops
                0x00000000c0a5d800                pfifo_qdisc_ops
                0x00000000c0a5d860                bfifo_qdisc_ops
                0x00000000c0a5d900                nf_hooks
                0x00000000c0a5dc40                nf_afinfo
                0x00000000c0a5dfe4                ip_rt_acct
                0x00000000c0a5dfe8                inet_peer_threshold
                0x00000000c0a5dfec                inet_peer_minttl
                0x00000000c0a5dff0                inet_peer_maxttl
                0x00000000c0a5dff4                inet_peer_gc_mintime
                0x00000000c0a5dff8                inet_peer_gc_maxtime
                0x00000000c0a5e004                sysctl_ip_default_ttl
                0x00000000c0a5e008                sysctl_local_ports
                0x00000000c0a5e018                sysctl_tcp_fin_timeout
                0x00000000c0a5e01c                sysctl_tcp_mem
                0x00000000c0a5e028                sysctl_tcp_wmem
                0x00000000c0a5e034                sysctl_tcp_rmem
                0x00000000c0a5e040                tcp_memory_pressure
                0x00000000c0a5e044                sysctl_tcp_timestamps
                0x00000000c0a5e048                sysctl_tcp_window_scaling
                0x00000000c0a5e04c                sysctl_tcp_sack
                0x00000000c0a5e050                sysctl_tcp_fack
                0x00000000c0a5e054                sysctl_tcp_reordering
                0x00000000c0a5e058                sysctl_tcp_ecn
                0x00000000c0a5e05c                sysctl_tcp_dsack
                0x00000000c0a5e060                sysctl_tcp_app_win
                0x00000000c0a5e064                sysctl_tcp_adv_win_scale
                0x00000000c0a5e068                sysctl_tcp_max_orphans
                0x00000000c0a5e06c                sysctl_tcp_frto
                0x00000000c0a5e070                sysctl_tcp_moderate_rcvbuf
                0x00000000c0a5e074                sysctl_tcp_stdurg
                0x00000000c0a5e078                sysctl_tcp_rfc1337
                0x00000000c0a5e07c                sysctl_tcp_frto_response
                0x00000000c0a5e080                sysctl_tcp_nometrics_save
                0x00000000c0a5e084                sysctl_tcp_abc
                0x00000000c0a5e088                sysctl_tcp_retrans_collapse
                0x00000000c0a5e08c                sysctl_tcp_workaround_signed_windows
                0x00000000c0a5e090                sysctl_tcp_tso_win_divisor
                0x00000000c0a5e094                sysctl_tcp_mtu_probing
                0x00000000c0a5e098                sysctl_tcp_base_mss
                0x00000000c0a5e09c                sysctl_tcp_slow_start_after_idle
                0x00000000c0a5e0a0                sysctl_tcp_syn_retries
                0x00000000c0a5e0a4                sysctl_tcp_synack_retries
                0x00000000c0a5e0a8                sysctl_tcp_keepalive_time
                0x00000000c0a5e0ac                sysctl_tcp_keepalive_probes
                0x00000000c0a5e0b0                sysctl_tcp_keepalive_intvl
                0x00000000c0a5e0b4                sysctl_tcp_retries1
                0x00000000c0a5e0b8                sysctl_tcp_retries2
                0x00000000c0a5e0bc                sysctl_tcp_orphan_retries
                0x00000000c0a5e0c0                tcp_request_sock_ops
                0x00000000c0a5e0e0                sysctl_tcp_tw_reuse
                0x00000000c0a5e0e4                sysctl_tcp_low_latency
                0x00000000c0a5e0e8                sysctl_tcp_syncookies
                0x00000000c0a5e0ec                sysctl_tcp_abort_on_overflow
                0x00000000c0a5e0f0                sysctl_udp_mem
                0x00000000c0a5e0fc                sysctl_udp_rmem_min
                0x00000000c0a5e100                sysctl_udp_wmem_min
                0x00000000c0a5e188                inet_ehash_secret
                0x00000000c0a5e18c                sysctl_ip_nonlocal_bind
                0x00000000c0a5e190                sysctl_ip_dynaddr
                0x00000000c0a5e194                sysctl_igmp_max_memberships
                0x00000000c0a5e198                sysctl_igmp_max_msf
                0x00000000c0a5e2a8                _edata = .

.igot.plt       0x00000000c0a5e2a8        0x0 load address 0x0000000000a5e2a8
 .igot.plt      0x0000000000000000        0x0 arch/x86/kernel/head_32.o
                0x00000000c0a5f000                . = ALIGN (0x1000)

.init.begin     0x00000000c0a5f000        0x0 load address 0x0000000000a5f000
                0x00000000c0a5f000                __init_begin = .
                0x00000000c0a5f000                . = ALIGN (0x1000)

.init.text      0x00000000c0a5f000    0x37e08 load address 0x0000000000a5f000
                0x00000000c0a5f000                _sinittext = .
 *(.init.text)
 .init.text     0x00000000c0a5f000       0x11 arch/x86/kernel/head_32.o
                0x00000000c0a5f000                startup_xen
 .init.text     0x00000000c0a5f011       0xb2 arch/x86/kernel/head32.o
                0x00000000c0a5f011                i386_start_kernel
 .init.text     0x00000000c0a5f0c3       0x72 arch/x86/kernel/head.o
                0x00000000c0a5f0c3                reserve_ebda_region
 .init.text     0x00000000c0a5f135     0x334a init/built-in.o
                0x00000000c0a5f1c9                smp_setup_processor_id
                0x00000000c0a5f1ce                thread_info_cache_init
                0x00000000c0a5f215                parse_early_options
                0x00000000c0a5f561                parse_early_param
                0x00000000c0a5f597                start_kernel
                0x00000000c0a5fad4                change_floppy
                0x00000000c0a5fbf3                mount_block_root
                0x00000000c0a5fe6b                mount_root
                0x00000000c0a5feca                prepare_namespace
                0x00000000c0a60158                rd_load_image
                0x00000000c0a6075b                rd_load_disk
                0x00000000c0a60854                initrd_load
                0x00000000c0a612b7                md_run_setup
 .init.text     0x00000000c0a6247f    0x142ba arch/x86/built-in.o
                0x00000000c0a6247f                xen_start_kernel
                0x00000000c0a62bd4                xen_arch_setup
                0x00000000c0a62d6d                xen_memory_setup
                0x00000000c0a62f43                xen_init_mmu_ops
                0x00000000c0a633ff                xen_reserve_top
                0x00000000c0a63454                xen_build_dynamic_phys_to_machine
                0x00000000c0a634e6                xen_setup_kernel_pagetable
                0x00000000c0a637ee                xen_init_irq_ops
                0x00000000c0a63839                xen_time_init
                0x00000000c0a638f6                xen_smp_init
                0x00000000c0a63ae7                xen_init_debugfs
                0x00000000c0a63b1e                trap_init
                0x00000000c0a63f6a                time_init
                0x00000000c0a63f89                setup_default_timer_irq
                0x00000000c0a63f9a                hpet_time_init
                0x00000000c0a64052                reserve_standard_io_resources
                0x00000000c0a64077                i386_reserve_resources
                0x00000000c0a640e9                setup_arch
                0x00000000c0a64c6d                extend_brk
                0x00000000c0a64ccb                x86_init_uint_noop
                0x00000000c0a64cd0                x86_init_pgd_noop
                0x00000000c0a64cf2                init_IRQ
                0x00000000c0a64cfd                native_init_IRQ
                0x00000000c0a64ee2                init_ISA_irqs
                0x00000000c0a64f9a                probe_roms
                0x00000000c0a6533b                e820_all_mapped
                0x00000000c0a653e9                e820_remove_range
                0x00000000c0a655ad                e820_search_gap
                0x00000000c0a6567a                find_e820_area
                0x00000000c0a658c4                find_e820_area_size
                0x00000000c0a65bdf                e820_find_active_region
                0x00000000c0a65c71                e820_hole_size
                0x00000000c0a65e35                e820_add_region
                0x00000000c0a65e8f                e820_setup_gap
                0x00000000c0a65ee4                e820_print_map
                0x00000000c0a65f5d                setup_memory_map
                0x00000000c0a65fa4                e820_reserve_resources_late
                0x00000000c0a66070                e820_reserve_resources
                0x00000000c0a661fb                e820_register_active_regions
                0x00000000c0a665da                e820_update_range
                0x00000000c0a66610                sanitize_e820_map
                0x00000000c0a668de                default_machine_specific_memory_setup
                0x00000000c0a669ee                finish_e820_parsing
                0x00000000c0a66a53                update_e820
                0x00000000c0a66a97                early_reserve_e820
                0x00000000c0a66c30                early_res_to_bootmem
                0x00000000c0a66de9                free_early
                0x00000000c0a67156                reserve_early_overlap_ok
                0x00000000c0a671a4                reserve_early
                0x00000000c0a671fe                e820_mark_nosave_regions
                0x00000000c0a672c5                parse_e820_ext
                0x00000000c0a67443                e820_end_of_ram_pfn
                0x00000000c0a67577                e820_end_of_low_ram_pfn
                0x00000000c0a677a8                pci_iommu_alloc
                0x00000000c0a67b79                alternative_instructions
                0x00000000c0a67d32                setup_pit_timer
                0x00000000c0a67de7                no_iommu_init
                0x00000000c0a67e77                notsc_setup
                0x00000000c0a67e9a                tsc_init
                0x00000000c0a6810f                io_delay_init
                0x00000000c0a681e5                setup_trampoline_page_table
                0x00000000c0a68226                reserve_trampoline_memory
                0x00000000c0a68284                init_c1e_mask
                0x00000000c0a68554                tboot_probe
                0x00000000c0a687ab                setup_cpu_local_masks
                0x00000000c0a688bd                identify_boot_cpu
                0x00000000c0a688e0                early_cpu_init
                0x00000000c0a68a18                vmware_platform_setup
                0x00000000c0a68a53                init_hypervisor_platform
                0x00000000c0a68aa1                check_bugs
                0x00000000c0a68b8b                init_hw_perf_events
                0x00000000c0a69303                mcheck_intel_therm_init
                0x00000000c0a69413                mtrr_bp_init
                0x00000000c0a696d4                mtrr_state_warn
                0x00000000c0a69807                get_mtrr_state
                0x00000000c0a69bb4                amd_special_default_mtrr
                0x00000000c0a6a4dc                mtrr_trim_uncached_memory
                0x00000000c0a6ab37                mtrr_cleanup
                0x00000000c0a6af1c                amd_init_mtrr
                0x00000000c0a6af2d                cyrix_init_mtrr
                0x00000000c0a6af3e                centaur_init_mtrr
                0x00000000c0a6be76                acpi_probe_gsi
                0x00000000c0a6beb5                acpi_mps_check
                0x00000000c0a6c2be                acpi_pic_sci_set_trigger
                0x00000000c0a6c339                early_acpi_boot_init
                0x00000000c0a6c74c                acpi_boot_table_init
                0x00000000c0a6c81a                mp_override_legacy_irq
                0x00000000c0a6c980                mp_config_acpi_legacy_irqs
                0x00000000c0a6ca83                acpi_boot_init
                0x00000000c0a6cdc6                __acpi_unmap_table
                0x00000000c0a6cdd8                __acpi_map_table
                0x00000000c0a6ced2                acpi_reserve_bootmem
                0x00000000c0a6cfc8                mp_sfi_register_lapic_address
                0x00000000c0a6d030                sfi_platform_init
                0x00000000c0a6d6d9                early_quirks
                0x00000000c0a6dfc0                prefill_possible_map
                0x00000000c0a6e071                native_smp_prepare_boot_cpu
                0x00000000c0a6e132                native_smp_prepare_cpus
                0x00000000c0a6e46a                native_smp_cpus_done
                0x00000000c0a6e60d                setup_per_cpu_areas
                0x00000000c0a6e8b8                default_mpc_apic_id
                0x00000000c0a6e8c1                default_smp_read_mpc_oem
                0x00000000c0a6e91d                default_mpc_oem_bus_info
                0x00000000c0a6f10d                early_reserve_e820_mpc_new
                0x00000000c0a6f2d5                default_find_smp_config
                0x00000000c0a6f6ed                default_get_smp_config
                0x00000000c0a6fc2c                enable_IR
                0x00000000c0a6fd34                sync_Arb_IDs
                0x00000000c0a6fda8                verify_local_APIC
                0x00000000c0a6ff4e                init_apic_mappings
                0x00000000c0a701db                enable_IR_x2apic
                0x00000000c0a7042b                setup_boot_APIC_clock
                0x00000000c0a709a1                connect_bsp_APIC
                0x00000000c0a709e2                APIC_init_uniprocessor
                0x00000000c0a70ae8                init_bsp_APIC
                0x00000000c0a70c03                default_acpi_madt_oem_check
                0x00000000c0a70c6d                generic_mps_oem_check
                0x00000000c0a70ce0                generic_bigsmp_probe
                0x00000000c0a70d73                generic_apic_probe
                0x00000000c0a70ee3                check_nmi_watchdog
                0x00000000c0a71114                io_apic_disable_legacy
                0x00000000c0a7116c                arch_probe_nr_irqs
                0x00000000c0a7128d                io_apic_get_version
                0x00000000c0a712d4                io_apic_get_redir_entries
                0x00000000c0a71c36                arch_early_irq_init
                0x00000000c0a71d3b                enable_IO_APIC
                0x00000000c0a71e97                ioapic_insert_resources
                0x00000000c0a71ee1                ioapic_init_mappings
                0x00000000c0a72037                setup_ioapic_dest
                0x00000000c0a720e5                io_apic_get_unique_id
                0x00000000c0a72355                io_apic_unique_id
                0x00000000c0a72380                mp_register_ioapic
                0x00000000c0a72483                setup_ioapic_ids_from_mpc
                0x00000000c0a7288e                probe_nr_irqs_gsi
                0x00000000c0a72a2b                setup_IO_APIC
                0x00000000c0a73364                arch_init_kprobes
                0x00000000c0a733c3                efi_enter_virtual_mode
                0x00000000c0a73693                efi_init
                0x00000000c0a73dca                efi_reserve_early
                0x00000000c0a74121                hpet_enable
                0x00000000c0a7449c                early_is_k8_nb
                0x00000000c0a744ef                kvm_guest_init
                0x00000000c0a746d1                kvmclock_init
                0x00000000c0a74881                default_banner
                0x00000000c0a74a33                x86_mrst_early_setup
                0x00000000c0a74a4c                native_pagetable_setup_done
                0x00000000c0a74a7a                reserve_bootmem_generic
                0x00000000c0a74a84                native_pagetable_setup_start
                0x00000000c0a74b33                highmem_pfn_init
                0x00000000c0a74bc5                lowmem_pfn_init
                0x00000000c0a74c59                find_low_pfn_range
                0x00000000c0a74d9a                populate_extra_pmd
                0x00000000c0a74ea0                populate_extra_pte
                0x00000000c0a74ebe                setup_bootmem_allocator
                0x00000000c0a75004                initmem_init
                0x00000000c0a7509a                mem_init
                0x00000000c0a7535f                add_highpages_with_active_regions
                0x00000000c0a753e8                kernel_physical_mapping_init
                0x00000000c0a758f8                early_ioremap_page_table_range_init
                0x00000000c0a75922                paging_init
                0x00000000c0a75a7b                early_ioremap_reset
                0x00000000c0a75d6e                early_memremap
                0x00000000c0a75d8a                early_ioremap
                0x00000000c0a75da6                early_iounmap
                0x00000000c0a75f03                early_ioremap_init
                0x00000000c0a7617d                reserve_top_address
                0x00000000c0a761b6                set_nx
                0x00000000c0a7632d                set_highmem_pages_init
                0x00000000c0a763ea                kmemcheck_init
                0x00000000c0a7645d                sysenter_setup
 .init.text     0x00000000c0a76739     0x448c kernel/built-in.o
                0x00000000c0a767f0                sched_create_sysfs_power_savings_entries
                0x00000000c0a76849                sched_init
                0x00000000c0a76ccc                sched_init_smp
                0x00000000c0a76e5c                proc_caches_init
                0x00000000c0a76f4a                fork_init
                0x00000000c0a77318                softirq_init
                0x00000000c0a7773a                reserve_region_with_split
                0x00000000c0a777c5                init_timers
                0x00000000c0a778ae                signals_init
                0x00000000c0a778de                usermodehelper_init
                0x00000000c0a7791b                init_workqueues
                0x00000000c0a77995                pidhash_init
                0x00000000c0a779f9                pidmap_init
                0x00000000c0a77a3e                rcu_init
                0x00000000c0a77ab4                sort_main_extable
                0x00000000c0a77f40                hrtimers_init
                0x00000000c0a780fb                cred_init
                0x00000000c0a781a1                timekeeping_init
                0x00000000c0a782f4                ntp_init
                0x00000000c0a7842b                clocksource_default_clock
                0x00000000c0a78474                tick_init
                0x00000000c0a784f8                init_timer_stats
                0x00000000c0a7853e                lockdep_info
                0x00000000c0a788ba                __register_nosave_region
                0x00000000c0a78ef5                parse_crashkernel
                0x00000000c0a792dd                cgroup_init_early
                0x00000000c0a7941f                cgroup_init
                0x00000000c0a7954e                cpuset_init_smp
                0x00000000c0a795b5                cpuset_init
                0x00000000c0a79841                audit_register_class
                0x00000000c0a79c33                early_irq_init
                0x00000000c0a79d87                set_irq_probe
                0x00000000c0a79dce                set_irq_noprobe
                0x00000000c0a79f41                __rcu_init
                0x00000000c0a7a11b                taskstats_init_early
                0x00000000c0a7ab1f                perf_event_init
 .init.text     0x00000000c0a7abc5     0x3fbe mm/built-in.o
                0x00000000c0a7abd6                bootmem_bootmap_pages
                0x00000000c0a7aeb5                reserve_bootmem
                0x00000000c0a7aed7                free_bootmem
                0x00000000c0a7aefa                reserve_bootmem_node
                0x00000000c0a7af2c                free_bootmem_node
                0x00000000c0a7b25e                __alloc_bootmem_nopanic
                0x00000000c0a7b309                __alloc_bootmem_low
                0x00000000c0a7b31d                __alloc_bootmem
                0x00000000c0a7b331                alloc_bootmem_section
                0x00000000c0a7b521                free_all_bootmem
                0x00000000c0a7b530                free_all_bootmem_node
                0x00000000c0a7b626                init_bootmem
                0x00000000c0a7b64a                init_bootmem_node
                0x00000000c0a7b666                __alloc_bootmem_node
                0x00000000c0a7b6d5                __alloc_bootmem_low_node
                0x00000000c0a7b744                __alloc_bootmem_node_nopanic
                0x00000000c0a7b7e4                work_with_active_regions
                0x00000000c0a7b86a                remove_all_active_ranges
                0x00000000c0a7b8a2                set_dma_reserve
                0x00000000c0a7b983                absent_pages_in_range
                0x00000000c0a7ba90                find_min_pfn_with_active_regions
                0x00000000c0a7ba9f                page_alloc_init
                0x00000000c0a7baae                add_active_range
                0x00000000c0a7bbc4                remove_active_range
                0x00000000c0a7bd3c                sparse_memory_present_with_active_regions
                0x00000000c0a7bdb9                free_bootmem_with_active_regions
                0x00000000c0a7bea5                free_area_init
                0x00000000c0a7bed1                free_area_init_nodes
                0x00000000c0a7c1fc                alloc_large_system_hash
                0x00000000c0a7c3f3                page_writeback_init
                0x00000000c0a7c428                swap_setup
                0x00000000c0a7c46c                init_tmpfs
                0x00000000c0a7c756                mminit_verify_pageflags_layout
                0x00000000c0a7c893                page_address_init
                0x00000000c0a7c97d                mmap_init
                0x00000000c0a7c9a2                anon_vma_init
                0x00000000c0a7c9cf                vm_area_register_early
                0x00000000c0a7ca4e                vmalloc_init
                0x00000000c0a7cc3e                hugetlb_add_hstate
                0x00000000c0a7cd62                alloc_bootmem_huge_page
                0x00000000c0a7d22d                sparse_mem_map_populate
                0x00000000c0a7d256                sparse_init
                0x00000000c0a7d38b                node_memmap_size_bytes
                0x00000000c0a7d3f7                memory_present
                0x00000000c0a7d67b                kmem_cache_init
                0x00000000c0a7d9df                kmem_cache_init_late
                0x00000000c0a7db82                pcpu_free_alloc_info
                0x00000000c0a7db98                pcpu_alloc_alloc_info
                0x00000000c0a7dc05                pcpu_build_alloc_info
                0x00000000c0a7defc                pcpu_setup_first_chunk
                0x00000000c0a7e56d                pcpu_page_first_chunk
                0x00000000c0a7e86f                pcpu_embed_first_chunk
                0x00000000c0a7eae7                page_cgroup_init
 .init.text     0x00000000c0a7eb83     0x2041 fs/built-in.o
                0x00000000c0a7eb83                files_init
                0x00000000c0a7ebf3                chrdev_init
                0x00000000c0a7eca9                vfs_caches_init
                0x00000000c0a7edbe                vfs_caches_init_early
                0x00000000c0a7ee64                inode_init
                0x00000000c0a7ef0d                inode_init_early
                0x00000000c0a7ef87                files_defer_init
                0x00000000c0a7f07e                get_filesystem_list
                0x00000000c0a7f0f3                mnt_init
                0x00000000c0a7f258                buffer_init
                0x00000000c0a7f3b2                bdev_cache_init
                0x00000000c0a7f420                bio_integrity_init
                0x00000000c0a7f4b6                fsnotify_notification_init
                0x00000000c0a7fab9                proc_init_inodecache
                0x00000000c0a7fae6                proc_root_init
                0x00000000c0a7fb85                proc_tty_init
                0x00000000c0a7fd84                proc_sys_init
                0x00000000c0a7fdab                proc_net_init
                0x00000000c0a80910                sysfs_inode_init
                0x00000000c0a8091f                sysfs_init
                0x00000000c0a80a18                init_rootfs
                0x00000000c0a80b40                zisofs_init
 .init.text     0x00000000c0a80bc4      0x22e ipc/built-in.o
                0x00000000c0a80bee                ipc_init_proc_interface
                0x00000000c0a80c9f                msg_init
                0x00000000c0a80ce1                sem_init
                0x00000000c0a80d0b                shm_init
 .init.text     0x00000000c0a80df2      0xb8f security/built-in.o
                0x00000000c0a80df2                key_init
                0x00000000c0a80ef9                init_mmap_min_addr
                0x00000000c0a80f34                security_init
                0x00000000c0a80f75                security_module_enable
                0x00000000c0a80ff3                avc_init
                0x00000000c0a8152f                ima_fs_init
                0x00000000c0a81685                ima_init
                0x00000000c0a81821                ima_calc_boot_aggregate
                0x00000000c0a818e7                ima_init_policy
                0x00000000c0a8192b                ima_iintcache_init
 .init.text     0x00000000c0a81981      0x11b crypto/built-in.o
                0x00000000c0a819c7                crypto_init_proc
 .init.text     0x00000000c0a81a9c      0x9c2 block/built-in.o
                0x00000000c0a81aff                blk_dev_init
                0x00000000c0a81d68                printk_all_partitions
                0x00000000c0a81fbd                blk_scsi_ioctl_init
 .init.text     0x00000000c0a8245e      0xbc3 lib/lib.a(decompress_bunzip2.o)
                0x00000000c0a82c55                bunzip2
 .init.text     0x00000000c0a83021      0x35d lib/lib.a(decompress_inflate.o)
                0x00000000c0a83021                gunzip
 .init.text     0x00000000c0a8337e      0xbd7 lib/lib.a(decompress_unlzma.o)
                0x00000000c0a834d2                unlzma
 .init.text     0x00000000c0a83f55       0x2c lib/lib.a(idr.o)
                0x00000000c0a83f55                idr_init_cache
 .init.text     0x00000000c0a83f81       0x5f lib/lib.a(kobject_uevent.o)
 .init.text     0x00000000c0a83fe0       0x28 lib/lib.a(prio_tree.o)
                0x00000000c0a83fe0                prio_tree_init
 .init.text     0x00000000c0a84008       0x68 lib/lib.a(radix-tree.o)
                0x00000000c0a84008                radix_tree_init
 .init.text     0x00000000c0a84070      0x2a7 lib/built-in.o
 .init.text     0x00000000c0a84317     0xe7be drivers/built-in.o
                0x00000000c0a84340                gpiochip_reserve
                0x00000000c0a84469                pci_sort_breadthfirst
                0x00000000c0a84478                pci_register_set_vga_state
                0x00000000c0a84cae                pciehp_acpi_slot_detection_init
                0x00000000c0a84f39                acpiphp_get_num_slots
                0x00000000c0a84fd6                acpiphp_glue_init
                0x00000000c0a85022                enable_drhd_fault_handling
                0x00000000c0a850b9                check_zero_address
                0x00000000c0a8528b                detect_intel_iommu
                0x00000000c0a85509                dmar_dev_scope_init
                0x00000000c0a8562d                dmar_table_init
                0x00000000c0a85a9c                init_dmars
                0x00000000c0a861af                intel_iommu_init
                0x00000000c0a864fc                pci_assign_unassigned_resources
                0x00000000c0a884b7                acpi_table_init
                0x00000000c0a88545                acpi_table_parse
                0x00000000c0a885ca                acpi_table_parse_entries
                0x00000000c0a886ed                acpi_table_parse_madt
                0x00000000c0a8874a                acpi_blacklisted
                0x00000000c0a888d1                acpi_os_initialize
                0x00000000c0a88a6b                acpi_dmi_osi_linux
                0x00000000c0a88b39                acpi_osi_setup
                0x00000000c0a88c10                early_acpi_os_unmap_memory
                0x00000000c0a88c1f                acpi_os_get_root_pointer
                0x00000000c0a88c63                acpi_wakeup_device_init
                0x00000000c0a88cd5                acpi_old_suspend_ordering
                0x00000000c0a88ce7                acpi_s4_no_nvs
                0x00000000c0a88cef                acpi_no_s4_hw_signature
                0x00000000c0a88cf7                acpi_gts_bfs_check
                0x00000000c0a88d50                acpi_sleep_init
                0x00000000c0a88e9c                acpi_sleep_proc_init
                0x00000000c0a88eda                acpi_early_init
                0x00000000c0a89290                init_acpi_device_notify
                0x00000000c0a892c6                acpi_scan_init
                0x00000000c0a8937b                acpi_ec_init
                0x00000000c0a893bf                acpi_boot_ec_enable
                0x00000000c0a893ee                acpi_ec_ecdt_probe
                0x00000000c0a89645                acpi_irq_penalty_init
                0x00000000c0a897c8                acpi_power_init
                0x00000000c0a89822                acpi_system_init
                0x00000000c0a89ab0                acpi_initialize_tables
                0x00000000c0a89b36                acpi_tb_parse_root_table
                0x00000000c0a89ddd                acpi_initialize_subsystem
                0x00000000c0a8a1d9                sfi_acpi_init
                0x00000000c0a8a21a                sfi_init_late
                0x00000000c0a8a269                sfi_init
                0x00000000c0a8a851                pnpacpi_parse_resource_option_data
                0x00000000c0a8bf57                isapnp_proc_init
                0x00000000c0a8c05d                xen_init_IRQ
                0x00000000c0a8c75b                console_init
                0x00000000c0a8cada                vcs_init
                0x00000000c0a8cb8d                kbd_init
                0x00000000c0a8cc32                console_map_init
                0x00000000c0a8cd24                vty_init
                0x00000000c0a8d3a0                agp_amd64_init
                0x00000000c0a8d654                uart_get_console
                0x00000000c0a8d87b                early_serial_setup
                0x00000000c0a8db8c                setup_early_serial8250_console
                0x00000000c0a8dfa3                devices_init
                0x00000000c0a8e02d                system_bus_init
                0x00000000c0a8e050                buses_init
                0x00000000c0a8e06f                classes_init
                0x00000000c0a8e08b                early_platform_cleanup
                0x00000000c0a8e0de                early_platform_driver_probe
                0x00000000c0a8e2bc                early_platform_driver_register_all
                0x00000000c0a8e2c1                early_platform_add_devices
                0x00000000c0a8e305                early_platform_driver_register
                0x00000000c0a8e3bc                platform_bus_init
                0x00000000c0a8e3f0                cpu_dev_init
                0x00000000c0a8e437                firmware_init
                0x00000000c0a8e451                driver_init
                0x00000000c0a8e497                devtmpfs_init
                0x00000000c0a8e5d0                memory_dev_init
                0x00000000c0a8e661                hypervisor_init
                0x00000000c0a8ea68                scsi_init_queue
                0x00000000c0a8eb6e                scsi_init_devinfo
                0x00000000c0a8ec00                scsi_init_sysctl
                0x00000000c0a8ec18                scsi_init_procfs
                0x00000000c0a8f022                mdio_bus_init
                0x00000000c0a8f27c                pcmcia_setup_ioctl
                0x00000000c0a8f47e                usb_devio_init
                0x00000000c0a8f509                usbfs_init
                0x00000000c0a8f620                mon_text_init
                0x00000000c0a8f66f                mon_bin_init
                0x00000000c0a8f970                early_dbgp_init
                0x00000000c0a90e47                rtc_dev_init
                0x00000000c0a90e7e                rtc_sysfs_init
                0x00000000c0a90f16                i2c_register_board_info
                0x00000000c0a915e0                dmi_scan_machine
                0x00000000c0a920de                reserve_ibft_region
                0x00000000c0a921f9                firmware_map_add_early
                0x00000000c0a92792                hidraw_init
                0x00000000c0a92ac1                hiddev_init
 .init.text     0x00000000c0a92ad5     0x213a arch/x86/pci/built-in.o
                0x00000000c0a92e58                pcibios_resource_survey
                0x00000000c0a92eda                pci_pcbios_init
                0x00000000c0a9311b                pci_mmcfg_arch_free
                0x00000000c0a9311c                pci_mmcfg_arch_init
                0x00000000c0a931ff                pci_direct_probe
                0x00000000c0a933c3                pci_direct_init
                0x00000000c0a93a1e                pci_mmcfg_late_init
                0x00000000c0a93a25                pci_mmcfg_early_init
                0x00000000c0a940b4                pci_olpc_init
                0x00000000c0a94101                pci_acpi_init
                0x00000000c0a94181                pci_subsys_init
                0x00000000c0a94784                pcibios_irq_init
                0x00000000c0a94b38                pcibios_init
                0x00000000c0a94b9e                dmi_check_pciprobe
                0x00000000c0a94ba8                dmi_check_skip_isa_align
 .init.text     0x00000000c0a94c0f     0x21f9 net/built-in.o
                0x00000000c0a94c67                sk_init
                0x00000000c0a94ce5                skb_init
                0x00000000c0a94f9a                netdev_boot_setup
                0x00000000c0a95056                dev_mcast_init
                0x00000000c0a95060                dst_init
                0x00000000c0a950e5                rtnetlink_init
                0x00000000c0a95893                netfilter_init
                0x00000000c0a9590f                netfilter_log_init
                0x00000000c0a959e0                netfilter_queue_init
                0x00000000c0a95b40                ip_static_sysctl_init
                0x00000000c0a95b4f                ip_rt_init
                0x00000000c0a95d89                inet_initpeers
                0x00000000c0a95e45                ipfrag_init
                0x00000000c0a95eb8                ip_init
                0x00000000c0a95eec                tcp_init
                0x00000000c0a961f4                tcp4_proc_init
                0x00000000c0a961fe                tcp_v4_init
                0x00000000c0a96233                raw_proc_exit
                0x00000000c0a9623d                raw_proc_init
                0x00000000c0a96247                udp_table_init
                0x00000000c0a96266                udp_init
                0x00000000c0a962f4                udp4_proc_init
                0x00000000c0a962fe                udplite4_register
                0x00000000c0a96381                arp_init
                0x00000000c0a963df                icmp_init
                0x00000000c0a963e9                devinet_init
                0x00000000c0a96634                igmp_mc_proc_init
                0x00000000c0a9663e                ip_fib_init
                0x00000000c0a966f0                fib_hash_init
                0x00000000c0a96741                ip_misc_proc_init
                0x00000000c0a9674b                ip_mr_init
                0x00000000c0a968ef                xfrm4_init
                0x00000000c0a9692b                xfrm4_state_init
                0x00000000c0a96935                xfrm_init
                0x00000000c0a96944                xfrm_input_init
                0x00000000c0a96a92                netlbl_netlink_init
                0x00000000c0a96b26                netlbl_domhsh_init
                0x00000000c0a96c0b                netlbl_mgmt_genl_init
                0x00000000c0a96c1f                netlbl_unlabel_init
                0x00000000c0a96d0e                netlbl_unlabel_genl_init
                0x00000000c0a96d22                netlbl_unlabel_defconf
                0x00000000c0a96d84                netlbl_cipsov4_genl_init
                0x00000000c0a96e08                _einittext = .

.init.data      0x00000000c0a96e20    0x273e0 load address 0x0000000000a96e20
 *(.init.data)
 .init.data     0x00000000c0a96e20       0x10 arch/x86/kernel/head_32.o
 *fill*         0x00000000c0a96e30       0x10 00
 .init.data     0x00000000c0a96e40     0x26b4 init/built-in.o
                0x00000000c0a96e40                setup_max_cpus
                0x00000000c0a97680                boot_command_line
                0x00000000c0a97e80                late_time_init
                0x00000000c0a97f10                rd_doload
                0x00000000c0a97f14                rd_prompt
                0x00000000c0a97f18                rd_image_start
 *fill*         0x00000000c0a994f4        0xc 00
 .init.data     0x00000000c0a99500     0xdb18 arch/x86/built-in.o
                0x00000000c0a9a620                x86_init
                0x00000000c0a9a674                sbf_port
                0x00000000c0a9d0e0                changed_by_mtrr_cleanup
                0x00000000c0a9f6c0                acpi_ht
                0x00000000c0aa1240                acpi_skip_timer_override
                0x00000000c0aa1244                acpi_use_timer_override
                0x00000000c0aa1248                acpi_sci_flags
                0x00000000c0aa124c                acpi_sci_override_gsi
                0x00000000c0aa6120                x86_cpu_to_apicid_early_map
                0x00000000c0aa6160                x86_bios_cpu_apicid_early_map
                0x00000000c0aa61e8                timer_through_8259
                0x00000000c0aa61ec                no_timer_check
                0x00000000c0aa62ac                e820_table_start
                0x00000000c0aa62e8                vdso32_int80_start
                0x00000000c0aa6978                vdso32_syscall_end
                0x00000000c0aa6978                vdso32_syscall_start
                0x00000000c0aa6978                vdso32_int80_end
                0x00000000c0aa6978                vdso32_sysenter_start
                0x00000000c0aa7018                vdso32_sysenter_end
 *fill*         0x00000000c0aa7018        0x8 00
 .init.data     0x00000000c0aa7020      0x8e0 kernel/built-in.o
 .init.data     0x00000000c0aa7900     0x13a4 mm/built-in.o
                0x00000000c0aa7908                bootmem_node_data
                0x00000000c0aa7930                huge_boot_pages
                0x00000000c0aa7a60                initkmem_list3
                0x00000000c0aa7b80                pcpu_fc_names
                0x00000000c0aa7b8c                pcpu_chosen_fc
 .init.data     0x00000000c0aa8ca4        0x8 fs/built-in.o
 .init.data     0x00000000c0aa8cac        0xc security/built-in.o
 *fill*         0x00000000c0aa8cb8        0x8 00
 .init.data     0x00000000c0aa8cc0     0xcb8c drivers/built-in.o
                0x00000000c0ab2144                pnpacpi_disabled
 *fill*         0x00000000c0ab584c       0x14 00
 .init.data     0x00000000c0ab5860      0x534 arch/x86/pci/built-in.o
 .init.data     0x00000000c0ab5d94        0x8 net/built-in.o
                0x00000000c0ab5da0                . = ALIGN (0x8)
 *fill*         0x00000000c0ab5d9c        0x4 00
                0x00000000c0ab5da0                __ctors_start = .
 *(.ctors)
                0x00000000c0ab5da0                __ctors_end = .
 *(.init.rodata)
 .init.rodata   0x00000000c0ab5da0       0xc9 init/built-in.o
 *fill*         0x00000000c0ab5e69        0x3 00
 .init.rodata   0x00000000c0ab5e6c      0x6ef arch/x86/built-in.o
                0x00000000c0ab5e6c                interrupt
 .init.rodata   0x00000000c0ab655b      0x1c7 kernel/built-in.o
 .init.rodata   0x00000000c0ab6722       0xa2 mm/built-in.o
 .init.rodata   0x00000000c0ab67c4       0x22 fs/built-in.o
 .init.rodata   0x00000000c0ab67e6       0x49 security/built-in.o
 .init.rodata   0x00000000c0ab682f        0x6 crypto/built-in.o
 .init.rodata   0x00000000c0ab6835       0x2e block/built-in.o
 *fill*         0x00000000c0ab6863       0x1d 00
 .init.rodata   0x00000000c0ab6880     0x63c5 drivers/built-in.o
                0x00000000c0ab68c0                logo_linux_clut224
 .init.rodata   0x00000000c0abcc45       0x2d net/built-in.o
                0x00000000c0abcc80                . = ALIGN (0x10)
 *fill*         0x00000000c0abcc72        0xe 00
                0x00000000c0abcc80                __setup_start = .
 *(.init.setup)
 .init.setup    0x00000000c0abcc80      0x114 init/built-in.o
 .init.setup    0x00000000c0abcd94      0x3a8 arch/x86/built-in.o
 .init.setup    0x00000000c0abd13c      0x1bc kernel/built-in.o
 .init.setup    0x00000000c0abd2f8       0x90 mm/built-in.o
 .init.setup    0x00000000c0abd388       0x24 fs/built-in.o
 .init.setup    0x00000000c0abd3ac       0x54 security/built-in.o
 .init.setup    0x00000000c0abd400        0xc crypto/built-in.o
 .init.setup    0x00000000c0abd40c       0x24 block/built-in.o
 .init.setup    0x00000000c0abd430      0x1d4 drivers/built-in.o
 .init.setup    0x00000000c0abd604       0x30 net/built-in.o
                0x00000000c0abd634                __setup_end = .
                0x00000000c0abd634                __initcall_start = .
 *(.initcallearly.init)
 .initcallearly.init
                0x00000000c0abd634        0x4 arch/x86/built-in.o
 .initcallearly.init
                0x00000000c0abd638       0x1c kernel/built-in.o
                0x00000000c0abd654                __early_initcall_end = .
 *(.initcall0.init)
 .initcall0.init
                0x00000000c0abd654        0x4 security/built-in.o
 .initcall0.init
                0x00000000c0abd658        0x4 drivers/built-in.o
 .initcall0.init
                0x00000000c0abd65c        0x4 net/built-in.o
 *(.initcall0s.init)
 *(.initcall1.init)
 .initcall1.init
                0x00000000c0abd660       0x18 arch/x86/built-in.o
 .initcall1.init
                0x00000000c0abd678       0x20 kernel/built-in.o
 .initcall1.init
                0x00000000c0abd698        0x4 mm/built-in.o
 .initcall1.init
                0x00000000c0abd69c       0x14 fs/built-in.o
 .initcall1.init
                0x00000000c0abd6b0        0x4 security/built-in.o
 .initcall1.init
                0x00000000c0abd6b4        0x4 lib/built-in.o
 .initcall1.init
                0x00000000c0abd6b8       0x10 drivers/built-in.o
 .initcall1.init
                0x00000000c0abd6c8       0x10 net/built-in.o
 *(.initcall1s.init)
 *(.initcall2.init)
 .initcall2.init
                0x00000000c0abd6d8        0x4 arch/x86/built-in.o
 .initcall2.init
                0x00000000c0abd6dc        0x4 mm/built-in.o
 .initcall2.init
                0x00000000c0abd6e0        0x4 lib/lib.a(kobject_uevent.o)
 .initcall2.init
                0x00000000c0abd6e4       0x18 drivers/built-in.o
 .initcall2.init
                0x00000000c0abd6fc        0x4 arch/x86/pci/built-in.o
 *(.initcall2s.init)
 *(.initcall3.init)
 .initcall3.init
                0x00000000c0abd700       0x18 arch/x86/built-in.o
 .initcall3.init
                0x00000000c0abd718       0x18 drivers/built-in.o
 .initcall3.init
                0x00000000c0abd730        0x4 arch/x86/pci/built-in.o
 *(.initcall3s.init)
 *(.initcall4.init)
 .initcall4.init
                0x00000000c0abd734        0x8 arch/x86/built-in.o
 .initcall4.init
                0x00000000c0abd73c       0x10 kernel/built-in.o
 .initcall4.init
                0x00000000c0abd74c        0x4 mm/built-in.o
 .initcall4.init
                0x00000000c0abd750        0xc fs/built-in.o
 .initcall4.init
                0x00000000c0abd75c        0x4 crypto/built-in.o
 .initcall4.init
                0x00000000c0abd760       0x18 block/built-in.o
 .initcall4.init
                0x00000000c0abd778       0x68 drivers/built-in.o
 .initcall4.init
                0x00000000c0abd7e0        0x4 arch/x86/pci/built-in.o
 .initcall4.init
                0x00000000c0abd7e4       0x30 net/built-in.o
 *(.initcall4s.init)
 *(.initcall5.init)
 .initcall5.init
                0x00000000c0abd814       0x14 arch/x86/built-in.o
 .initcall5.init
                0x00000000c0abd828       0x14 kernel/built-in.o
 .initcall5.init
                0x00000000c0abd83c        0xc fs/built-in.o
 .initcall5.init
                0x00000000c0abd848        0x4 block/built-in.o
 .initcall5.init
                0x00000000c0abd84c       0x24 drivers/built-in.o
 .initcall5.init
                0x00000000c0abd870        0x4 arch/x86/pci/built-in.o
 .initcall5.init
                0x00000000c0abd874        0xc net/built-in.o
 *(.initcall5s.init)
 .initcall5s.init
                0x00000000c0abd880        0x4 drivers/built-in.o
 *(.initcallrootfs.init)
 .initcallrootfs.init
                0x00000000c0abd884        0x4 init/built-in.o
 .initcallrootfs.init
                0x00000000c0abd888        0x4 arch/x86/built-in.o
 *(.initcall6.init)
 .initcall6.init
                0x00000000c0abd88c       0x48 arch/x86/built-in.o
 .initcall6.init
                0x00000000c0abd8d4       0x94 kernel/built-in.o
 .initcall6.init
                0x00000000c0abd968       0x2c mm/built-in.o
 .initcall6.init
                0x00000000c0abd994       0x74 fs/built-in.o
 .initcall6.init
                0x00000000c0abda08        0xc ipc/built-in.o
 .initcall6.init
                0x00000000c0abda14       0x20 security/built-in.o
 .initcall6.init
                0x00000000c0abda34       0x28 crypto/built-in.o
 .initcall6.init
                0x00000000c0abda5c       0x18 block/built-in.o
 .initcall6.init
                0x00000000c0abda74        0xc lib/built-in.o
 .initcall6.init
                0x00000000c0abda80      0x1bc drivers/built-in.o
 .initcall6.init
                0x00000000c0abdc3c       0x4c net/built-in.o
 *(.initcall6s.init)
 *(.initcall7.init)
 .initcall7.init
                0x00000000c0abdc88       0x30 arch/x86/built-in.o
 .initcall7.init
                0x00000000c0abdcb8       0x20 kernel/built-in.o
 .initcall7.init
                0x00000000c0abdcd8        0xc mm/built-in.o
 .initcall7.init
                0x00000000c0abdce4        0x4 security/built-in.o
 .initcall7.init
                0x00000000c0abdce8        0x8 block/built-in.o
 .initcall7.init
                0x00000000c0abdcf0        0x4 lib/built-in.o
 .initcall7.init
                0x00000000c0abdcf4       0x20 drivers/built-in.o
 .initcall7.init
                0x00000000c0abdd14        0x4 arch/x86/pci/built-in.o
 .initcall7.init
                0x00000000c0abdd18        0x8 net/built-in.o
 *(.initcall7s.init)
 .initcall7s.init
                0x00000000c0abdd20        0x4 net/built-in.o
                0x00000000c0abdd24                __initcall_end = .
                0x00000000c0abdd24                __con_initcall_start = .
 *(.con_initcall.init)
 .con_initcall.init
                0x00000000c0abdd24       0x10 drivers/built-in.o
                0x00000000c0abdd34                __con_initcall_end = .
                0x00000000c0abdd34                __security_initcall_start = .
 *(.security_initcall.init)
 .security_initcall.init
                0x00000000c0abdd34        0x4 security/built-in.o
                0x00000000c0abdd38                __security_initcall_end = .
                0x00000000c0abe000                . = ALIGN (0x1000)
 *fill*         0x00000000c0abdd38      0x2c8 00
                0x00000000c0abe000                __initramfs_start = .
 *(.init.ramfs)
 .init.ramfs    0x00000000c0abe000      0x200 usr/built-in.o
                0x00000000c0abe200                __initramfs_end = .

.x86_cpu_dev.init
                0x00000000c0abe200       0x1c load address 0x0000000000abe200
                0x00000000c0abe200                __x86_cpu_dev_start = .
 *(.x86_cpu_dev.init)
 .x86_cpu_dev.init
                0x00000000c0abe200       0x1c arch/x86/built-in.o
                0x00000000c0abe21c                __x86_cpu_dev_end = .
                0x00000000c0abe220                . = ALIGN (0x8)

.parainstructions
                0x00000000c0abe220     0x5fb0 load address 0x0000000000abe220
                0x00000000c0abe220                __parainstructions = .
 *(.parainstructions)
 .parainstructions
                0x00000000c0abe220       0x38 init/built-in.o
 .parainstructions
                0x00000000c0abe258     0x26a0 arch/x86/built-in.o
 .parainstructions
                0x00000000c0ac08f8     0x1610 kernel/built-in.o
 .parainstructions
                0x00000000c0ac1f08      0xcb8 mm/built-in.o
 .parainstructions
                0x00000000c0ac2bc0      0x120 fs/built-in.o
 .parainstructions
                0x00000000c0ac2ce0       0x20 security/built-in.o
 .parainstructions
                0x00000000c0ac2d00      0x3c0 block/built-in.o
 .parainstructions
                0x00000000c0ac30c0       0x18 lib/lib.a(ioremap.o)
 .parainstructions
                0x00000000c0ac30d8       0x18 lib/lib.a(proportions.o)
 .parainstructions
                0x00000000c0ac30f0        0x8 lib/lib.a(rwsem.o)
 .parainstructions
                0x00000000c0ac30f8       0x20 arch/x86/lib/lib.a(delay.o)
 .parainstructions
                0x00000000c0ac3118       0x20 lib/built-in.o
 .parainstructions
                0x00000000c0ac3138       0x38 arch/x86/lib/built-in.o
 .parainstructions
                0x00000000c0ac3170      0xce0 drivers/built-in.o
 .parainstructions
                0x00000000c0ac3e50       0x78 arch/x86/pci/built-in.o
 .parainstructions
                0x00000000c0ac3ec8      0x140 arch/x86/power/built-in.o
 .parainstructions
                0x00000000c0ac4008      0x1c8 net/built-in.o
                0x00000000c0ac41d0                __parainstructions_end = .
                0x00000000c0ac41d0                . = ALIGN (0x8)

.altinstructions
                0x00000000c0ac41d0     0x6d43 load address 0x0000000000ac41d0
                0x00000000c0ac41d0                __alt_instructions = .
 *(.altinstructions)
 .altinstructions
                0x00000000c0ac41d0      0x45b arch/x86/built-in.o
 *fill*         0x00000000c0ac462b        0x1 00
 .altinstructions
                0x00000000c0ac462c     0x14c3 kernel/built-in.o
 *fill*         0x00000000c0ac5aef        0x1 00
 .altinstructions
                0x00000000c0ac5af0      0x53f mm/built-in.o
 *fill*         0x00000000c0ac602f        0x1 00
 .altinstructions
                0x00000000c0ac6030      0x80f fs/built-in.o
 *fill*         0x00000000c0ac683f        0x1 00
 .altinstructions
                0x00000000c0ac6840       0xe3 ipc/built-in.o
 *fill*         0x00000000c0ac6923        0x1 00
 .altinstructions
                0x00000000c0ac6924      0x1eb security/built-in.o
 *fill*         0x00000000c0ac6b0f        0x1 00
 .altinstructions
                0x00000000c0ac6b10       0xb3 crypto/built-in.o
 *fill*         0x00000000c0ac6bc3        0x1 00
 .altinstructions
                0x00000000c0ac6bc4       0xa7 block/built-in.o
 *fill*         0x00000000c0ac6c6b        0x1 00
 .altinstructions
                0x00000000c0ac6c6c       0x17 lib/lib.a(bug.o)
 *fill*         0x00000000c0ac6c83        0x1 00
 .altinstructions
                0x00000000c0ac6c84        0xb lib/lib.a(kobject.o)
 *fill*         0x00000000c0ac6c8f        0x1 00
 .altinstructions
                0x00000000c0ac6c90       0x17 lib/lib.a(kref.o)
 *fill*         0x00000000c0ac6ca7        0x1 00
 .altinstructions
                0x00000000c0ac6ca8       0x17 lib/lib.a(plist.o)
 *fill*         0x00000000c0ac6cbf        0x1 00
 .altinstructions
                0x00000000c0ac6cc0       0x3b lib/lib.a(rwsem.o)
 *fill*         0x00000000c0ac6cfb        0x1 00
 .altinstructions
                0x00000000c0ac6cfc       0x47 arch/x86/lib/lib.a(delay.o)
 *fill*         0x00000000c0ac6d43        0x1 00
 .altinstructions
                0x00000000c0ac6d44       0x8f lib/built-in.o
 *fill*         0x00000000c0ac6dd3        0x1 00
 .altinstructions
                0x00000000c0ac6dd4     0x2b67 drivers/built-in.o
 *fill*         0x00000000c0ac993b        0x1 00
 .altinstructions
                0x00000000c0ac993c       0x47 arch/x86/pci/built-in.o
 *fill*         0x00000000c0ac9983        0x1 00
 .altinstructions
                0x00000000c0ac9984       0x17 arch/x86/power/built-in.o
 *fill*         0x00000000c0ac999b        0x1 00
 .altinstructions
                0x00000000c0ac999c     0x156b net/built-in.o
 *fill*         0x00000000c0acaf07        0x1 00
 .altinstructions
                0x00000000c0acaf08        0xb lib/lib.a(klist.o)
                0x00000000c0acaf13                __alt_instructions_end = .

.altinstr_replacement
                0x00000000c0acaf13     0x1be7 load address 0x0000000000acaf13
 *(.altinstr_replacement)
 .altinstr_replacement
                0x00000000c0acaf13      0x184 arch/x86/built-in.o
 .altinstr_replacement
                0x00000000c0acb097      0x531 kernel/built-in.o
 .altinstr_replacement
                0x00000000c0acb5c8      0x150 mm/built-in.o
 .altinstr_replacement
                0x00000000c0acb718      0x204 fs/built-in.o
 .altinstr_replacement
                0x00000000c0acb91c       0x39 ipc/built-in.o
 .altinstr_replacement
                0x00000000c0acb955       0x7b security/built-in.o
 .altinstr_replacement
                0x00000000c0acb9d0       0x2d crypto/built-in.o
 .altinstr_replacement
                0x00000000c0acb9fd       0x2a block/built-in.o
 .altinstr_replacement
                0x00000000c0acba27        0x6 lib/lib.a(bug.o)
 .altinstr_replacement
                0x00000000c0acba2d        0x3 lib/lib.a(kobject.o)
 .altinstr_replacement
                0x00000000c0acba30        0x6 lib/lib.a(kref.o)
 .altinstr_replacement
                0x00000000c0acba36        0x6 lib/lib.a(plist.o)
 .altinstr_replacement
                0x00000000c0acba3c        0xf lib/lib.a(rwsem.o)
 .altinstr_replacement
                0x00000000c0acba4b       0x12 arch/x86/lib/lib.a(delay.o)
 .altinstr_replacement
                0x00000000c0acba5d       0x24 lib/built-in.o
 .altinstr_replacement
                0x00000000c0acba81      0xaee drivers/built-in.o
 .altinstr_replacement
                0x00000000c0acc56f       0x12 arch/x86/pci/built-in.o
 .altinstr_replacement
                0x00000000c0acc581       0x14 arch/x86/power/built-in.o
 .altinstr_replacement
                0x00000000c0acc595      0x562 net/built-in.o
 .altinstr_replacement
                0x00000000c0accaf7        0x3 lib/lib.a(klist.o)

.exit.text      0x00000000c0accafa     0x15f5 load address 0x0000000000accafa
 *(.exit.text)
 .exit.text     0x00000000c0accafa      0x1c1 arch/x86/built-in.o
 .exit.text     0x00000000c0acccbb       0x47 mm/built-in.o
 .exit.text     0x00000000c0accd02      0x107 fs/built-in.o
 .exit.text     0x00000000c0acce09       0x55 security/built-in.o
                0x00000000c0acce09                ima_fs_cleanup
                0x00000000c0acce4a                ima_cleanup
 .exit.text     0x00000000c0acce5e       0xa9 crypto/built-in.o
                0x00000000c0acce77                crypto_exit_proc
 .exit.text     0x00000000c0accf07      0x17e block/built-in.o
 .exit.text     0x00000000c0acd085      0xf59 drivers/built-in.o
                0x00000000c0acd92f                pcmcia_cleanup_ioctl
                0x00000000c0acdbee                rtc_dev_exit
 .exit.text     0x00000000c0acdfde      0x111 net/built-in.o

.exit.data
 *(.exit.data)
                0x00000000c0acf000                . = ALIGN (0x1000)

.data.percpu    0x00000000c0acf000   0x14b1f8 load address 0x0000000000acf000
                0x00000000c0acf000                __per_cpu_load = .
                0x00000000c0acf000                __per_cpu_start = .
 *(.data.percpu.first)
 *(.data.percpu.page_aligned)
 .data.percpu.page_aligned
                0x00000000c0acf000     0x3000 arch/x86/built-in.o
                0x00000000c0acf000                per_cpu__hardirq_stack
                0x00000000c0ad0000                per_cpu__softirq_stack
                0x00000000c0ad1000                per_cpu__gdt_page
 *(.data.percpu)
 .data.percpu   0x00000000c0ad2000     0x3504 arch/x86/built-in.o
                0x00000000c0ad2000                per_cpu__xen_vcpu
                0x00000000c0ad2020                per_cpu__xen_vcpu_info
                0x00000000c0ad2060                per_cpu__idt_desc
                0x00000000c0ad2068                per_cpu__xen_cr0_value
                0x00000000c0ad2080                per_cpu__xen_mc_irq_flags
                0x00000000c0ad20a0                per_cpu__mc_buffer
                0x00000000c0ad2c2c                per_cpu__xen_cr3
                0x00000000c0ad2c30                per_cpu__xen_current_cr3
                0x00000000c0ad2c40                per_cpu__runstate
                0x00000000c0ad2c80                per_cpu__runstate_snapshot
                0x00000000c0ad2cb0                per_cpu__residual_stolen
                0x00000000c0ad2cb8                per_cpu__residual_blocked
                0x00000000c0ad2cc0                per_cpu__xen_clock_events
                0x00000000c0ad2d08                per_cpu__debug_irq
                0x00000000c0ad2d0c                per_cpu__resched_irq
                0x00000000c0ad2d10                per_cpu__callfunc_irq
                0x00000000c0ad2d14                per_cpu__callfuncsingle_irq
                0x00000000c0ad2d20                per_cpu__irq_regs
                0x00000000c0ad2d24                per_cpu__hardirq_ctx
                0x00000000c0ad2d28                per_cpu__softirq_ctx
                0x00000000c0ad2d40                per_cpu__vector_irq
                0x00000000c0ad3140                per_cpu__cpu_devices
                0x00000000c0ad3178                per_cpu__cyc2ns
                0x00000000c0ad3180                per_cpu__cyc2ns_offset
                0x00000000c0ad31a0                per_cpu__cpuid4_info
                0x00000000c0ad31a4                per_cpu__cache_kobject
                0x00000000c0ad31a8                per_cpu__index_kobject
                0x00000000c0ad31ac                per_cpu__current_task
                0x00000000c0ad31b0                per_cpu__old_perf_sched
                0x00000000c0ad31c0                per_cpu__cpu_hw_events
                0x00000000c0ad32e0                per_cpu__pmc_prev_left
                0x00000000c0ad34e0                per_cpu__pmc_irq_entry
                0x00000000c0ad3ce0                per_cpu__pmc_nmi_entry
                0x00000000c0ad44e0                per_cpu__in_nmi_frame
                0x00000000c0ad4500                per_cpu__mce_poll_banks
                0x00000000c0ad4520                per_cpu__mce_dev
                0x00000000c0ad454c                per_cpu__mce_exception_count
                0x00000000c0ad4550                per_cpu__mce_poll_count
                0x00000000c0ad4560                per_cpu__injectm
                0x00000000c0ad45c0                per_cpu__mces_seen
                0x00000000c0ad4620                per_cpu__mce_work
                0x00000000c0ad4660                per_cpu__mce_ring
                0x00000000c0ad46a4                per_cpu__mce_next_interval
                0x00000000c0ad46c0                per_cpu__mce_timer
                0x00000000c0ad4704                per_cpu__mce_banks_owned
                0x00000000c0ad4708                per_cpu__threshold_banks
                0x00000000c0ad4720                per_cpu__bank_map
                0x00000000c0ad4724                per_cpu__thermal_state
                0x00000000c0ad4738                per_cpu__nmi_watchdog_ctlblk
                0x00000000c0ad4744                per_cpu__cpu_state
                0x00000000c0ad4748                per_cpu__cpu_llc_id
                0x00000000c0ad474c                per_cpu__cpu_sibling_map
                0x00000000c0ad4750                per_cpu__cpu_core_map
                0x00000000c0ad4754                per_cpu__idle_thread_array
                0x00000000c0ad4758                per_cpu__this_cpu_off
                0x00000000c0ad475c                per_cpu__cpu_number
                0x00000000c0ad4760                per_cpu__x86_cpu_to_apicid
                0x00000000c0ad4762                per_cpu__x86_bios_cpu_apicid
                0x00000000c0ad4780                per_cpu__lapic_events
                0x00000000c0ad47c8                per_cpu__wd_enabled
                0x00000000c0ad47cc                per_cpu__last_irq_sum
                0x00000000c0ad47d0                per_cpu__alert_counter
                0x00000000c0ad47d4                per_cpu__nmi_touch
                0x00000000c0ad47e0                per_cpu__current_kprobe
                0x00000000c0ad4800                per_cpu__kprobe_ctlblk
                0x00000000c0ad48a4                per_cpu__cpu_hpet_dev
                0x00000000c0ad48c0                per_cpu__para_state
                0x00000000c0ad4cc4                per_cpu__paravirt_lazy_mode
                0x00000000c0ad4ce0                per_cpu__mmu_gathers
                0x00000000c0ad54e0                per_cpu__kmemcheck_context
 *fill*         0x00000000c0ad5504       0x1c 00
 .data.percpu   0x00000000c0ad5520   0x141a30 kernel/built-in.o
                0x00000000c0ad5520                per_cpu__kstat
                0x00000000c0ad5590                per_cpu__local_cpu_mask
                0x00000000c0ad5594                per_cpu__load_balance_tmpmask
                0x00000000c0ad55a0                per_cpu__cpu_domains
                0x00000000c0ad5690                per_cpu__sched_group_cpus
                0x00000000c0ad56a0                per_cpu__core_domains
                0x00000000c0ad5790                per_cpu__sched_group_core
                0x00000000c0ad57a0                per_cpu__phys_domains
                0x00000000c0ad5890                per_cpu__sched_group_phys
                0x00000000c0ad58a0                per_cpu__rcu_migration_req
                0x00000000c0ad58e0                per_cpu__process_counts
                0x00000000c0ad58e4                per_cpu__printk_pending
                0x00000000c0ad5900                per_cpu__softirq_work_list
                0x00000000c0ad5950                per_cpu__ksoftirqd
                0x00000000c0ad5954                per_cpu__tasklet_vec
                0x00000000c0ad595c                per_cpu__tasklet_hi_vec
                0x00000000c0ad5964                per_cpu__tvec_bases
                0x00000000c0ad5980                per_cpu__hrtimer_bases
                0x00000000c0ad5a20                per_cpu__cpu_profile_hits
                0x00000000c0ad5a28                per_cpu__cpu_profile_flip
                0x00000000c0ad5a40                per_cpu__tick_cpu_device
                0x00000000c0ad5a60                per_cpu__tick_cpu_sched
                0x00000000c0ad5b20                per_cpu__lookup_lock
                0x00000000c0ad5b60                per_cpu__lock_stats
                0x00000000c0c15ac0                per_cpu__call_single_queue
                0x00000000c0c15aec                per_cpu__cfd_data
                0x00000000c0c15b08                per_cpu__csd_data
                0x00000000c0c15b1c                per_cpu__kprobe_instance
                0x00000000c0c15b20                per_cpu__touch_timestamp
                0x00000000c0c15b24                per_cpu__print_timestamp
                0x00000000c0c15b28                per_cpu__watchdog_task
                0x00000000c0c15b40                per_cpu__rcu_dynticks
                0x00000000c0c15b4c                per_cpu__rcu_barrier_head
                0x00000000c0c15b60                per_cpu__rcu_sched_data
                0x00000000c0c15be0                per_cpu__rcu_bh_data
                0x00000000c0c15c60                per_cpu__taskstats_seqnum
                0x00000000c0c15c80                per_cpu__listener_array
                0x00000000c0c15ce0                per_cpu__rb_need_resched
                0x00000000c0c15d00                per_cpu__ftrace_cpu_disabled
                0x00000000c0c15d20                per_cpu__global_trace_cpu
                0x00000000c0c15d80                per_cpu__max_data
                0x00000000c0c15de0                per_cpu__ftrace_event_seq
                0x00000000c0c16e00                per_cpu__stack_trace_hrtimer
                0x00000000c0c16e40                per_cpu__perf_pending_head
                0x00000000c0c16e60                per_cpu__perf_cpu_context
                0x00000000c0c16f4c                per_cpu__perf_disable_count
 *fill*         0x00000000c0c16f50       0x10 00
 .data.percpu   0x00000000c0c16f60      0x388 mm/built-in.o
                0x00000000c0c16f60                per_cpu__bdp_ratelimits
                0x00000000c0c16f80                per_cpu__lru_add_pvecs
                0x00000000c0c170c0                per_cpu__lru_rotate_pvecs
                0x00000000c0c17100                per_cpu__vm_event_states
                0x00000000c0c171c0                per_cpu__vmstat_work
                0x00000000c0c17240                per_cpu__vmap_block_queue
                0x00000000c0c17280                per_cpu__reap_work
 *fill*         0x00000000c0c172e8       0x18 00
 .data.percpu   0x00000000c0c17300       0x88 fs/built-in.o
                0x00000000c0c17300                per_cpu__fdtable_defer_list
                0x00000000c0c17360                per_cpu__bh_lrus
                0x00000000c0c17380                per_cpu__bh_accounting
 .data.percpu   0x00000000c0c17388       0x18 security/built-in.o
                0x00000000c0c17388                per_cpu__avc_cache_stats
 .data.percpu   0x00000000c0c173a0       0x18 block/built-in.o
                0x00000000c0c173a0                per_cpu__blk_cpu_done
                0x00000000c0c173a8                per_cpu__blk_cpu_iopoll
                0x00000000c0c173b0                per_cpu__as_ioc_count
                0x00000000c0c173b4                per_cpu__cfq_ioc_count
 .data.percpu   0x00000000c0c173b8       0x1c lib/lib.a(radix-tree.o)
 .data.percpu   0x00000000c0c173d4        0xc lib/built-in.o
 .data.percpu   0x00000000c0c173e0      0x27c drivers/built-in.o
                0x00000000c0c173e4                per_cpu__processors
                0x00000000c0c17478                per_cpu__get_random_int_hash
                0x00000000c0c174e0                per_cpu__cpuidle_devices
 *fill*         0x00000000c0c1765c        0x4 00
 .data.percpu   0x00000000c0c17660      0x2f4 net/built-in.o
                0x00000000c0c17680                per_cpu__netdev_rx_stat
                0x00000000c0c176a0                per_cpu__softnet_data
                0x00000000c0c17768                per_cpu__xt_info_locks
 *(.data.percpu.shared_aligned)
 *fill*         0x00000000c0c17954        0xc 00
 .data.percpu.shared_aligned
                0x00000000c0c17960     0x2180 arch/x86/kernel/init_task.o
                0x00000000c0c17960                per_cpu__init_tss
 .data.percpu.shared_aligned
                0x00000000c0c19ae0      0x148 arch/x86/built-in.o
                0x00000000c0c19ae0                per_cpu__irq_stat
                0x00000000c0c19b20                per_cpu__stack_canary
                0x00000000c0c19b40                per_cpu__cpu_info
                0x00000000c0c19c00                per_cpu__hv_clock
                0x00000000c0c19c20                per_cpu__cpu_tlbstate
 *fill*         0x00000000c0c19c28       0x18 00
 .data.percpu.shared_aligned
                0x00000000c0c19c40      0x5b8 kernel/built-in.o
                0x00000000c0c19c40                per_cpu__runqueues
                0x00000000c0c1a1e0                per_cpu__sched_clock_data
                0x00000000c0c1a1f8                __per_cpu_end = .
                0x00000000c0c1b000                . = ALIGN (0x1000)

.init.end       0x00000000c0c1b000        0x0 load address 0x0000000000c1b000
                0x00000000c0c1b000                __init_end = .
                0x00000000c0c1b000                . = ALIGN (0x1000)

.smp_locks      0x00000000c0c1b000     0x4000 load address 0x0000000000c1b000
                0x00000000c0c1b000                __smp_locks = .
 *(.smp_locks)
 .smp_locks     0x00000000c0c1b000      0x430 arch/x86/built-in.o
 .smp_locks     0x00000000c0c1b430      0xb84 kernel/built-in.o
 .smp_locks     0x00000000c0c1bfb4      0x544 mm/built-in.o
 .smp_locks     0x00000000c0c1c4f8      0x8d8 fs/built-in.o
 .smp_locks     0x00000000c0c1cdd0       0x54 ipc/built-in.o
 .smp_locks     0x00000000c0c1ce24      0x19c security/built-in.o
 .smp_locks     0x00000000c0c1cfc0       0x2c crypto/built-in.o
 .smp_locks     0x00000000c0c1cfec       0xe0 block/built-in.o
 .smp_locks     0x00000000c0c1d0cc        0xc lib/lib.a(dec_and_lock.o)
 .smp_locks     0x00000000c0c1d0d8        0x8 lib/lib.a(kref.o)
 .smp_locks     0x00000000c0c1d0e0       0x38 lib/lib.a(rwsem.o)
 .smp_locks     0x00000000c0c1d118       0x10 arch/x86/lib/lib.a(semaphore_32.o)
 .smp_locks     0x00000000c0c1d128       0x30 lib/built-in.o
 .smp_locks     0x00000000c0c1d158        0x4 arch/x86/lib/built-in.o
 .smp_locks     0x00000000c0c1d15c      0xbb8 drivers/built-in.o
 .smp_locks     0x00000000c0c1dd14      0xf58 net/built-in.o
                0x00000000c0c1ec6c                __smp_locks_end = .
                0x00000000c0c1f000                . = ALIGN (0x1000)
 *fill*         0x00000000c0c1ec6c      0x394 00

.rel.dyn        0x00000000c0c1f000        0x0 load address 0x0000000000c1f000
 .rel.iplt      0x0000000000000000        0x0 arch/x86/kernel/head_32.o
 .rel.data      0x0000000000000000        0x0 arch/x86/kernel/head_32.o
 .rel.head.text
                0x0000000000000000        0x0 arch/x86/kernel/head_32.o
 .rel.init.data
                0x0000000000000000        0x0 arch/x86/kernel/head_32.o
 .rel.cpuinit.text
                0x0000000000000000        0x0 arch/x86/kernel/head_32.o
 .rel.ref.data  0x0000000000000000        0x0 arch/x86/kernel/head_32.o
 .rel.init.text
                0x0000000000000000        0x0 arch/x86/kernel/head_32.o
 .rel.data.init_task
                0x0000000000000000        0x0 arch/x86/kernel/head_32.o
 .rel.text      0x0000000000000000        0x0 arch/x86/kernel/head_32.o
 .rel.ref.text  0x0000000000000000        0x0 arch/x86/kernel/head_32.o
 .rel__param    0x0000000000000000        0x0 arch/x86/kernel/head_32.o
 .rel.kprobes.text
                0x0000000000000000        0x0 arch/x86/kernel/head_32.o
 .rel.text.unlikely
                0x0000000000000000        0x0 arch/x86/kernel/head_32.o
 .rel.devinit.text
                0x0000000000000000        0x0 arch/x86/kernel/head_32.o
 .rel.exit.text
                0x0000000000000000        0x0 arch/x86/kernel/head_32.o
 .rel.text.page_aligned
                0x0000000000000000        0x0 arch/x86/kernel/head_32.o
 .rel.meminit.text
                0x0000000000000000        0x0 arch/x86/kernel/head_32.o
 .rel.rodata    0x0000000000000000        0x0 arch/x86/kernel/head_32.o
 .rel__ksymtab_gpl
                0x0000000000000000        0x0 arch/x86/kernel/head_32.o
 .rel__ksymtab  0x0000000000000000        0x0 arch/x86/kernel/head_32.o
 .rel.data.percpu.shared_aligned
                0x0000000000000000        0x0 arch/x86/kernel/head_32.o
 .rel__tracepoints
                0x0000000000000000        0x0 arch/x86/kernel/head_32.o
 .rel.sched.text
                0x0000000000000000        0x0 arch/x86/kernel/head_32.o
 .rel.spinlock.text
                0x0000000000000000        0x0 arch/x86/kernel/head_32.o
 .rel__kcrctab  0x0000000000000000        0x0 arch/x86/kernel/head_32.o
 .rel__kcrctab_unused
                0x0000000000000000        0x0 arch/x86/kernel/head_32.o
 .rel.devexit.text
                0x0000000000000000        0x0 arch/x86/kernel/head_32.o
                0x00000000c0c1f000                . = ALIGN (0x1000)

.bss            0x00000000c0c1f000   0x649224 load address 0x0000000000c1f000
                0x00000000c0c1f000                __bss_start = .
 *(.bss.page_aligned)
 .bss.page_aligned
                0x00000000c0c1f000     0x4000 arch/x86/kernel/head_32.o
                0x00000000c0c21000                trampoline_pg_dir
                0x00000000c0c22000                empty_zero_page
 .bss.page_aligned
                0x00000000c0c23000    0x27000 arch/x86/built-in.o
 *(.bss)
 .bss           0x00000000c0c4a000        0x0 arch/x86/kernel/head_32.o
 .bss           0x00000000c0c4a000        0x0 arch/x86/kernel/head32.o
 .bss           0x00000000c0c4a000        0x0 arch/x86/kernel/head.o
 .bss           0x00000000c0c4a000        0x0 arch/x86/kernel/init_task.o
 .bss           0x00000000c0c4a000      0x2a1 init/built-in.o
                0x00000000c0c4a000                saved_command_line
                0x00000000c0c4a004                reset_devices
                0x00000000c0c4a008                initcall_debug
                0x00000000c0c4a26c                ROOT_DEV
                0x00000000c0c4a280                initrd_below_start_ok
                0x00000000c0c4a284                initrd_start
                0x00000000c0c4a288                initrd_end
                0x00000000c0c4a28c                real_root_dev
                0x00000000c0c4a298                preset_lpj
                0x00000000c0c4a29c                lpj_fine
 *fill*         0x00000000c0c4a2a1        0x3 00
 .bss           0x00000000c0c4a2a4        0x0 usr/built-in.o
 *fill*         0x00000000c0c4a2a4      0xd5c 00
 .bss           0x00000000c0c4b000    0x128dc arch/x86/built-in.o
                0x00000000c0c4b000                xen_domain_type
                0x00000000c0c4b004                xen_start_info
                0x00000000c0c4b008                xen_initial_gdt
                0x00000000c0c4b020                xen_dummy_shared_info
                0x00000000c0c4c3b8                xen_cpu_initialized_map
                0x00000000c0c4c400                ignore_fpu_irq
                0x00000000c0c4c420                used_vectors
                0x00000000c0c4c444                generic_interrupt_extension
                0x00000000c0c4c448                irq_err_count
                0x00000000c0c4c454                timer_ack
                0x00000000c0c4c460                panic_on_unrecovered_nmi
                0x00000000c0c4c464                panic_on_io_nmi
                0x00000000c0c4c480                max_low_pfn_mapped
                0x00000000c0c4c484                max_pfn_mapped
                0x00000000c0c4c488                machine_id
                0x00000000c0c4c48c                machine_submodel_id
                0x00000000c0c4c490                BIOS_revision
                0x00000000c0c4c494                bootloader_type
                0x00000000c0c4c498                bootloader_version
                0x00000000c0c4c4a0                screen_info
                0x00000000c0c4c4e0                apm_info
                0x00000000c0c4c520                edd
                0x00000000c0c4c750                ist_info
                0x00000000c0c4c760                edid_info
                0x00000000c0c4c7e0                def_to_bigsmp
                0x00000000c0c4c7e4                saved_video_mode
                0x00000000c0c4c800                boot_params
                0x00000000c0c4d800                io_apic_irqs
                0x00000000c0c4d820                e820
                0x00000000c0c4e260                e820_saved
                0x00000000c0c4eca0                dma_ops
                0x00000000c0c4eca4                force_hpet_address
                0x00000000c0c4ecb8                arch_debugfs_dir
                0x00000000c0c4eccc                global_clock_event
                0x00000000c0c4ecf4                cmos_lock
                0x00000000c0c4ecfc                boot_option_idle_override
                0x00000000c0c4ed00                task_xstate_cachep
                0x00000000c0c4ed04                idle_halt
                0x00000000c0c4ed08                idle_nomwait
                0x00000000c0c4ed0c                pm_idle
                0x00000000c0c4ed20                xstate_size
                0x00000000c0c4ed40                pcntxt_mask
                0x00000000c0c4ed48                init_xstate_buf
                0x00000000c0c4ed60                fx_sw_reserved
                0x00000000c0c4eda0                num_cache_leaves
                0x00000000c0c4edb4                cpu_callin_mask
                0x00000000c0c4edb8                cpu_callout_mask
                0x00000000c0c4edbc                cpu_initialized_mask
                0x00000000c0c4edc0                cpu_sibling_setup_mask
                0x00000000c0c4ee00                mce_entry
                0x00000000c0c4ef00                mtrr_usage_table
                0x00000000c0c4f300                size_or_mask
                0x00000000c0c4f308                size_and_mask
                0x00000000c0c4f310                mtrr_if
                0x00000000c0c4f314                num_var_ranges
                0x00000000c0c4ff60                mtrr_tom2
                0x00000000c0c4ff80                mtrr_state
                0x00000000c0c518f0                acpi_irq_model
                0x00000000c0c518f4                acpi_lapic
                0x00000000c0c518f8                acpi_ioapic
                0x00000000c0c518fc                acpi_noirq
                0x00000000c0c51900                acpi_strict
                0x00000000c0c51904                acpi_disabled
                0x00000000c0c51908                acpi_pci_disabled
                0x00000000c0c5190c                acpi_rsdt_forced
                0x00000000c0c51914                acpi_wakeup_address
                0x00000000c0c51918                acpi_realmode_flags
                0x00000000c0c51938                port_cf9_safe
                0x00000000c0c5193c                pm_power_off
                0x00000000c0c51940                reboot_force
                0x00000000c0c519e0                apicid_2_node
                0x00000000c0c51ae0                init_deasserted
                0x00000000c0c51b00                enable_update_mptable
                0x00000000c0c51b20                apic_version
                0x00000000c0c51f20                pic_mode
                0x00000000c0c51f24                max_physical_apicid
                0x00000000c0c51f28                mp_lapic_addr
                0x00000000c0c51f2c                smp_found_config
                0x00000000c0c51f40                phys_cpu_present_map
                0x00000000c0c51f60                apic_verbosity
                0x00000000c0c51f64                local_apic_timer_c2_ok
                0x00000000c0c51f68                disable_apic
                0x00000000c0c51f6c                x2apic_mode
                0x00000000c0c51f70                num_processors
                0x00000000c0c51fe4                nmi_active
                0x00000000c0c51fe8                nmi_watchdog
                0x00000000c0c51fec                nmi_watchdog_enabled
                0x00000000c0c51ff0                unknown_nmi_panic
                0x00000000c0c52000                mp_bus_not_pci
                0x00000000c0c52024                nr_ioapics
                0x00000000c0c52040                nr_ioapic_registers
                0x00000000c0c52140                mp_ioapics
                0x00000000c0c52340                mp_irq_entries
                0x00000000c0c52360                mp_irqs
                0x00000000c0c52b60                skip_ioapic_setup
                0x00000000c0c52b64                ioapic_renumber_irq
                0x00000000c0c52b80                mp_gsi_routing
                0x00000000c0c52d80                irq_mis_count
                0x00000000c0c53300                efi
                0x00000000c0c53350                memmap
                0x00000000c0c53368                efi_enabled
                0x00000000c0c5336c                add_efi_memmap
                0x00000000c0c54520                hpet_address
                0x00000000c0c54524                hpet_force_user
                0x00000000c0c54528                hpet_msi_disable
                0x00000000c0c545bc                k8_northbridges
                0x00000000c0c545c0                num_k8_northbridges
                0x00000000c0c545e0                olpc_platform_info
                0x00000000c0c55000                direct_gbpages
                0x00000000c0c55004                after_bootmem
                0x00000000c0c56000                kmap_pte
                0x00000000c0c56004                kmap_prot
                0x00000000c0c5600c                highstart_pfn
                0x00000000c0c56010                highend_pfn
                0x00000000c0c57000                swsusp_pg_dir
                0x00000000c0c58cd4                fixmaps_set
                0x00000000c0c58ce0                nx_enabled
 *fill*         0x00000000c0c5d8dc        0x4 00
 .bss           0x00000000c0c5d8e0   0x5d2d40 kernel/built-in.o
                0x00000000c0c5d8e0                sched_smt_power_savings
                0x00000000c0c5d8e4                sched_mc_power_savings
                0x00000000c0c5d8e8                avenrun
                0x00000000c0c5d8f4                nohz_cpu_mask
                0x00000000c0c5d900                init_task_group
                0x00000000c0c5ed30                vm_area_cachep
                0x00000000c0c5ed34                sighand_cachep
                0x00000000c0c5ed38                total_forks
                0x00000000c0c5ed3c                nr_threads
                0x00000000c0c5ed40                files_cachep
                0x00000000c0c5ed44                fs_cachep
                0x00000000c0c5ed48                max_threads
                0x00000000c0c5edc0                panic_blink
                0x00000000c0c5edc4                panic_timeout
                0x00000000c0c5edc8                panic_on_oops
                0x00000000c0c5f220                oops_in_progress
                0x00000000c0c5f224                console_set_on_cmdline
                0x00000000c0c5f228                console_drivers
                0x00000000c0cdf730                sys_tz
                0x00000000c0cdf800                sysctl_legacy_va_layout
                0x00000000c0cdf8a0                boot_tvec_bases
                0x00000000c0ce0930                print_fatal_signals
                0x00000000c0ce0938                pm_power_off_prepare
                0x00000000c0ce093c                cad_pid
                0x00000000c0ce09d0                module_kset
                0x00000000c0ce09d4                module_sysfs_initialized
                0x00000000c0ce0cc0                kthreadd_task
                0x00000000c0ce0d2c                kernel_kobj
                0x00000000c0ce0e00                xtime
                0x00000000c0ce0e10                wall_to_monotonic
                0x00000000c0ce0e20                timekeeper
                0x00000000c0ce0e54                raw_time
                0x00000000c0ce0e80                tick_nsec
                0x00000000c0ce0e84                time_adjust
                0x00000000c0ce0e88                tick_length
                0x00000000c0ce0fe4                tick_next_period
                0x00000000c0ce0fec                tick_period
                0x00000000c0cf1080                lock_chains
                0x00000000c0d91080                nr_lock_classes
                0x00000000c0d91084                nr_list_entries
                0x00000000c0d91088                nr_lock_chains
                0x00000000c0d9108c                nr_chain_hlocks
                0x00000000c0d91090                nr_stack_trace_entries
                0x00000000c0d91094                nr_hardirq_chains
                0x00000000c0d91098                nr_softirq_chains
                0x00000000c0d9109c                nr_process_chains
                0x00000000c0d910a0                max_lockdep_depth
                0x00000000c0d910a4                max_bfs_queue_depth
                0x00000000c0d910a8                chain_lookup_hits
                0x00000000c0d910ac                chain_lookup_misses
                0x00000000c0d910b0                hardirqs_on_events
                0x00000000c0d910b4                hardirqs_off_events
                0x00000000c0d910b8                redundant_hardirqs_on
                0x00000000c0d910bc                redundant_hardirqs_off
                0x00000000c0d910c0                softirqs_on_events
                0x00000000c0d910c4                softirqs_off_events
                0x00000000c0d910c8                redundant_softirqs_on
                0x00000000c0d910cc                redundant_softirqs_off
                0x00000000c0d910d0                nr_unused_locks
                0x00000000c0d910d4                nr_cyclic_checks
                0x00000000c0d910d8                nr_find_usage_forwards_checks
                0x00000000c0d910dc                nr_find_usage_backwards_checks
                0x00000000c1200f00                modules_disabled
                0x00000000c1200f80                power_kobj
                0x00000000c1200f84                pm_flags
                0x00000000c1200f88                pm_wq
                0x00000000c1200fa8                swsusp_resume_device
                0x00000000c1200fb0                swsusp_resume_block
                0x00000000c1200fc4                restore_pblist
                0x00000000c1200fc8                alloc_normal
                0x00000000c1200fcc                alloc_highmem
                0x00000000c1201080                kexec_image
                0x00000000c1201084                kexec_crash_image
                0x00000000c1201088                crash_notes
                0x00000000c12010a0                vmcoreinfo_note
                0x00000000c12020c4                vmcoreinfo_size
                0x00000000c1204720                audit_sig_sid
                0x00000000c1204724                audit_enabled
                0x00000000c1204728                audit_ever_enabled
                0x00000000c120472c                audit_pid
                0x00000000c1204740                audit_inode_hash
                0x00000000c1204960                audit_ih
                0x00000000c1204964                audit_n_rules
                0x00000000c1204968                audit_signals
                0x00000000c1206000                kgdb_connected
                0x00000000c1206004                kgdb_setting_breakpoint
                0x00000000c1206008                kgdb_usethread
                0x00000000c120600c                kgdb_contthread
                0x00000000c1206010                kgdb_single_step
                0x00000000c120ad4c                irq_desc_lock_class
                0x00000000c120ad60                irq_default_affinity
                0x00000000c120ad6c                no_irq_affinity
                0x00000000c120ae28                delayacct_cache
                0x00000000c120ae34                taskstats_cache
                0x00000000c120af80                latencytop_enabled
                0x00000000c120cde0                ftrace_dump_on_oops
                0x00000000c120cde4                ring_buffer_expanded
                0x00000000c120cde8                trace_clock_id
                0x00000000c12300f4                trace_profile_buf
                0x00000000c12300f8                trace_profile_buf_nmi
                0x00000000c1230590                perf_swevent_enabled
 .bss           0x00000000c1230620     0x7194 mm/built-in.o
                0x00000000c1230620                max_low_pfn
                0x00000000c1230624                min_low_pfn
                0x00000000c1230628                max_pfn
                0x00000000c123062c                saved_max_pfn
                0x00000000c1230654                sysctl_panic_on_oom
                0x00000000c1230658                sysctl_oom_kill_allocating_task
                0x00000000c123065c                sysctl_oom_dump_tasks
                0x00000000c1230660                hashdist
                0x00000000c1230664                movable_zone
                0x00000000c1230668                percpu_pagelist_fraction
                0x00000000c12306c0                dirty_background_bytes
                0x00000000c12306c4                vm_dirty_bytes
                0x00000000c12306c8                vm_highmem_is_dirtyable
                0x00000000c12306cc                block_dump
                0x00000000c12306d0                laptop_mode
                0x00000000c1230890                page_cluster
                0x00000000c1230894                vm_total_pages
                0x00000000c1230898                scan_unevictable_pages
                0x00000000c1230900                vm_stat
                0x00000000c1230a08                mm_kobj
                0x00000000c1230a0c                mminit_loglevel
                0x00000000c1230a20                pkmap_page_table
                0x00000000c12352a0                mem_map
                0x00000000c12352a4                max_mapnr
                0x00000000c12352a8                num_physpages
                0x00000000c12352ac                high_memory
                0x00000000c12352c0                sysctl_overcommit_memory
                0x00000000c12352e0                vm_committed_as
                0x00000000c123532c                vmlist
                0x00000000c1235380                nr_swap_pages
                0x00000000c1235384                total_swap_pages
                0x00000000c1235c88                swap_token_mm
                0x00000000c1235ca0                hugepages_treat_as_movable
                0x00000000c1235cc0                hstates
                0x00000000c1235d78                default_hstate_idx
                0x00000000c1235da0                mem_section
                0x00000000c12376c0                swap_cgroup_ctrl
 *fill*         0x00000000c12377b4        0xc 00
 .bss           0x00000000c12377c0     0x2c94 fs/built-in.o
                0x00000000c1237cbc                suid_dumpable
                0x00000000c1237cc0                core_uses_pid
                0x00000000c1237cc4                core_pipe_limit
                0x00000000c1237d00                inodes_stat
                0x00000000c1237ee0                fs_kobj
                0x00000000c1237f54                nr_pdflush_threads
                0x00000000c1237f58                sysctl_drop_caches
                0x00000000c1237f6c                buffer_heads_over_limit
                0x00000000c1237f90                fs_bio_set
                0x00000000c1238060                fsnotify_grp_srcu
                0x00000000c12380b8                fsnotify_mask
                0x00000000c1238258                aio_nr
                0x00000000c12382c0                dqstats
                0x00000000c1238310                proc_mnt
                0x00000000c123833c                kcore_modules
                0x00000000c12393ec                sysfs_sb
                0x00000000c12393f0                sysfs_dir_cachep
                0x00000000c1239404                sysctl_hugetlb_shm_group
 .bss           0x00000000c123a454       0x44 ipc/built-in.o
 *fill*         0x00000000c123a498        0x8 00
 .bss           0x00000000c123a4a0     0x7600 security/built-in.o
                0x00000000c123a4b0                key_user_tree
                0x00000000c123a4b4                key_serial_tree
                0x00000000c123a5e8                mmap_min_addr
                0x00000000c123a5ec                security_ops
                0x00000000c123f634                selinux_secmark_refcount
                0x00000000c123f638                selinux_enforcing
                0x00000000c123f660                selinux_null
                0x00000000c123f664                selinuxfs_mount
                0x00000000c12410c0                selinux_xfrm_refcount
                0x00000000c12410ec                selinux_mls_enabled
                0x00000000c1241100                selinux_policycap_netpeer
                0x00000000c1241104                selinux_policycap_openperm
                0x00000000c1241120                policydb
                0x00000000c1241204                policydb_loaded_version
                0x00000000c1241208                ss_initialized
                0x00000000c1241280                ima_htable
                0x00000000c1241a88                ima_used_chip
                0x00000000c1241a8c                ima_initialized
 .bss           0x00000000c1241aa0       0x98 crypto/built-in.o
                0x00000000c1241aa8                kcrypto_wq
                0x00000000c1241ab4                fips_enabled
                0x00000000c1241b30                crypto_default_rng
 *fill*         0x00000000c1241b38        0x8 00
 .bss           0x00000000c1241b40      0x690 block/built-in.o
                0x00000000c1241b64                blk_requestq_cachep
                0x00000000c1241c30                blk_max_low_pfn
                0x00000000c1241c34                blk_max_pfn
                0x00000000c1241c80                block_depr
                0x00000000c12420a0                blk_default_cmd_filter
 .bss           0x00000000c12421d0        0x0 lib/lib.a(argv_split.o)
 .bss           0x00000000c12421d0        0x0 lib/lib.a(bug.o)
 .bss           0x00000000c12421d0        0x0 lib/lib.a(cmdline.o)
 .bss           0x00000000c12421d0        0x0 lib/lib.a(cpumask.o)
 .bss           0x00000000c12421d0        0x0 lib/lib.a(ctype.o)
 .bss           0x00000000c12421d0        0x0 lib/lib.a(dec_and_lock.o)
 .bss           0x00000000c12421d0        0x0 lib/lib.a(decompress.o)
 .bss           0x00000000c12421d0        0x4 lib/lib.a(decompress_bunzip2.o)
 .bss           0x00000000c12421d4        0x4 lib/lib.a(decompress_inflate.o)
 .bss           0x00000000c12421d8        0x4 lib/lib.a(decompress_unlzma.o)
 .bss           0x00000000c12421dc        0x0 lib/lib.a(extable.o)
 .bss           0x00000000c12421dc        0x0 lib/lib.a(find_next_bit.o)
 .bss           0x00000000c12421dc        0x4 lib/lib.a(idr.o)
 .bss           0x00000000c12421e0        0x0 lib/lib.a(int_sqrt.o)
 .bss           0x00000000c12421e0        0x0 lib/lib.a(ioremap.o)
 .bss           0x00000000c12421e0        0x0 lib/lib.a(is_single_threaded.o)
 .bss           0x00000000c12421e0        0x0 lib/lib.a(kobject.o)
 .bss           0x00000000c12421e0       0x10 lib/lib.a(kobject_uevent.o)
                0x00000000c12421e0                uevent_seqnum
 .bss           0x00000000c12421f0        0x0 lib/lib.a(kref.o)
 .bss           0x00000000c12421f0        0x0 lib/lib.a(plist.o)
 .bss           0x00000000c12421f0        0x0 lib/lib.a(prio_heap.o)
 *fill*         0x00000000c12421f0       0x10 00
 .bss           0x00000000c1242200       0x80 lib/lib.a(prio_tree.o)
 .bss           0x00000000c1242280        0x0 lib/lib.a(proportions.o)
 .bss           0x00000000c1242280        0x4 lib/lib.a(radix-tree.o)
 .bss           0x00000000c1242284        0x4 lib/lib.a(ratelimit.o)
 .bss           0x00000000c1242288        0x0 lib/lib.a(rbtree.o)
 .bss           0x00000000c1242288        0x0 lib/lib.a(reciprocal_div.o)
 .bss           0x00000000c1242288        0x0 lib/lib.a(rwsem.o)
 .bss           0x00000000c1242288        0x0 lib/lib.a(sha1.o)
 .bss           0x00000000c1242288        0x0 lib/lib.a(show_mem.o)
 .bss           0x00000000c1242288        0x0 lib/lib.a(string.o)
 .bss           0x00000000c1242288        0x8 lib/lib.a(vsprintf.o)
 .bss           0x00000000c1242290        0x0 arch/x86/lib/lib.a(checksum_32.o)
 .bss           0x00000000c1242290        0x0 arch/x86/lib/lib.a(delay.o)
 .bss           0x00000000c1242290        0x0 arch/x86/lib/lib.a(getuser.o)
 .bss           0x00000000c1242290        0x0 arch/x86/lib/lib.a(memcpy_32.o)
 .bss           0x00000000c1242290        0x0 arch/x86/lib/lib.a(putuser.o)
 .bss           0x00000000c1242290        0x0 arch/x86/lib/lib.a(semaphore_32.o)
 .bss           0x00000000c1242290        0x0 arch/x86/lib/lib.a(string_32.o)
 .bss           0x00000000c1242290        0x0 arch/x86/lib/lib.a(strstr_32.o)
 .bss           0x00000000c1242290        0x0 arch/x86/lib/lib.a(usercopy_32.o)
 .bss           0x00000000c1242290       0x18 lib/built-in.o
                0x00000000c1242290                debug_locks_silent
                0x00000000c1242298                dynamic_debug_enabled
                0x00000000c12422a0                dynamic_debug_enabled2
 .bss           0x00000000c12422a8        0x0 arch/x86/lib/built-in.o
 *fill*         0x00000000c12422a8       0x18 00
 .bss           0x00000000c12422c0    0x23340 drivers/built-in.o
                0x00000000c1242f00                resource_alignment_lock
                0x00000000c1243728                pci_pci_problems
                0x00000000c124372c                isa_dma_bridge_buggy
                0x00000000c1243758                pci_slots_kset
                0x00000000c1243780                pciehp_poll_mode
                0x00000000c1243784                pciehp_poll_time
                0x00000000c1243788                pciehp_debug
                0x00000000c124378c                pciehp_force
                0x00000000c1243790                pciehp_wq
                0x00000000c12437a0                acpiphp_debug
                0x00000000c1243820                fb_class
                0x00000000c1243824                fb_mode_option
                0x00000000c1243840                vgacon_text_mode_force
                0x00000000c12459fc                sleep_states
                0x00000000c1245a18                acpi_gbl_permanent_mmap
                0x00000000c1245a1c                acpi_root_dir
                0x00000000c1245a20                acpi_kobj
                0x00000000c1245a24                acpi_root
                0x00000000c1245a58                acpi_power_nocheck
                0x00000000c1245a68                acpi_irq_handled
                0x00000000c1245a6c                acpi_irq_not_handled
                0x00000000c1245a90                event_is_open
                0x00000000c1245b24                acpi_gbl_enable_interpreter_slack
                0x00000000c1245b25                acpi_gbl_all_methods_serialized
                0x00000000c1245b28                acpi_dbg_layer
                0x00000000c1245b2c                acpi_gbl_nesting_level
                0x00000000c1245b30                acpi_gbl_db_terminate_threads
                0x00000000c1245b31                acpi_gbl_abort_method
                0x00000000c1245b32                acpi_gbl_method_executing
                0x00000000c1245b34                acpi_gbl_startup_flags
                0x00000000c1245b38                acpi_gbl_trace_method_name
                0x00000000c1245b3c                acpi_gbl_trace_flags
                0x00000000c1245b40                acpi_current_gpe_count
                0x00000000c1245b44                acpi_gbl_FADT
                0x00000000c1245c38                acpi_gbl_original_dbg_level
                0x00000000c1245c3c                acpi_gbl_original_dbg_layer
                0x00000000c1245c40                acpi_gbl_trace_dbg_level
                0x00000000c1245c44                acpi_gbl_trace_dbg_layer
                0x00000000c1245c48                acpi_gbl_root_table_list
                0x00000000c1245c58                acpi_gbl_FACS
                0x00000000c1245c5c                acpi_gbl_xpm1a_status
                0x00000000c1245c68                acpi_gbl_xpm1a_enable
                0x00000000c1245c74                acpi_gbl_xpm1b_status
                0x00000000c1245c80                acpi_gbl_xpm1b_enable
                0x00000000c1245c8c                acpi_gbl_integer_bit_width
                0x00000000c1245c8d                acpi_gbl_integer_byte_width
                0x00000000c1245c8e                acpi_gbl_integer_nybble_width
                0x00000000c1245c90                acpi_gbl_namespace_rw_lock
                0x00000000c1245c9c                acpi_gbl_mutex_info
                0x00000000c1245cfc                acpi_gbl_global_lock_mutex
                0x00000000c1245d00                acpi_gbl_global_lock_semaphore
                0x00000000c1245d04                acpi_gbl_global_lock_handle
                0x00000000c1245d06                acpi_gbl_global_lock_acquired
                0x00000000c1245d07                acpi_gbl_global_lock_present
                0x00000000c1245d08                _acpi_gbl_gpe_lock
                0x00000000c1245d0c                _acpi_gbl_hardware_lock
                0x00000000c1245d10                acpi_gbl_namespace_cache
                0x00000000c1245d14                acpi_gbl_state_cache
                0x00000000c1245d18                acpi_gbl_ps_node_cache
                0x00000000c1245d1c                acpi_gbl_ps_node_ext_cache
                0x00000000c1245d20                acpi_gbl_operand_cache
                0x00000000c1245d24                acpi_gbl_device_notify
                0x00000000c1245d3c                acpi_gbl_system_notify
                0x00000000c1245d54                acpi_gbl_exception_handler
                0x00000000c1245d58                acpi_gbl_init_handler
                0x00000000c1245d5c                acpi_gbl_table_handler
                0x00000000c1245d60                acpi_gbl_table_handler_context
                0x00000000c1245d64                acpi_gbl_breakpoint_walk
                0x00000000c1245d68                acpi_gbl_owner_id_mask
                0x00000000c1245d88                acpi_gbl_last_owner_id_index
                0x00000000c1245d89                acpi_gbl_next_owner_id_offset
                0x00000000c1245d8c                acpi_gbl_original_mode
                0x00000000c1245d90                acpi_gbl_rsdp_original_location
                0x00000000c1245d94                acpi_gbl_ns_lookup_count
                0x00000000c1245d98                acpi_gbl_ps_find_count
                0x00000000c1245d9c                acpi_gbl_pm1_enable_register_save
                0x00000000c1245d9e                acpi_gbl_debugger_configuration
                0x00000000c1245d9f                acpi_gbl_step_to_next_call
                0x00000000c1245da0                acpi_gbl_acpi_hardware_present
                0x00000000c1245da1                acpi_gbl_events_initialized
                0x00000000c1245da2                acpi_gbl_system_awake_and_running
                0x00000000c1245da3                acpi_gbl_osi_data
                0x00000000c1245da4                acpi_gbl_root_node_struct
                0x00000000c1245db8                acpi_gbl_root_node
                0x00000000c1245dbc                acpi_gbl_fadt_gpe_device
                0x00000000c1245dc0                acpi_gbl_module_code_list
                0x00000000c1245dc4                acpi_gbl_current_walk_list
                0x00000000c1245dc8                acpi_gbl_cm_single_step
                0x00000000c1245dc9                acpi_gbl_sleep_type_a
                0x00000000c1245dca                acpi_gbl_sleep_type_b
                0x00000000c1245dcc                acpi_gbl_fixed_event_handlers
                0x00000000c1245df4                acpi_gbl_gpe_xrupt_list_head
                0x00000000c1245df8                acpi_gbl_gpe_fadt_blocks
                0x00000000c1245e00                acpi_gbl_db_output_flags
                0x00000000c1245e7c                pnp_lock
                0x00000000c1245e80                pnp_platform_devices
                0x00000000c1245e84                pnp_debug
                0x00000000c1245e8c                isapnp_disable
                0x00000000c124cbc4                xenstored_ready
                0x00000000c124cbc8                xen_store_interface
                0x00000000c124cbcc                xen_store_evtchn
                0x00000000c124e0a0                tty_class
                0x00000000c124e298                vt_dont_switch
                0x00000000c124e2a8                sel_cons
                0x00000000c124e2c0                vt_spawn_con
                0x00000000c124e2cc                shift_state
                0x00000000c124e2e0                kbd_table
                0x00000000c124e600                kmsg_redirect
                0x00000000c124e604                conswitchp
                0x00000000c124e620                vc_cons
                0x00000000c124eb0c                fg_console
                0x00000000c124eb10                last_console
                0x00000000c124eb20                con_buf
                0x00000000c124fb20                console_blanked
                0x00000000c124fb24                do_poke_blanked_console
                0x00000000c124fb28                console_blank_hook
                0x00000000c124fb2c                console_driver
                0x00000000c124fe80                funcbufleft
                0x00000000c12601a0                agp_bridge
                0x00000000c12601a4                agp_off
                0x00000000c12601a8                agp_try_unsupported_boot
                0x00000000c12601c0                agp_fe
                0x00000000c12601e4                agp_gatt_table
                0x00000000c12601e8                agp_memory_reserved
                0x00000000c1262510                platform_notify
                0x00000000c1262514                platform_notify_remove
                0x00000000c1262518                sysfs_dev_block_kobj
                0x00000000c126251c                sysfs_dev_char_kobj
                0x00000000c1262520                devices_kset
                0x00000000c1262554                total_cpus
                0x00000000c1262558                firmware_kobj
                0x00000000c1262568                hypervisor_kobj
                0x00000000c1263320                scsi_logging_level
                0x00000000c1263330                scsi_sdb_cache
                0x00000000c1263340                blank_transport_template
                0x00000000c1263540                scsi_nl_sock
                0x00000000c12635a0                libata_fua
                0x00000000c12635a4                libata_noacpi
                0x00000000c12635a8                libata_allow_tpm
                0x00000000c12635ac                ata_aux_wq
                0x00000000c1264660                mtd_table
                0x00000000c1264720                pcmcia_dev_list_lock
                0x00000000c12647a0                usb_debug_root
                0x00000000c12647a4                ksuspend_usb_wq
                0x00000000c12647a8                usb_debug_devices
                0x00000000c12647c8                mon_ops
                0x00000000c12647cc                usb_hcds_loaded
                0x00000000c1264cc0                mon_bus0
                0x00000000c1265100                rtc_class
                0x00000000c1265170                __i2c_first_dynamic_bus_num
                0x00000000c1265174                power_supply_class
                0x00000000c12651d4                mdp_major
                0x00000000c12651f4                edac_handlers
                0x00000000c12651f8                edac_err_assert
                0x00000000c1265200                cpufreq_global_kobject
                0x00000000c1265268                cpuidle_driver_lock
                0x00000000c126526c                cpuidle_curr_driver
                0x00000000c1265270                cpuidle_curr_governor
                0x00000000c1265280                dmi_available
                0x00000000c1265358                ibft_addr
                0x00000000c126535c                use_cyclone
                0x00000000c1265400                hid_debug
 .bss           0x00000000c1265600      0x15c arch/x86/pci/built-in.o
                0x00000000c126560c                pci_mmcfg_config
                0x00000000c1265610                pci_mmcfg_config_num
                0x00000000c12656e4                pcibios_enable_irq
                0x00000000c12656e8                pcibios_disable_irq
                0x00000000c1265730                noioapicreroute
                0x00000000c1265734                pci_config_lock
                0x00000000c1265738                noioapicquirk
                0x00000000c126573c                pci_routeirq
                0x00000000c1265740                pirq_table_addr
                0x00000000c1265744                pci_root_bus
                0x00000000c1265748                pcibios_scanned
                0x00000000c126574c                raw_pci_ops
                0x00000000c1265750                raw_pci_ext_ops
                0x00000000c1265754                pci_early_dump_regs
 *fill*         0x00000000c126575c        0x4 00
 .bss           0x00000000c1265760       0x64 arch/x86/power/built-in.o
                0x00000000c1265760                saved_context_ebx
                0x00000000c1265764                saved_context_esp
                0x00000000c1265768                saved_context_ebp
                0x00000000c126576c                saved_context_esi
                0x00000000c1265770                saved_context_edi
                0x00000000c1265774                saved_context_eflags
                0x00000000c12657c0                resume_pg_dir
 .bss           0x00000000c12657c4        0x0 arch/x86/video/built-in.o
 *fill*         0x00000000c12657c4       0x1c 00
 .bss           0x00000000c12657e0     0x2a40 net/built-in.o
                0x00000000c12659a0                init_net
                0x00000000c1266180                flow_cache_genid
                0x00000000c12662e0                proc_net_netfilter
                0x00000000c12662e4                ip_ct_attach
                0x00000000c12662e8                nf_ct_destroy
                0x00000000c126666c                inet_peer_idlock
                0x00000000c1266680                inet_protos
                0x00000000c1266bfc                ip_ra_chain
                0x00000000c1266c04                tcp_orphan_count
                0x00000000c1266c1c                tcp_memory_allocated
                0x00000000c1266c20                tcp_sockets_allocated
                0x00000000c1266c60                tcp_hashinfo
                0x00000000c1266da4                sysctl_tcp_max_ssthresh
                0x00000000c1266dc0                udp_table
                0x00000000c12671c0                udp_memory_allocated
                0x00000000c12671e0                udplite_table
                0x00000000c12675e0                clip_tbl_hook
                0x00000000c1267600                ipv4_config
                0x00000000c1267b20                syncookie_secret
                0x00000000c1267ba8                ip_nat_decode_session
                0x00000000c1267bac                cipso_v4_rbm_optfmt
                0x00000000c12681c4                unix_tot_inflight
                0x00000000c126820c                netlabel_mgmt_protocount
 .bss           0x00000000c1268220        0x4 lib/lib.a(klist.o)
 .bss           0x00000000c1268224        0x0 .tmp_kallsyms3.o
                0x00000000c1268224                . = ALIGN (0x4)
                0x00000000c1268224                __bss_stop = .
                0x00000000c1269000                . = ALIGN (0x1000)

.brk            0x00000000c1269000   0x125000 load address 0x0000000001269000
                0x00000000c1269000                __brk_base = .
                0x00000000c1279000                . = (. + 0x10000)
 *fill*         0x00000000c1269000    0x10000 00
 *(.brk_reservation)
 .brk_reservation
                0x00000000c1279000   0x105000 arch/x86/kernel/head_32.o
 .brk_reservation
                0x00000000c137e000    0x10000 arch/x86/built-in.o
                0x00000000c138e000                __brk_limit = .

.end            0x00000000c138e000        0x0 load address 0x000000000138e000
                0x00000000c138e000                _end = .

.stab
 *(.stab)

.stabstr
 *(.stabstr)

.stab.excl
 *(.stab.excl)

.stab.exclstr
 *(.stab.exclstr)

.stab.index
 *(.stab.index)

.stab.indexstr
 *(.stab.indexstr)

.comment        0x0000000000000000       0x2c
 *(.comment)
 .comment       0x0000000000000000       0x2c arch/x86/kernel/head32.o
                                         0x2d (size before relaxing)
 .comment       0x0000000000000000       0x2d arch/x86/kernel/head.o
 .comment       0x0000000000000000       0x2d arch/x86/kernel/init_task.o
 .comment       0x0000000000000000      0x168 init/built-in.o
 .comment       0x0000000000000000     0x1b6c arch/x86/built-in.o
 .comment       0x0000000000000000     0x197d kernel/built-in.o
 .comment       0x0000000000000000      0x97e mm/built-in.o
 .comment       0x0000000000000000     0x159f fs/built-in.o
 .comment       0x0000000000000000      0x1c2 ipc/built-in.o
 .comment       0x0000000000000000      0x843 security/built-in.o
 .comment       0x0000000000000000      0x438 crypto/built-in.o
 .comment       0x0000000000000000      0x3de block/built-in.o
 .comment       0x0000000000000000       0x2d lib/lib.a(argv_split.o)
 .comment       0x0000000000000000       0x2d lib/lib.a(bug.o)
 .comment       0x0000000000000000       0x2d lib/lib.a(cmdline.o)
 .comment       0x0000000000000000       0x2d lib/lib.a(cpumask.o)
 .comment       0x0000000000000000       0x2d lib/lib.a(ctype.o)
 .comment       0x0000000000000000       0x2d lib/lib.a(dec_and_lock.o)
 .comment       0x0000000000000000       0x2d lib/lib.a(decompress.o)
 .comment       0x0000000000000000       0x2d lib/lib.a(decompress_bunzip2.o)
 .comment       0x0000000000000000       0x2d lib/lib.a(decompress_inflate.o)
 .comment       0x0000000000000000       0x2d lib/lib.a(decompress_unlzma.o)
 .comment       0x0000000000000000       0x2d lib/lib.a(extable.o)
 .comment       0x0000000000000000       0x2d lib/lib.a(find_next_bit.o)
 .comment       0x0000000000000000       0x2d lib/lib.a(idr.o)
 .comment       0x0000000000000000       0x2d lib/lib.a(int_sqrt.o)
 .comment       0x0000000000000000       0x2d lib/lib.a(ioremap.o)
 .comment       0x0000000000000000       0x2d lib/lib.a(is_single_threaded.o)
 .comment       0x0000000000000000       0x2d lib/lib.a(kobject.o)
 .comment       0x0000000000000000       0x2d lib/lib.a(kobject_uevent.o)
 .comment       0x0000000000000000       0x2d lib/lib.a(kref.o)
 .comment       0x0000000000000000       0x2d lib/lib.a(plist.o)
 .comment       0x0000000000000000       0x2d lib/lib.a(prio_heap.o)
 .comment       0x0000000000000000       0x2d lib/lib.a(prio_tree.o)
 .comment       0x0000000000000000       0x2d lib/lib.a(proportions.o)
 .comment       0x0000000000000000       0x2d lib/lib.a(radix-tree.o)
 .comment       0x0000000000000000       0x2d lib/lib.a(ratelimit.o)
 .comment       0x0000000000000000       0x2d lib/lib.a(rbtree.o)
 .comment       0x0000000000000000       0x2d lib/lib.a(reciprocal_div.o)
 .comment       0x0000000000000000       0x2d lib/lib.a(rwsem.o)
 .comment       0x0000000000000000       0x2d lib/lib.a(sha1.o)
 .comment       0x0000000000000000       0x2d lib/lib.a(show_mem.o)
 .comment       0x0000000000000000       0x2d lib/lib.a(string.o)
 .comment       0x0000000000000000       0x2d lib/lib.a(vsprintf.o)
 .comment       0x0000000000000000       0x2d arch/x86/lib/lib.a(delay.o)
 .comment       0x0000000000000000       0x2d arch/x86/lib/lib.a(memcpy_32.o)
 .comment       0x0000000000000000       0x2d arch/x86/lib/lib.a(string_32.o)
 .comment       0x0000000000000000       0x2d arch/x86/lib/lib.a(strstr_32.o)
 .comment       0x0000000000000000       0x2d arch/x86/lib/lib.a(usercopy_32.o)
 .comment       0x0000000000000000      0x6ae lib/built-in.o
 .comment       0x0000000000000000       0xe1 arch/x86/lib/built-in.o
 .comment       0x0000000000000000     0x5a87 drivers/built-in.o
 .comment       0x0000000000000000      0x276 arch/x86/pci/built-in.o
 .comment       0x0000000000000000       0x5a arch/x86/power/built-in.o
 .comment       0x0000000000000000       0x2d arch/x86/video/built-in.o
 .comment       0x0000000000000000     0x1707 net/built-in.o
 .comment       0x0000000000000000       0x2d lib/lib.a(klist.o)

.debug
 *(.debug)

.line
 *(.line)

.debug_srcinfo
 *(.debug_srcinfo)

.debug_sfnames
 *(.debug_sfnames)

.debug_aranges  0x0000000000000000     0xe330
 *(.debug_aranges)
 .debug_aranges
                0x0000000000000000       0x30 arch/x86/kernel/head_32.o
 .debug_aranges
                0x0000000000000030       0x20 arch/x86/kernel/head32.o
 .debug_aranges
                0x0000000000000050       0x20 arch/x86/kernel/head.o
 .debug_aranges
                0x0000000000000070      0x2c8 init/built-in.o
 .debug_aranges
                0x0000000000000338     0x23e8 arch/x86/built-in.o
 .debug_aranges
                0x0000000000002720     0x1b78 kernel/built-in.o
 .debug_aranges
                0x0000000000004298      0xab8 mm/built-in.o
 .debug_aranges
                0x0000000000004d50     0x11b8 fs/built-in.o
 .debug_aranges
                0x0000000000005f08      0x178 ipc/built-in.o
 .debug_aranges
                0x0000000000006080      0x6b0 security/built-in.o
 .debug_aranges
                0x0000000000006730      0x3a8 crypto/built-in.o
 .debug_aranges
                0x0000000000006ad8      0x390 block/built-in.o
 .debug_aranges
                0x0000000000006e68       0x20 lib/lib.a(argv_split.o)
 .debug_aranges
                0x0000000000006e88       0x20 lib/lib.a(bug.o)
 .debug_aranges
                0x0000000000006ea8       0x20 lib/lib.a(cmdline.o)
 .debug_aranges
                0x0000000000006ec8       0x20 lib/lib.a(cpumask.o)
 .debug_aranges
                0x0000000000006ee8       0x20 lib/lib.a(dec_and_lock.o)
 .debug_aranges
                0x0000000000006f08       0x20 lib/lib.a(decompress.o)
 .debug_aranges
                0x0000000000006f28       0x40 lib/lib.a(decompress_bunzip2.o)
 .debug_aranges
                0x0000000000006f68       0x28 lib/lib.a(decompress_inflate.o)
 .debug_aranges
                0x0000000000006f90       0x48 lib/lib.a(decompress_unlzma.o)
 .debug_aranges
                0x0000000000006fd8       0x20 lib/lib.a(extable.o)
 .debug_aranges
                0x0000000000006ff8       0x20 lib/lib.a(find_next_bit.o)
 .debug_aranges
                0x0000000000007018       0x28 lib/lib.a(idr.o)
 .debug_aranges
                0x0000000000007040       0x20 lib/lib.a(int_sqrt.o)
 .debug_aranges
                0x0000000000007060       0x20 lib/lib.a(ioremap.o)
 .debug_aranges
                0x0000000000007080       0x20 lib/lib.a(is_single_threaded.o)
 .debug_aranges
                0x00000000000070a0       0x20 lib/lib.a(kobject.o)
 .debug_aranges
                0x00000000000070c0       0x28 lib/lib.a(kobject_uevent.o)
 .debug_aranges
                0x00000000000070e8       0x20 lib/lib.a(kref.o)
 .debug_aranges
                0x0000000000007108       0x20 lib/lib.a(plist.o)
 .debug_aranges
                0x0000000000007128       0x20 lib/lib.a(prio_heap.o)
 .debug_aranges
                0x0000000000007148       0x28 lib/lib.a(prio_tree.o)
 .debug_aranges
                0x0000000000007170       0x20 lib/lib.a(proportions.o)
 .debug_aranges
                0x0000000000007190       0x28 lib/lib.a(radix-tree.o)
 .debug_aranges
                0x00000000000071b8       0x20 lib/lib.a(ratelimit.o)
 .debug_aranges
                0x00000000000071d8       0x20 lib/lib.a(rbtree.o)
 .debug_aranges
                0x00000000000071f8       0x20 lib/lib.a(reciprocal_div.o)
 .debug_aranges
                0x0000000000007218       0x38 lib/lib.a(rwsem.o)
 .debug_aranges
                0x0000000000007250       0x20 lib/lib.a(sha1.o)
 .debug_aranges
                0x0000000000007270       0x20 lib/lib.a(show_mem.o)
 .debug_aranges
                0x0000000000007290       0x20 lib/lib.a(string.o)
 .debug_aranges
                0x00000000000072b0       0x20 lib/lib.a(vsprintf.o)
 .debug_aranges
                0x00000000000072d0       0x28 arch/x86/lib/lib.a(checksum_32.o)
 .debug_aranges
                0x00000000000072f8       0x28 arch/x86/lib/lib.a(delay.o)
 .debug_aranges
                0x0000000000007320       0x20 arch/x86/lib/lib.a(getuser.o)
 .debug_aranges
                0x0000000000007340       0x20 arch/x86/lib/lib.a(memcpy_32.o)
 .debug_aranges
                0x0000000000007360       0x20 arch/x86/lib/lib.a(putuser.o)
 .debug_aranges
                0x0000000000007380       0x20 arch/x86/lib/lib.a(semaphore_32.o)
 .debug_aranges
                0x00000000000073a0       0x20 arch/x86/lib/lib.a(string_32.o)
 .debug_aranges
                0x00000000000073c0       0x20 arch/x86/lib/lib.a(strstr_32.o)
 .debug_aranges
                0x00000000000073e0       0x20 arch/x86/lib/lib.a(usercopy_32.o)
 .debug_aranges
                0x0000000000007400      0x4e8 lib/built-in.o
 .debug_aranges
                0x00000000000078e8       0xa0 arch/x86/lib/built-in.o
 .debug_aranges
                0x0000000000007988     0x51a0 drivers/built-in.o
 .debug_aranges
                0x000000000000cb28      0x3d8 arch/x86/pci/built-in.o
 .debug_aranges
                0x000000000000cf00       0x60 arch/x86/power/built-in.o
 .debug_aranges
                0x000000000000cf60       0x20 arch/x86/video/built-in.o
 .debug_aranges
                0x000000000000cf80     0x1390 net/built-in.o
 .debug_aranges
                0x000000000000e310       0x20 lib/lib.a(klist.o)

.debug_pubnames
                0x0000000000000000    0x546bc
 *(.debug_pubnames)
 .debug_pubnames
                0x0000000000000000       0x42 arch/x86/kernel/head32.o
 .debug_pubnames
                0x0000000000000042       0x44 arch/x86/kernel/head.o
 .debug_pubnames
                0x0000000000000086       0x9b arch/x86/kernel/init_task.o
 .debug_pubnames
                0x0000000000000121      0x465 init/built-in.o
 .debug_pubnames
                0x0000000000000586     0x8bf6 arch/x86/built-in.o
 .debug_pubnames
                0x000000000000917c    0x10020 kernel/built-in.o
 .debug_pubnames
                0x000000000001919c     0x4e37 mm/built-in.o
 .debug_pubnames
                0x000000000001dfd3     0x9250 fs/built-in.o
 .debug_pubnames
                0x0000000000027223      0xadb ipc/built-in.o
 .debug_pubnames
                0x0000000000027cfe     0x3c98 security/built-in.o
 .debug_pubnames
                0x000000000002b996      0xfd7 crypto/built-in.o
 .debug_pubnames
                0x000000000002c96d     0x1b04 block/built-in.o
 .debug_pubnames
                0x000000000002e471       0x49 lib/lib.a(argv_split.o)
 .debug_pubnames
                0x000000000002e4ba       0x77 lib/lib.a(bug.o)
 .debug_pubnames
                0x000000000002e531       0x58 lib/lib.a(cmdline.o)
 .debug_pubnames
                0x000000000002e589       0x89 lib/lib.a(cpumask.o)
 .debug_pubnames
                0x000000000002e612       0x37 lib/lib.a(ctype.o)
 .debug_pubnames
                0x000000000002e649       0x45 lib/lib.a(dec_and_lock.o)
 .debug_pubnames
                0x000000000002e68e       0x28 lib/lib.a(decompress.o)
 .debug_pubnames
                0x000000000002e6b6       0x38 lib/lib.a(decompress_bunzip2.o)
 .debug_pubnames
                0x000000000002e6ee       0x37 lib/lib.a(decompress_inflate.o)
 .debug_pubnames
                0x000000000002e725       0x37 lib/lib.a(decompress_unlzma.o)
 .debug_pubnames
                0x000000000002e75c       0x66 lib/lib.a(extable.o)
 .debug_pubnames
                0x000000000002e7c2       0x80 lib/lib.a(find_next_bit.o)
 .debug_pubnames
                0x000000000002e842      0x155 lib/lib.a(idr.o)
 .debug_pubnames
                0x000000000002e997       0x39 lib/lib.a(int_sqrt.o)
 .debug_pubnames
                0x000000000002e9d0       0x43 lib/lib.a(ioremap.o)
 .debug_pubnames
                0x000000000002ea13       0x4b lib/lib.a(is_single_threaded.o)
 .debug_pubnames
                0x000000000002ea5e      0x19e lib/lib.a(kobject.o)
 .debug_pubnames
                0x000000000002ebfc       0xa5 lib/lib.a(kobject_uevent.o)
 .debug_pubnames
                0x000000000002eca1       0x61 lib/lib.a(kref.o)
 .debug_pubnames
                0x000000000002ed02       0x48 lib/lib.a(plist.o)
 .debug_pubnames
                0x000000000002ed4a       0x58 lib/lib.a(prio_heap.o)
 .debug_pubnames
                0x000000000002eda2       0x92 lib/lib.a(prio_tree.o)
 .debug_pubnames
                0x000000000002ee34      0x145 lib/lib.a(proportions.o)
 .debug_pubnames
                0x000000000002ef79      0x1c1 lib/lib.a(radix-tree.o)
 .debug_pubnames
                0x000000000002f13a       0x3c lib/lib.a(ratelimit.o)
 .debug_pubnames
                0x000000000002f176       0x92 lib/lib.a(rbtree.o)
 .debug_pubnames
                0x000000000002f208       0x27 lib/lib.a(reciprocal_div.o)
 .debug_pubnames
                0x000000000002f22f       0x9c lib/lib.a(rwsem.o)
 .debug_pubnames
                0x000000000002f2cb       0x4b lib/lib.a(sha1.o)
 .debug_pubnames
                0x000000000002f316       0x39 lib/lib.a(show_mem.o)
 .debug_pubnames
                0x000000000002f34f       0xde lib/lib.a(string.o)
 .debug_pubnames
                0x000000000002f42d      0x158 lib/lib.a(vsprintf.o)
 .debug_pubnames
                0x000000000002f585       0x8e arch/x86/lib/lib.a(delay.o)
 .debug_pubnames
                0x000000000002f613       0x4e arch/x86/lib/lib.a(memcpy_32.o)
 .debug_pubnames
                0x000000000002f661       0xaa arch/x86/lib/lib.a(string_32.o)
 .debug_pubnames
                0x000000000002f70b       0x1d arch/x86/lib/lib.a(strstr_32.o)
 .debug_pubnames
                0x000000000002f728      0x152 arch/x86/lib/lib.a(usercopy_32.o)
 .debug_pubnames
                0x000000000002f87a     0x12ae lib/built-in.o
 .debug_pubnames
                0x0000000000030b28      0x30e arch/x86/lib/built-in.o
 .debug_pubnames
                0x0000000000030e36    0x19b76 drivers/built-in.o
 .debug_pubnames
                0x000000000004a9ac      0x826 arch/x86/pci/built-in.o
 .debug_pubnames
                0x000000000004b1d2      0x14f arch/x86/power/built-in.o
 .debug_pubnames
                0x000000000004b321       0x45 arch/x86/video/built-in.o
 .debug_pubnames
                0x000000000004b366     0x9245 net/built-in.o
 .debug_pubnames
                0x00000000000545ab      0x111 lib/lib.a(klist.o)

.debug_info     0x0000000000000000  0x3b6bfbd
 *(.debug_info .gnu.linkonce.wi.*)
 .debug_info    0x0000000000000000       0x64 arch/x86/kernel/head_32.o
 .debug_info    0x0000000000000064     0x36fe arch/x86/kernel/head32.o
 .debug_info    0x0000000000003762     0x1ecf arch/x86/kernel/head.o
 .debug_info    0x0000000000005631     0xddc2 arch/x86/kernel/init_task.o
 .debug_info    0x00000000000133f3    0x63f49 init/built-in.o
 .debug_info    0x000000000007733c   0x56d816 arch/x86/built-in.o
 .debug_info    0x00000000005e4b52   0x6b0e79 kernel/built-in.o
 .debug_info    0x0000000000c959cb   0x2c32cf mm/built-in.o
 .debug_info    0x0000000000f58c9a   0x5bbd1d fs/built-in.o
 .debug_info    0x00000000015149b7    0x76a7e ipc/built-in.o
 .debug_info    0x000000000158b435   0x288bc4 security/built-in.o
 .debug_info    0x0000000001813ff9   0x107d71 crypto/built-in.o
 .debug_info    0x000000000191bd6a   0x154c59 block/built-in.o
 .debug_info    0x0000000001a709c3     0x395d lib/lib.a(argv_split.o)
 .debug_info    0x0000000001a74320     0x738e lib/lib.a(bug.o)
 .debug_info    0x0000000001a7b6ae     0x3804 lib/lib.a(cmdline.o)
 .debug_info    0x0000000001a7eeb2     0x39ca lib/lib.a(cpumask.o)
 .debug_info    0x0000000001a8287c     0x35d4 lib/lib.a(ctype.o)
 .debug_info    0x0000000001a85e50     0x38b6 lib/lib.a(dec_and_lock.o)
 .debug_info    0x0000000001a89706      0x1df lib/lib.a(decompress.o)
 .debug_info    0x0000000001a898e5     0x3e28 lib/lib.a(decompress_bunzip2.o)
 .debug_info    0x0000000001a8d70d     0x3bf3 lib/lib.a(decompress_inflate.o)
 .debug_info    0x0000000001a91300     0x45b1 lib/lib.a(decompress_unlzma.o)
 .debug_info    0x0000000001a958b1     0x3fb0 lib/lib.a(extable.o)
 .debug_info    0x0000000001a99861     0x3967 lib/lib.a(find_next_bit.o)
 .debug_info    0x0000000001a9d1c8     0x51bd lib/lib.a(idr.o)
 .debug_info    0x0000000001aa2385     0x35fa lib/lib.a(int_sqrt.o)
 .debug_info    0x0000000001aa597f     0x6d32 lib/lib.a(ioremap.o)
 .debug_info    0x0000000001aac6b1     0x6408 lib/lib.a(is_single_threaded.o)
 .debug_info    0x0000000001ab2ab9     0x5cd5 lib/lib.a(kobject.o)
 .debug_info    0x0000000001ab878e    0x118a9 lib/lib.a(kobject_uevent.o)
 .debug_info    0x0000000001aca037     0x3927 lib/lib.a(kref.o)
 .debug_info    0x0000000001acd95e     0x21dc lib/lib.a(plist.o)
 .debug_info    0x0000000001acfb3a     0x350f lib/lib.a(prio_heap.o)
 .debug_info    0x0000000001ad3049     0x4c58 lib/lib.a(prio_tree.o)
 .debug_info    0x0000000001ad7ca1     0x43a3 lib/lib.a(proportions.o)
 .debug_info    0x0000000001adc044     0x5a6b lib/lib.a(radix-tree.o)
 .debug_info    0x0000000001ae1aaf     0x366d lib/lib.a(ratelimit.o)
 .debug_info    0x0000000001ae511c     0x3e02 lib/lib.a(rbtree.o)
 .debug_info    0x0000000001ae8f1e      0x10f lib/lib.a(reciprocal_div.o)
 .debug_info    0x0000000001ae902d     0x7be0 lib/lib.a(rwsem.o)
 .debug_info    0x0000000001af0c0d     0x384f lib/lib.a(sha1.o)
 .debug_info    0x0000000001af445c     0x6a49 lib/lib.a(show_mem.o)
 .debug_info    0x0000000001afaea5     0x41bf lib/lib.a(string.o)
 .debug_info    0x0000000001aff064    0x135b2 lib/lib.a(vsprintf.o)
 .debug_info    0x0000000001b12616       0x65 arch/x86/lib/lib.a(checksum_32.o)
 .debug_info    0x0000000001b1267b     0x75ea arch/x86/lib/lib.a(delay.o)
 .debug_info    0x0000000001b19c65       0x65 arch/x86/lib/lib.a(getuser.o)
 .debug_info    0x0000000001b19cca     0x38d0 arch/x86/lib/lib.a(memcpy_32.o)
 .debug_info    0x0000000001b1d59a       0x65 arch/x86/lib/lib.a(putuser.o)
 .debug_info    0x0000000001b1d5ff       0x6a arch/x86/lib/lib.a(semaphore_32.o)
 .debug_info    0x0000000001b1d669     0x3cdc arch/x86/lib/lib.a(string_32.o)
 .debug_info    0x0000000001b21345       0xe4 arch/x86/lib/lib.a(strstr_32.o)
 .debug_info    0x0000000001b21429     0xdb6c arch/x86/lib/lib.a(usercopy_32.o)
 .debug_info    0x0000000001b2ef95    0xaf756 lib/built-in.o
 .debug_info    0x0000000001bde6eb    0x126b2 arch/x86/lib/built-in.o
 .debug_info    0x0000000001bf0d9d  0x15239db drivers/built-in.o
 .debug_info    0x0000000003114778    0x76020 arch/x86/pci/built-in.o
 .debug_info    0x000000000318a798    0x117c4 arch/x86/power/built-in.o
 .debug_info    0x000000000319bf5c     0xcc65 arch/x86/video/built-in.o
 .debug_info    0x00000000031a8bc1   0x9bb36d net/built-in.o
 .debug_info    0x0000000003b63f2e     0x808f lib/lib.a(klist.o)

.debug_abbrev   0x0000000000000000   0x194fba
 *(.debug_abbrev)
 .debug_abbrev  0x0000000000000000       0x12 arch/x86/kernel/head_32.o
 .debug_abbrev  0x0000000000000012      0x2a9 arch/x86/kernel/head32.o
 .debug_abbrev  0x00000000000002bb      0x2ba arch/x86/kernel/head.o
 .debug_abbrev  0x0000000000000575      0x2eb arch/x86/kernel/init_task.o
 .debug_abbrev  0x0000000000000860     0x237b init/built-in.o
 .debug_abbrev  0x0000000000002bdb    0x2d2fe arch/x86/built-in.o
 .debug_abbrev  0x000000000002fed9    0x2f74d kernel/built-in.o
 .debug_abbrev  0x000000000005f626    0x122e0 mm/built-in.o
 .debug_abbrev  0x0000000000071906    0x26df8 fs/built-in.o
 .debug_abbrev  0x00000000000986fe     0x33e1 ipc/built-in.o
 .debug_abbrev  0x000000000009badf     0xece9 security/built-in.o
 .debug_abbrev  0x00000000000aa7c8     0x71da crypto/built-in.o
 .debug_abbrev  0x00000000000b19a2     0x76b9 block/built-in.o
 .debug_abbrev  0x00000000000b905b      0x406 lib/lib.a(argv_split.o)
 .debug_abbrev  0x00000000000b9461      0x3f8 lib/lib.a(bug.o)
 .debug_abbrev  0x00000000000b9859      0x330 lib/lib.a(cmdline.o)
 .debug_abbrev  0x00000000000b9b89      0x391 lib/lib.a(cpumask.o)
 .debug_abbrev  0x00000000000b9f1a      0x26e lib/lib.a(ctype.o)
 .debug_abbrev  0x00000000000ba188      0x381 lib/lib.a(dec_and_lock.o)
 .debug_abbrev  0x00000000000ba509       0xee lib/lib.a(decompress.o)
 .debug_abbrev  0x00000000000ba5f7      0x4b2 lib/lib.a(decompress_bunzip2.o)
 .debug_abbrev  0x00000000000baaa9      0x3e7 lib/lib.a(decompress_inflate.o)
 .debug_abbrev  0x00000000000bae90      0x4fa lib/lib.a(decompress_unlzma.o)
 .debug_abbrev  0x00000000000bb38a      0x34c lib/lib.a(extable.o)
 .debug_abbrev  0x00000000000bb6d6      0x30c lib/lib.a(find_next_bit.o)
 .debug_abbrev  0x00000000000bb9e2      0x5da lib/lib.a(idr.o)
 .debug_abbrev  0x00000000000bbfbc      0x2a5 lib/lib.a(int_sqrt.o)
 .debug_abbrev  0x00000000000bc261      0x44d lib/lib.a(ioremap.o)
 .debug_abbrev  0x00000000000bc6ae      0x39e lib/lib.a(is_single_threaded.o)
 .debug_abbrev  0x00000000000bca4c      0x5f7 lib/lib.a(kobject.o)
 .debug_abbrev  0x00000000000bd043      0x54d lib/lib.a(kobject_uevent.o)
 .debug_abbrev  0x00000000000bd590      0x37d lib/lib.a(kref.o)
 .debug_abbrev  0x00000000000bd90d      0x35b lib/lib.a(plist.o)
 .debug_abbrev  0x00000000000bdc68      0x374 lib/lib.a(prio_heap.o)
 .debug_abbrev  0x00000000000bdfdc      0x486 lib/lib.a(prio_tree.o)
 .debug_abbrev  0x00000000000be462      0x55e lib/lib.a(proportions.o)
 .debug_abbrev  0x00000000000be9c0      0x56c lib/lib.a(radix-tree.o)
 .debug_abbrev  0x00000000000bef2c      0x2bf lib/lib.a(ratelimit.o)
 .debug_abbrev  0x00000000000bf1eb      0x45c lib/lib.a(rbtree.o)
 .debug_abbrev  0x00000000000bf647       0x8f lib/lib.a(reciprocal_div.o)
 .debug_abbrev  0x00000000000bf6d6      0x502 lib/lib.a(rwsem.o)
 .debug_abbrev  0x00000000000bfbd8      0x347 lib/lib.a(sha1.o)
 .debug_abbrev  0x00000000000bff1f      0x422 lib/lib.a(show_mem.o)
 .debug_abbrev  0x00000000000c0341      0x443 lib/lib.a(string.o)
 .debug_abbrev  0x00000000000c0784      0x547 lib/lib.a(vsprintf.o)
 .debug_abbrev  0x00000000000c0ccb       0x12 arch/x86/lib/lib.a(checksum_32.o)
 .debug_abbrev  0x00000000000c0cdd      0x427 arch/x86/lib/lib.a(delay.o)
 .debug_abbrev  0x00000000000c1104       0x14 arch/x86/lib/lib.a(getuser.o)
 .debug_abbrev  0x00000000000c1118      0x379 arch/x86/lib/lib.a(memcpy_32.o)
 .debug_abbrev  0x00000000000c1491       0x14 arch/x86/lib/lib.a(putuser.o)
 .debug_abbrev  0x00000000000c14a5       0x14 arch/x86/lib/lib.a(semaphore_32.o)
 .debug_abbrev  0x00000000000c14b9      0x2d0 arch/x86/lib/lib.a(string_32.o)
 .debug_abbrev  0x00000000000c1789       0x7e arch/x86/lib/lib.a(strstr_32.o)
 .debug_abbrev  0x00000000000c1807      0x550 arch/x86/lib/lib.a(usercopy_32.o)
 .debug_abbrev  0x00000000000c1d57     0x8357 lib/built-in.o
 .debug_abbrev  0x00000000000ca0ae     0x102b arch/x86/lib/built-in.o
 .debug_abbrev  0x00000000000cb0d9    0x9899c drivers/built-in.o
 .debug_abbrev  0x0000000000163a75     0x403f arch/x86/pci/built-in.o
 .debug_abbrev  0x0000000000167ab4      0x93d arch/x86/power/built-in.o
 .debug_abbrev  0x00000000001683f1      0x337 arch/x86/video/built-in.o
 .debug_abbrev  0x0000000000168728    0x2c382 net/built-in.o
 .debug_abbrev  0x0000000000194aaa      0x510 lib/lib.a(klist.o)

.debug_line     0x0000000000000000   0x34e41f
 *(.debug_line)
 .debug_line    0x0000000000000000      0x1a8 arch/x86/kernel/head_32.o
 .debug_line    0x00000000000001a8      0x2f0 arch/x86/kernel/head32.o
 .debug_line    0x0000000000000498      0x22a arch/x86/kernel/head.o
 .debug_line    0x00000000000006c2      0x84b arch/x86/kernel/init_task.o
 .debug_line    0x0000000000000f0d     0x481c init/built-in.o
 .debug_line    0x0000000000005729    0x50e0a arch/x86/built-in.o
 .debug_line    0x0000000000056533    0x6d856 kernel/built-in.o
 .debug_line    0x00000000000c3d89    0x2d225 mm/built-in.o
 .debug_line    0x00000000000f0fae    0x51336 fs/built-in.o
 .debug_line    0x00000000001422e4     0x6cbb ipc/built-in.o
 .debug_line    0x0000000000148f9f    0x21328 security/built-in.o
 .debug_line    0x000000000016a2c7     0xd6c2 crypto/built-in.o
 .debug_line    0x0000000000177989    0x117a4 block/built-in.o
 .debug_line    0x000000000018912d      0x3c1 lib/lib.a(argv_split.o)
 .debug_line    0x00000000001894ee      0x585 lib/lib.a(bug.o)
 .debug_line    0x0000000000189a73      0x38a lib/lib.a(cmdline.o)
 .debug_line    0x0000000000189dfd      0x3b9 lib/lib.a(cpumask.o)
 .debug_line    0x000000000018a1b6      0x32c lib/lib.a(ctype.o)
 .debug_line    0x000000000018a4e2      0x3c8 lib/lib.a(dec_and_lock.o)
 .debug_line    0x000000000018a8aa       0x72 lib/lib.a(decompress.o)
 .debug_line    0x000000000018a91c      0x5a1 lib/lib.a(decompress_bunzip2.o)
 .debug_line    0x000000000018aebd      0x452 lib/lib.a(decompress_inflate.o)
 .debug_line    0x000000000018b30f      0x618 lib/lib.a(decompress_unlzma.o)
 .debug_line    0x000000000018b927      0x3fe lib/lib.a(extable.o)
 .debug_line    0x000000000018bd25      0x3d1 lib/lib.a(find_next_bit.o)
 .debug_line    0x000000000018c0f6      0x7b8 lib/lib.a(idr.o)
 .debug_line    0x000000000018c8ae      0x346 lib/lib.a(int_sqrt.o)
 .debug_line    0x000000000018cbf4      0x5a8 lib/lib.a(ioremap.o)
 .debug_line    0x000000000018d19c      0x4eb lib/lib.a(is_single_threaded.o)
 .debug_line    0x000000000018d687      0x7fe lib/lib.a(kobject.o)
 .debug_line    0x000000000018de85      0xb27 lib/lib.a(kobject_uevent.o)
 .debug_line    0x000000000018e9ac      0x391 lib/lib.a(kref.o)
 .debug_line    0x000000000018ed3d      0x254 lib/lib.a(plist.o)
 .debug_line    0x000000000018ef91      0x365 lib/lib.a(prio_heap.o)
 .debug_line    0x000000000018f2f6      0x65a lib/lib.a(prio_tree.o)
 .debug_line    0x000000000018f950      0x598 lib/lib.a(proportions.o)
 .debug_line    0x000000000018fee8      0x8b6 lib/lib.a(radix-tree.o)
 .debug_line    0x000000000019079e      0x36f lib/lib.a(ratelimit.o)
 .debug_line    0x0000000000190b0d      0x545 lib/lib.a(rbtree.o)
 .debug_line    0x0000000000191052       0x6f lib/lib.a(reciprocal_div.o)
 .debug_line    0x00000000001910c1      0x734 lib/lib.a(rwsem.o)
 .debug_line    0x00000000001917f5      0x3d8 lib/lib.a(sha1.o)
 .debug_line    0x0000000000191bcd      0x5a8 lib/lib.a(show_mem.o)
 .debug_line    0x0000000000192175      0x489 lib/lib.a(string.o)
 .debug_line    0x00000000001925fe     0x119e lib/lib.a(vsprintf.o)
 .debug_line    0x000000000019379c       0xfd arch/x86/lib/lib.a(checksum_32.o)
 .debug_line    0x0000000000193899      0x609 arch/x86/lib/lib.a(delay.o)
 .debug_line    0x0000000000193ea2       0x60 arch/x86/lib/lib.a(getuser.o)
 .debug_line    0x0000000000193f02      0x387 arch/x86/lib/lib.a(memcpy_32.o)
 .debug_line    0x0000000000194289       0x66 arch/x86/lib/lib.a(putuser.o)
 .debug_line    0x00000000001942ef       0x74 arch/x86/lib/lib.a(semaphore_32.o)
 .debug_line    0x0000000000194363      0x390 arch/x86/lib/lib.a(string_32.o)
 .debug_line    0x00000000001946f3       0x4f arch/x86/lib/lib.a(strstr_32.o)
 .debug_line    0x0000000000194742      0x886 arch/x86/lib/lib.a(usercopy_32.o)
 .debug_line    0x0000000000194fc8     0xad09 lib/built-in.o
 .debug_line    0x000000000019fcd1     0x132c arch/x86/lib/built-in.o
 .debug_line    0x00000000001a0ffd   0x125a62 drivers/built-in.o
 .debug_line    0x00000000002c6a5f     0x6660 arch/x86/pci/built-in.o
 .debug_line    0x00000000002cd0bf      0xefc arch/x86/power/built-in.o
 .debug_line    0x00000000002cdfbb      0x6c7 arch/x86/video/built-in.o
 .debug_line    0x00000000002ce682    0x7f688 net/built-in.o
 .debug_line    0x000000000034dd0a      0x715 lib/lib.a(klist.o)

.debug_frame    0x0000000000000000   0x187408
 *(.debug_frame)
 .debug_frame   0x0000000000000000       0x58 arch/x86/kernel/head32.o
 .debug_frame   0x0000000000000058       0x40 arch/x86/kernel/head.o
 .debug_frame   0x0000000000000098     0x10cc init/built-in.o
 .debug_frame   0x0000000000001164    0x1f8c4 arch/x86/built-in.o
 .debug_frame   0x0000000000020a28    0x4b65c kernel/built-in.o
 .debug_frame   0x000000000006c084    0x16ae4 mm/built-in.o
 .debug_frame   0x0000000000082b68    0x2e628 fs/built-in.o
 .debug_frame   0x00000000000b1190     0x3f14 ipc/built-in.o
 .debug_frame   0x00000000000b50a4    0x11278 security/built-in.o
 .debug_frame   0x00000000000c631c     0x5278 crypto/built-in.o
 .debug_frame   0x00000000000cb594     0xb494 block/built-in.o
 .debug_frame   0x00000000000d6a28       0xdc lib/lib.a(argv_split.o)
 .debug_frame   0x00000000000d6b04       0xdc lib/lib.a(bug.o)
 .debug_frame   0x00000000000d6be0      0x120 lib/lib.a(cmdline.o)
 .debug_frame   0x00000000000d6d00       0xd0 lib/lib.a(cpumask.o)
 .debug_frame   0x00000000000d6dd0       0x5c lib/lib.a(dec_and_lock.o)
 .debug_frame   0x00000000000d6e2c       0x7c lib/lib.a(decompress.o)
 .debug_frame   0x00000000000d6ea8      0x1a0 lib/lib.a(decompress_bunzip2.o)
 .debug_frame   0x00000000000d7048       0xd8 lib/lib.a(decompress_inflate.o)
 .debug_frame   0x00000000000d7120      0x160 lib/lib.a(decompress_unlzma.o)
 .debug_frame   0x00000000000d7280       0xdc lib/lib.a(extable.o)
 .debug_frame   0x00000000000d735c      0x170 lib/lib.a(find_next_bit.o)
 .debug_frame   0x00000000000d74cc      0x6d8 lib/lib.a(idr.o)
 .debug_frame   0x00000000000d7ba4       0x38 lib/lib.a(int_sqrt.o)
 .debug_frame   0x00000000000d7bdc       0x84 lib/lib.a(ioremap.o)
 .debug_frame   0x00000000000d7c60       0x68 lib/lib.a(is_single_threaded.o)
 .debug_frame   0x00000000000d7cc8      0x63c lib/lib.a(kobject.o)
 .debug_frame   0x00000000000d8304      0x138 lib/lib.a(kobject_uevent.o)
 .debug_frame   0x00000000000d843c       0x98 lib/lib.a(kref.o)
 .debug_frame   0x00000000000d84d4       0xb8 lib/lib.a(plist.o)
 .debug_frame   0x00000000000d858c       0xe8 lib/lib.a(prio_heap.o)
 .debug_frame   0x00000000000d8674      0x224 lib/lib.a(prio_tree.o)
 .debug_frame   0x00000000000d8898      0x2e0 lib/lib.a(proportions.o)
 .debug_frame   0x00000000000d8b78      0x8c4 lib/lib.a(radix-tree.o)
 .debug_frame   0x00000000000d943c       0x78 lib/lib.a(ratelimit.o)
 .debug_frame   0x00000000000d94b4      0x24c lib/lib.a(rbtree.o)
 .debug_frame   0x00000000000d9700       0x44 lib/lib.a(reciprocal_div.o)
 .debug_frame   0x00000000000d9744      0x1cc lib/lib.a(rwsem.o)
 .debug_frame   0x00000000000d9910       0x8c lib/lib.a(sha1.o)
 .debug_frame   0x00000000000d999c       0x84 lib/lib.a(show_mem.o)
 .debug_frame   0x00000000000d9a20      0x468 lib/lib.a(string.o)
 .debug_frame   0x00000000000d9e88      0x7dc lib/lib.a(vsprintf.o)
 .debug_frame   0x00000000000da664       0xf8 arch/x86/lib/lib.a(delay.o)
 .debug_frame   0x00000000000da75c       0xc8 arch/x86/lib/lib.a(memcpy_32.o)
 .debug_frame   0x00000000000da824      0x200 arch/x86/lib/lib.a(string_32.o)
 .debug_frame   0x00000000000daa24       0x50 arch/x86/lib/lib.a(strstr_32.o)
 .debug_frame   0x00000000000daa74      0x2d4 arch/x86/lib/lib.a(usercopy_32.o)
 .debug_frame   0x00000000000dad48     0x34e8 lib/built-in.o
 .debug_frame   0x00000000000de230      0x5b8 arch/x86/lib/built-in.o
 .debug_frame   0x00000000000de7e8    0x7b27c drivers/built-in.o
 .debug_frame   0x0000000000159a64     0x2034 arch/x86/pci/built-in.o
 .debug_frame   0x000000000015ba98      0x144 arch/x86/power/built-in.o
 .debug_frame   0x000000000015bbdc       0x24 arch/x86/video/built-in.o
 .debug_frame   0x000000000015bc00    0x2b530 net/built-in.o
 .debug_frame   0x0000000000187130      0x2d8 lib/lib.a(klist.o)

.debug_str      0x0000000000000000   0x18e617
 *(.debug_str)
 .debug_str     0x0000000000000000     0x138d arch/x86/kernel/head32.o
                                       0x1fc3 (size before relaxing)
 .debug_str     0x000000000000138d       0x50 arch/x86/kernel/head.o
                                       0x1032 (size before relaxing)
 .debug_str     0x00000000000013dd     0x594a arch/x86/kernel/init_task.o
                                       0x9059 (size before relaxing)
 .debug_str     0x0000000000006d27     0x4b14 init/built-in.o
                                      0x3a2a1 (size before relaxing)
 .debug_str     0x000000000000b83b    0x1df7a arch/x86/built-in.o
                                     0x2fec17 (size before relaxing)
 .debug_str     0x00000000000297b5    0x4769c kernel/built-in.o
                                     0x39fab8 (size before relaxing)
 .debug_str     0x0000000000070e51    0x1402f mm/built-in.o
                                     0x16e82c (size before relaxing)
 .debug_str     0x0000000000084e80    0x27f57 fs/built-in.o
                                     0x326a52 (size before relaxing)
 .debug_str     0x00000000000acdd7     0x275f ipc/built-in.o
                                      0x4267c (size before relaxing)
 .debug_str     0x00000000000af536     0xc9f2 security/built-in.o
                                     0x168d56 (size before relaxing)
 .debug_str     0x00000000000bbf28     0x6862 crypto/built-in.o
                                      0x91753 (size before relaxing)
 .debug_str     0x00000000000c278a     0xabc3 block/built-in.o
                                      0xb9e1b (size before relaxing)
 .debug_str     0x00000000000cd34d       0xd6 lib/lib.a(argv_split.o)
                                       0x229f (size before relaxing)
 .debug_str     0x00000000000cd423       0xc9 lib/lib.a(bug.o)
                                       0x458c (size before relaxing)
 .debug_str     0x00000000000cd4ec      0x12f lib/lib.a(cmdline.o)
                                       0x2259 (size before relaxing)
 .debug_str     0x00000000000cd61b      0x192 lib/lib.a(cpumask.o)
                                       0x2370 (size before relaxing)
 .debug_str     0x00000000000cd7ad       0x4c lib/lib.a(ctype.o)
                                       0x2147 (size before relaxing)
 .debug_str     0x00000000000cd7f9       0x8b lib/lib.a(dec_and_lock.o)
                                       0x2228 (size before relaxing)
 .debug_str     0x00000000000cd884       0x46 lib/lib.a(decompress.o)
                                        0x149 (size before relaxing)
 .debug_str     0x00000000000cd8ca      0x1de lib/lib.a(decompress_bunzip2.o)
                                       0x232b (size before relaxing)
 .debug_str     0x00000000000cdaa8      0x13c lib/lib.a(decompress_inflate.o)
                                       0x235e (size before relaxing)
 .debug_str     0x00000000000cdbe4      0x1ed lib/lib.a(decompress_unlzma.o)
                                       0x239d (size before relaxing)
 .debug_str     0x00000000000cddd1       0x43 lib/lib.a(extable.o)
                                       0x2443 (size before relaxing)
 .debug_str     0x00000000000cde14      0x1cd lib/lib.a(find_next_bit.o)
                                       0x2329 (size before relaxing)
 .debug_str     0x00000000000cdfe1      0x652 lib/lib.a(idr.o)
                                       0x29f8 (size before relaxing)
 .debug_str     0x00000000000ce633       0x57 lib/lib.a(int_sqrt.o)
                                       0x2154 (size before relaxing)
 .debug_str     0x00000000000ce68a       0x57 lib/lib.a(ioremap.o)
                                       0x3cb5 (size before relaxing)
 .debug_str     0x00000000000ce6e1       0x34 lib/lib.a(is_single_threaded.o)
                                       0x3b04 (size before relaxing)
 .debug_str     0x00000000000ce715      0x6b5 lib/lib.a(kobject.o)
                                       0x30f3 (size before relaxing)
 .debug_str     0x00000000000cedca      0x1d7 lib/lib.a(kobject_uevent.o)
                                       0xadd6 (size before relaxing)
 .debug_str     0x00000000000cefa1      0x12f lib/lib.a(kref.o)
                                       0x22a2 (size before relaxing)
 .debug_str     0x00000000000cf0d0       0x30 lib/lib.a(plist.o)
                                       0x1040 (size before relaxing)
 .debug_str     0x00000000000cf100       0x38 lib/lib.a(prio_heap.o)
                                       0x1e62 (size before relaxing)
 .debug_str     0x00000000000cf138      0x11d lib/lib.a(prio_tree.o)
                                       0x2bc4 (size before relaxing)
 .debug_str     0x00000000000cf255      0x1a1 lib/lib.a(proportions.o)
                                       0x22db (size before relaxing)
 .debug_str     0x00000000000cf3f6      0x991 lib/lib.a(radix-tree.o)
                                       0x2da2 (size before relaxing)
 .debug_str     0x00000000000cfd87       0x64 lib/lib.a(ratelimit.o)
                                       0x21be (size before relaxing)
 .debug_str     0x00000000000cfdeb      0x280 lib/lib.a(rbtree.o)
                                       0x2425 (size before relaxing)
 .debug_str     0x00000000000d006b       0x26 lib/lib.a(reciprocal_div.o)
                                        0x11f (size before relaxing)
 .debug_str     0x00000000000d0091      0x2ca lib/lib.a(rwsem.o)
                                       0x47b3 (size before relaxing)
 .debug_str     0x00000000000d035b       0x76 lib/lib.a(sha1.o)
                                       0x21a9 (size before relaxing)
 .debug_str     0x00000000000d03d1       0x19 lib/lib.a(show_mem.o)
                                       0x3e3c (size before relaxing)
 .debug_str     0x00000000000d03ea      0x406 lib/lib.a(string.o)
                                       0x25bc (size before relaxing)
 .debug_str     0x00000000000d07f0      0x901 lib/lib.a(vsprintf.o)
                                       0xb702 (size before relaxing)
 .debug_str     0x00000000000d10f1      0x1a0 arch/x86/lib/lib.a(delay.o)
                                       0x46f8 (size before relaxing)
 .debug_str     0x00000000000d1291       0xdd arch/x86/lib/lib.a(memcpy_32.o)
                                       0x220b (size before relaxing)
 .debug_str     0x00000000000d136e      0x2ed arch/x86/lib/lib.a(string_32.o)
                                       0x243d (size before relaxing)
 .debug_str     0x00000000000d165b       0x19 arch/x86/lib/lib.a(strstr_32.o)
                                         0xfd (size before relaxing)
 .debug_str     0x00000000000d1674      0x5ec arch/x86/lib/lib.a(usercopy_32.o)
                                       0x7c0c (size before relaxing)
 .debug_str     0x00000000000d1c60     0x47e0 lib/built-in.o
                                      0x67527 (size before relaxing)
 .debug_str     0x00000000000d6440      0xd44 arch/x86/lib/built-in.o
                                       0xb4d2 (size before relaxing)
 .debug_str     0x00000000000d7184    0x82890 drivers/built-in.o
                                     0xb89ce7 (size before relaxing)
 .debug_str     0x0000000000159a14     0x1f85 arch/x86/pci/built-in.o
                                      0x43524 (size before relaxing)
 .debug_str     0x000000000015b999      0x33d arch/x86/power/built-in.o
                                       0x9ed0 (size before relaxing)
 .debug_str     0x000000000015bcd6       0x8f arch/x86/video/built-in.o
                                       0x7199 (size before relaxing)
 .debug_str     0x000000000015bd65    0x3237e net/built-in.o
                                     0x5a7e93 (size before relaxing)
 .debug_str     0x000000000018e0e3      0x534 lib/lib.a(klist.o)
                                       0x4a86 (size before relaxing)

.debug_loc      0x0000000000000000   0x76123a
 *(.debug_loc)
 .debug_loc     0x0000000000000000       0x26 arch/x86/kernel/head32.o
 .debug_loc     0x0000000000000026       0x39 arch/x86/kernel/head.o
 .debug_loc     0x000000000000005f     0x2f0f init/built-in.o
 .debug_loc     0x0000000000002f6e    0x9516f arch/x86/built-in.o
 .debug_loc     0x00000000000980dd   0x128de2 kernel/built-in.o
 .debug_loc     0x00000000001c0ebf    0x98c9a mm/built-in.o
 .debug_loc     0x0000000000259b59    0xae061 fs/built-in.o
 .debug_loc     0x0000000000307bba     0xc921 ipc/built-in.o
 .debug_loc     0x00000000003144db    0x3ee38 security/built-in.o
 .debug_loc     0x0000000000353313    0x192fe crypto/built-in.o
 .debug_loc     0x000000000036c611    0x2c8db block/built-in.o
 .debug_loc     0x0000000000398eec      0x2ef lib/lib.a(argv_split.o)
 .debug_loc     0x00000000003991db      0x384 lib/lib.a(bug.o)
 .debug_loc     0x000000000039955f      0x1f0 lib/lib.a(cmdline.o)
 .debug_loc     0x000000000039974f      0x24e lib/lib.a(cpumask.o)
 .debug_loc     0x000000000039999d      0x2e6 lib/lib.a(dec_and_lock.o)
 .debug_loc     0x0000000000399c83       0x73 lib/lib.a(decompress.o)
 .debug_loc     0x0000000000399cf6      0xefe lib/lib.a(decompress_bunzip2.o)
 .debug_loc     0x000000000039abf4      0x3dc lib/lib.a(decompress_inflate.o)
 .debug_loc     0x000000000039afd0     0x12a8 lib/lib.a(decompress_unlzma.o)
 .debug_loc     0x000000000039c278      0x146 lib/lib.a(extable.o)
 .debug_loc     0x000000000039c3be      0x5b5 lib/lib.a(find_next_bit.o)
 .debug_loc     0x000000000039c973     0x1bd6 lib/lib.a(idr.o)
 .debug_loc     0x000000000039e549       0x89 lib/lib.a(int_sqrt.o)
 .debug_loc     0x000000000039e5d2      0x758 lib/lib.a(ioremap.o)
 .debug_loc     0x000000000039ed2a      0x206 lib/lib.a(is_single_threaded.o)
 .debug_loc     0x000000000039ef30     0x18b8 lib/lib.a(kobject.o)
 .debug_loc     0x00000000003a07e8      0xa2c lib/lib.a(kobject_uevent.o)
 .debug_loc     0x00000000003a1214      0x15d lib/lib.a(kref.o)
 .debug_loc     0x00000000003a1371      0x441 lib/lib.a(plist.o)
 .debug_loc     0x00000000003a17b2      0x24a lib/lib.a(prio_heap.o)
 .debug_loc     0x00000000003a19fc      0xf36 lib/lib.a(prio_tree.o)
 .debug_loc     0x00000000003a2932      0xe0f lib/lib.a(proportions.o)
 .debug_loc     0x00000000003a3741     0x28fa lib/lib.a(radix-tree.o)
 .debug_loc     0x00000000003a603b       0x73 lib/lib.a(ratelimit.o)
 .debug_loc     0x00000000003a60ae      0x8bd lib/lib.a(rbtree.o)
 .debug_loc     0x00000000003a696b       0xa1 lib/lib.a(reciprocal_div.o)
 .debug_loc     0x00000000003a6a0c      0xc43 lib/lib.a(rwsem.o)
 .debug_loc     0x00000000003a764f      0x65e lib/lib.a(sha1.o)
 .debug_loc     0x00000000003a7cad      0x556 lib/lib.a(show_mem.o)
 .debug_loc     0x00000000003a8203      0x904 lib/lib.a(string.o)
 .debug_loc     0x00000000003a8b07     0x3879 lib/lib.a(vsprintf.o)
 .debug_loc     0x00000000003ac380      0x2a7 arch/x86/lib/lib.a(delay.o)
 .debug_loc     0x00000000003ac627      0x119 arch/x86/lib/lib.a(memcpy_32.o)
 .debug_loc     0x00000000003ac740      0x1dd arch/x86/lib/lib.a(string_32.o)
 .debug_loc     0x00000000003ac91d       0x3c arch/x86/lib/lib.a(strstr_32.o)
 .debug_loc     0x00000000003ac959      0xaad arch/x86/lib/lib.a(usercopy_32.o)
 .debug_loc     0x00000000003ad406     0xe57c lib/built-in.o
 .debug_loc     0x00000000003bb982      0xd62 arch/x86/lib/built-in.o
 .debug_loc     0x00000000003bc6e4   0x261786 drivers/built-in.o
 .debug_loc     0x000000000061de6a     0x821f arch/x86/pci/built-in.o
 .debug_loc     0x0000000000626089     0x1831 arch/x86/power/built-in.o
 .debug_loc     0x00000000006278ba       0xae arch/x86/video/built-in.o
 .debug_loc     0x0000000000627968   0x138dfe net/built-in.o
 .debug_loc     0x0000000000760766      0xad4 lib/lib.a(klist.o)

.debug_macinfo
 *(.debug_macinfo)

.debug_weaknames
 *(.debug_weaknames)

.debug_funcnames
 *(.debug_funcnames)

.debug_typenames
 *(.debug_typenames)

.debug_varnames
 *(.debug_varnames)

/DISCARD/
 *(.exit.text)
 *(.exit.data)
 *(.exitcall.exit)
 *(.discard)
 *(.eh_frame)
                0x0000000000000001                . = ASSERT (((_end - 0xc0000000) <= 0x20000000), kernel image bigger than KERNEL_IMAGE_SIZE)
                0x0000000000000001                . = ASSERT ((kexec_control_code_size <= 0x800), kexec control code size is too big)
LOAD arch/x86/kernel/head_32.o
LOAD arch/x86/kernel/head32.o
LOAD arch/x86/kernel/head.o
LOAD arch/x86/kernel/init_task.o
LOAD init/built-in.o
START GROUP
LOAD usr/built-in.o
LOAD arch/x86/built-in.o
LOAD kernel/built-in.o
LOAD mm/built-in.o
LOAD fs/built-in.o
LOAD ipc/built-in.o
LOAD security/built-in.o
LOAD crypto/built-in.o
LOAD block/built-in.o
LOAD lib/lib.a
LOAD arch/x86/lib/lib.a
LOAD lib/built-in.o
LOAD arch/x86/lib/built-in.o
LOAD drivers/built-in.o
LOAD sound/built-in.o
LOAD firmware/built-in.o
LOAD arch/x86/pci/built-in.o
LOAD arch/x86/power/built-in.o
LOAD arch/x86/video/built-in.o
LOAD net/built-in.o
END GROUP
LOAD .tmp_kallsyms3.o
OUTPUT(vmlinux elf32-i386)

.debug_ranges   0x0000000000000000   0x13a9a0
 .debug_ranges  0x0000000000000000       0x28 arch/x86/kernel/head_32.o
 .debug_ranges  0x0000000000000028       0x10 arch/x86/kernel/head32.o
 .debug_ranges  0x0000000000000038       0x40 arch/x86/kernel/head.o
 .debug_ranges  0x0000000000000078      0x9c8 init/built-in.o
 .debug_ranges  0x0000000000000a40    0x1e118 arch/x86/built-in.o
 .debug_ranges  0x000000000001eb58    0x369c8 kernel/built-in.o
 .debug_ranges  0x0000000000055520    0x1e998 mm/built-in.o
 .debug_ranges  0x0000000000073eb8    0x1bfa8 fs/built-in.o
 .debug_ranges  0x000000000008fe60     0x1cf8 ipc/built-in.o
 .debug_ranges  0x0000000000091b58     0xa048 security/built-in.o
 .debug_ranges  0x000000000009bba0     0x4630 crypto/built-in.o
 .debug_ranges  0x00000000000a01d0     0x8420 block/built-in.o
 .debug_ranges  0x00000000000a85f0       0x88 lib/lib.a(argv_split.o)
 .debug_ranges  0x00000000000a8678       0x30 lib/lib.a(bug.o)
 .debug_ranges  0x00000000000a86a8       0x48 lib/lib.a(cpumask.o)
 .debug_ranges  0x00000000000a86f0       0x50 lib/lib.a(dec_and_lock.o)
 .debug_ranges  0x00000000000a8740       0xa0 lib/lib.a(decompress_bunzip2.o)
 .debug_ranges  0x00000000000a87e0       0x18 lib/lib.a(decompress_inflate.o)
 .debug_ranges  0x00000000000a87f8      0x178 lib/lib.a(decompress_unlzma.o)
 .debug_ranges  0x00000000000a8970       0x58 lib/lib.a(extable.o)
 .debug_ranges  0x00000000000a89c8      0x2c8 lib/lib.a(idr.o)
 .debug_ranges  0x00000000000a8c90      0x2a8 lib/lib.a(ioremap.o)
 .debug_ranges  0x00000000000a8f38      0x5a8 lib/lib.a(kobject.o)
 .debug_ranges  0x00000000000a94e0      0x1c0 lib/lib.a(kobject_uevent.o)
 .debug_ranges  0x00000000000a96a0       0x50 lib/lib.a(kref.o)
 .debug_ranges  0x00000000000a96f0       0xb0 lib/lib.a(plist.o)
 .debug_ranges  0x00000000000a97a0       0x18 lib/lib.a(prio_heap.o)
 .debug_ranges  0x00000000000a97b8      0x1f8 lib/lib.a(prio_tree.o)
 .debug_ranges  0x00000000000a99b0      0x240 lib/lib.a(proportions.o)
 .debug_ranges  0x00000000000a9bf0      0x598 lib/lib.a(radix-tree.o)
 .debug_ranges  0x00000000000aa188      0x168 lib/lib.a(rbtree.o)
 .debug_ranges  0x00000000000aa2f0       0x20 lib/lib.a(reciprocal_div.o)
 .debug_ranges  0x00000000000aa310      0x178 lib/lib.a(rwsem.o)
 .debug_ranges  0x00000000000aa488       0x48 lib/lib.a(sha1.o)
 .debug_ranges  0x00000000000aa4d0      0x108 lib/lib.a(show_mem.o)
 .debug_ranges  0x00000000000aa5d8       0x60 lib/lib.a(string.o)
 .debug_ranges  0x00000000000aa638      0x430 lib/lib.a(vsprintf.o)
 .debug_ranges  0x00000000000aaa68       0x20 arch/x86/lib/lib.a(checksum_32.o)
 .debug_ranges  0x00000000000aaa88       0x68 arch/x86/lib/lib.a(delay.o)
 .debug_ranges  0x00000000000aaaf0       0x30 arch/x86/lib/lib.a(memcpy_32.o)
 .debug_ranges  0x00000000000aab20      0x198 arch/x86/lib/lib.a(usercopy_32.o)
 .debug_ranges  0x00000000000aacb8     0x21d0 lib/built-in.o
 .debug_ranges  0x00000000000ace88      0x1f8 arch/x86/lib/built-in.o
 .debug_ranges  0x00000000000ad080    0x591f8 drivers/built-in.o
 .debug_ranges  0x0000000000106278     0x1500 arch/x86/pci/built-in.o
 .debug_ranges  0x0000000000107778      0x538 arch/x86/power/built-in.o
 .debug_ranges  0x0000000000107cb0    0x32b58 net/built-in.o
 .debug_ranges  0x000000000013a808      0x198 lib/lib.a(klist.o)

.debug_pubtypes
                0x0000000000000000   0x63b14f
 .debug_pubtypes
                0x0000000000000000      0x4a9 arch/x86/kernel/head32.o
 .debug_pubtypes
                0x00000000000004a9      0x2f4 arch/x86/kernel/head.o
 .debug_pubtypes
                0x000000000000079d     0x1937 arch/x86/kernel/init_task.o
 .debug_pubtypes
                0x00000000000020d4     0xb6bb init/built-in.o
 .debug_pubtypes
                0x000000000000d78f    0x900f7 arch/x86/built-in.o
 .debug_pubtypes
                0x000000000009d886    0xa5deb kernel/built-in.o
 .debug_pubtypes
                0x0000000000143671    0x43801 mm/built-in.o
 .debug_pubtypes
                0x0000000000186e72    0x98e55 fs/built-in.o
 .debug_pubtypes
                0x000000000021fcc7     0xc211 ipc/built-in.o
 .debug_pubtypes
                0x000000000022bed8    0x4218b security/built-in.o
 .debug_pubtypes
                0x000000000026e063    0x1cc18 crypto/built-in.o
 .debug_pubtypes
                0x000000000028ac7b    0x25ce0 block/built-in.o
 .debug_pubtypes
                0x00000000002b095b      0x5ea lib/lib.a(argv_split.o)
 .debug_pubtypes
                0x00000000002b0f45      0xe23 lib/lib.a(bug.o)
 .debug_pubtypes
                0x00000000002b1d68      0x5ea lib/lib.a(cmdline.o)
 .debug_pubtypes
                0x00000000002b2352      0x609 lib/lib.a(cpumask.o)
 .debug_pubtypes
                0x00000000002b295b      0x5ea lib/lib.a(ctype.o)
 .debug_pubtypes
                0x00000000002b2f45      0x5fb lib/lib.a(dec_and_lock.o)
 .debug_pubtypes
                0x00000000002b3540       0x38 lib/lib.a(decompress.o)
 .debug_pubtypes
                0x00000000002b3578      0x5eb lib/lib.a(decompress_bunzip2.o)
 .debug_pubtypes
                0x00000000002b3b63      0x639 lib/lib.a(decompress_inflate.o)
 .debug_pubtypes
                0x00000000002b419c      0x656 lib/lib.a(decompress_unlzma.o)
 .debug_pubtypes
                0x00000000002b47f2      0x783 lib/lib.a(extable.o)
 .debug_pubtypes
                0x00000000002b4f75      0x5ea lib/lib.a(find_next_bit.o)
 .debug_pubtypes
                0x00000000002b555f      0x624 lib/lib.a(idr.o)
 .debug_pubtypes
                0x00000000002b5b83      0x5ea lib/lib.a(int_sqrt.o)
 .debug_pubtypes
                0x00000000002b616d      0xbd2 lib/lib.a(ioremap.o)
 .debug_pubtypes
                0x00000000002b6d3f      0xb8c lib/lib.a(is_single_threaded.o)
 .debug_pubtypes
                0x00000000002b78cb      0x80a lib/lib.a(kobject.o)
 .debug_pubtypes
                0x00000000002b80d5     0x1d8d lib/lib.a(kobject_uevent.o)
 .debug_pubtypes
                0x00000000002b9e62      0x5f3 lib/lib.a(kref.o)
 .debug_pubtypes
                0x00000000002ba455      0x2ff lib/lib.a(plist.o)
 .debug_pubtypes
                0x00000000002ba754      0x588 lib/lib.a(prio_heap.o)
 .debug_pubtypes
                0x00000000002bacdc      0x7e8 lib/lib.a(prio_tree.o)
 .debug_pubtypes
                0x00000000002bb4c4      0x6a2 lib/lib.a(proportions.o)
 .debug_pubtypes
                0x00000000002bbb66      0x65d lib/lib.a(radix-tree.o)
 .debug_pubtypes
                0x00000000002bc1c3      0x5fe lib/lib.a(ratelimit.o)
 .debug_pubtypes
                0x00000000002bc7c1      0x602 lib/lib.a(rbtree.o)
 .debug_pubtypes
                0x00000000002bcdc3       0x22 lib/lib.a(reciprocal_div.o)
 .debug_pubtypes
                0x00000000002bcde5      0xe0c lib/lib.a(rwsem.o)
 .debug_pubtypes
                0x00000000002bdbf1      0x5f5 lib/lib.a(sha1.o)
 .debug_pubtypes
                0x00000000002be1e6      0xbef lib/lib.a(show_mem.o)
 .debug_pubtypes
                0x00000000002bedd5      0x5f3 lib/lib.a(string.o)
 .debug_pubtypes
                0x00000000002bf3c8     0x1dce lib/lib.a(vsprintf.o)
 .debug_pubtypes
                0x00000000002c1196      0xe15 arch/x86/lib/lib.a(delay.o)
 .debug_pubtypes
                0x00000000002c1fab      0x5ea arch/x86/lib/lib.a(memcpy_32.o)
 .debug_pubtypes
                0x00000000002c2595      0x5ea arch/x86/lib/lib.a(string_32.o)
 .debug_pubtypes
                0x00000000002c2b7f       0x12 arch/x86/lib/lib.a(strstr_32.o)
 .debug_pubtypes
                0x00000000002c2b91     0x1a66 arch/x86/lib/lib.a(usercopy_32.o)
 .debug_pubtypes
                0x00000000002c45f7    0x12a76 lib/built-in.o
 .debug_pubtypes
                0x00000000002d706d     0x1dd8 arch/x86/lib/built-in.o
 .debug_pubtypes
                0x00000000002d8e45   0x25ea07 drivers/built-in.o
 .debug_pubtypes
                0x000000000053784c     0xdf90 arch/x86/pci/built-in.o
 .debug_pubtypes
                0x00000000005457dc     0x1e5e arch/x86/power/built-in.o
 .debug_pubtypes
                0x000000000054763a     0x177e arch/x86/video/built-in.o
 .debug_pubtypes
                0x0000000000548db8    0xf1576 net/built-in.o
 .debug_pubtypes
                0x000000000063a32e      0xe21 lib/lib.a(klist.o)